; Listing generated by Microsoft (R) Optimizing Compiler Version 16.00.40219.01 

	TITLE	C:\A15\facultate\forth\atlast-2.0\atlast.c
	.686P
	.XMM
	include listing.inc
	.model	flat

INCLUDELIB LIBCMT
INCLUDELIB OLDNAMES

PUBLIC	_opterr
PUBLIC	_optind
PUBLIC	_optopt
PUBLIC	_atl_stklen
PUBLIC	_atl_rstklen
PUBLIC	_atl_heaplen
PUBLIC	_atl_ltempstr
PUBLIC	_atl_ntempstr
PUBLIC	_atl_trace
PUBLIC	_atl_walkback
PUBLIC	_atl_comment
PUBLIC	_atl_redef
PUBLIC	_atl_errline
_BSS	SEGMENT
$SG82875 DB	01H DUP (?)
	ALIGN	4

$SG82874 DB	01H DUP (?)
	ALIGN	4

$SG82871 DB	01H DUP (?)
	ALIGN	4

$SG82870 DB	01H DUP (?)
	ALIGN	4

$SG82868 DB	01H DUP (?)
	ALIGN	4

$SG82866 DB	01H DUP (?)
	ALIGN	4

$SG82864 DB	01H DUP (?)
	ALIGN	4

$SG82862 DB	01H DUP (?)
	ALIGN	4

$SG81829 DB	01H DUP (?)
_BSS	ENDS
_DATA	SEGMENT
COMM	___mingw_optreset:DWORD
COMM	_optarg:DWORD
_DATA	ENDS
_BSS	SEGMENT
	ALIGN	4

$SG82015 DB	01H DUP (?)
	ALIGN	4

$SG82022 DB	01H DUP (?)
	ALIGN	4

$SG82031 DB	01H DUP (?)
	ALIGN	4

$SG82041 DB	01H DUP (?)
	ALIGN	4

$SG82060 DB	01H DUP (?)
	ALIGN	4

$SG82065 DB	01H DUP (?)
	ALIGN	4

$SG82074 DB	01H DUP (?)
	ALIGN	4

$SG82079 DB	01H DUP (?)
	ALIGN	8

_atl_trace DQ	01H DUP (?)
_atl_comment DQ	01H DUP (?)
_atl_errline DQ	01H DUP (?)
_stack	DD	01H DUP (?)
_rstack	DD	01H DUP (?)
_heap	DD	01H DUP (?)
_dict	DD	01H DUP (?)
_dictprot DD	01H DUP (?)
_strbuf	DD	01H DUP (?)
_cstrbuf DD	01H DUP (?)
_wback	DD	01H DUP (?)
_instream DD	01H DUP (?)
_ip	DD	01H DUP (?)
_curword DD	01H DUP (?)
_evalstat DD	01H DUP (?)
_defpend DD	01H DUP (?)
_forgetpend DD	01H DUP (?)
_tickpend DD	01H DUP (?)
_ctickpend DD	01H DUP (?)
_cbrackpend DD	01H DUP (?)
_createword DD	01H DUP (?)
_stringlit DD	01H DUP (?)
_broken	DD	01H DUP (?)
_BSS	ENDS
CONST	SEGMENT
_recargchar DB	'option requires an argument -- %c', 00H
	ORG $+2
_recargstring DB 'option requires an argument -- %s', 00H
	ORG $+2
_ambig	DB	'ambiguous option -- %.*s', 00H
	ORG $+3
_noarg	DB	'option doesn''t take an argument -- %.*s', 00H
_illoptchar DB	'unknown option -- %c', 00H
	ORG $+3
_illoptstring DB 'unknown option -- %s', 00H
CONST	ENDS
_DATA	SEGMENT
_opterr	DD	01H
_optind	DD	01H
_optopt	DD	03fH
_place	DD	FLAT:$SG81829
_nonopt_start DD 0ffffffffH
_nonopt_end DD	0ffffffffH
$SG81845 DB	'%s: ', 00H
	ORG $+3
$SG81850 DB	0aH, 00H
	ORG $+2
?posixly_correct@?1??getopt_internal@@9@9 DD 0ffffffffH	; `getopt_internal'::`2'::posixly_correct
$SG82002 DB	'POSIXLY_CORRECT', 00H
_atl_stklen DQ	0000000000000064H
_atl_rstklen DQ	0000000000000064H
_atl_heaplen DQ	00000000000007d0H
_atl_ltempstr DQ 0000000000000100H
_atl_ntempstr DQ 0000000000000004H
_atl_walkback DQ ffffffffffffffffH
_atl_redef DQ	ffffffffffffffffH
$SG82863 DB	'r', 00H
	ORG $+2
$SG82865 DB	'r+', 00H
	ORG $+1
$SG82867 DB	'r', 00H
	ORG $+2
$SG82869 DB	'r+', 00H
	ORG $+1
$SG82872 DB	'w', 00H
	ORG $+2
$SG82873 DB	'w+', 00H
	ORG $+1
$SG82876 DB	'w', 00H
	ORG $+2
$SG82877 DB	'w+', 00H
	ORG $+1
_fopenmodes DD	FLAT:$SG82862
	DD	FLAT:$SG82863
	DD	FLAT:$SG82864
	DD	FLAT:$SG82865
	DD	FLAT:$SG82866
	DD	FLAT:$SG82867
	DD	FLAT:$SG82868
	DD	FLAT:$SG82869
	DD	FLAT:$SG82870
	DD	FLAT:$SG82871
	DD	FLAT:$SG82872
	DD	FLAT:$SG82873
	DD	FLAT:$SG82874
	DD	FLAT:$SG82875
	DD	FLAT:$SG82876
	DD	FLAT:$SG82877
_base	DD	0aH
$SG82923 DB	0aH, 0aH, 'Out of memory!  %u bytes requested.', 0aH, 00H
	ORG $+1
$SG82985 DB	0aH, 'Runaway string: %s', 0aH, 00H
	ORG $+3
$SG82988 DB	'\', 00H
	ORG $+2
$SG82993 DB	'(', 00H
	ORG $+2
$SG83005 DB	'%lf%c', 00H
	ORG $+2
$SG83274 DB	'Subscript out of range', 00H
	ORG $+1
$SG83292 DB	'Bad array element size', 00H
	ORG $+1
$SG83294 DB	'Bad array subscript count', 00H
	ORG $+2
$SG83300 DB	'Bad array dimension', 00H
$SG83318 DB	'"%s" ', 00H
	ORG $+2
$SG83497 DB	'%g ', 00H
$SG83653 DB	'%g ', 00H
$SG83763 DB	'%lX', 00H
$SG83764 DB	'%ld ', 00H
	ORG $+3
$SG83774 DB	'%lX', 00H
$SG83775 DB	'%ld ', 00H
	ORG $+3
$SG83779 DB	0aH, 00H
	ORG $+2
$SG83784 DB	'Stack: ', 00H
$SG83787 DB	'Empty.', 00H
	ORG $+1
$SG83793 DB	'%lX', 00H
$SG83794 DB	'%ld ', 00H
	ORG $+3
$SG83807 DB	'%s', 00H
	ORG $+1
$SG83818 DB	'%s', 00H
	ORG $+1
$SG83828 DB	0aH, '%s', 00H
$SG83831 DB	0aH, 00H
	ORG $+2
$SG83855 DB	0aH, 'Not a file', 0aH, 00H
	ORG $+3
$SG83876 DB	0aH, 'Not a file', 0aH, 00H
	ORG $+3
$SG83882 DB	0aH, 'File not open', 0aH, 00H
$SG83911 DB	0aH, 'Not a file', 0aH, 00H
	ORG $+3
$SG83917 DB	0aH, 'File not open', 0aH, 00H
$SG83938 DB	0aH, 'Not a file', 0aH, 00H
	ORG $+3
$SG83944 DB	0aH, 'File not open', 0aH, 00H
$SG83966 DB	0aH, 'Not a file', 0aH, 00H
	ORG $+3
$SG83972 DB	0aH, 'File not open', 0aH, 00H
$SG83991 DB	0aH, 'Not a file', 0aH, 00H
	ORG $+3
$SG83997 DB	0aH, 'File not open', 0aH, 00H
$SG84012 DB	0aH, 'Not a file', 0aH, 00H
	ORG $+3
$SG84018 DB	0aH, 'File not open', 0aH, 00H
$SG84031 DB	0aH, 'Not a file', 0aH, 00H
	ORG $+3
$SG84037 DB	0aH, 'File not open', 0aH, 00H
$SG84051 DB	0aH, 'Not a file', 0aH, 00H
	ORG $+3
$SG84057 DB	0aH, 'File not open', 0aH, 00H
$SG84071 DB	0aH, 'Not a file', 0aH, 00H
	ORG $+3
$SG84077 DB	0aH, 'File not open', 0aH, 00H
$SG84095 DB	0aH, 'Not a file', 0aH, 00H
	ORG $+3
$SG84101 DB	0aH, 'File not open', 0aH, 00H
$SG84247 DB	'%ld ', 00H
	ORG $+3
$SG84486 DB	'%s', 00H
	ORG $+1
$SG84540 DB	' ''%s'' undefined ', 00H
	ORG $+3
$SG84543 DB	0aH, 'Word not specified when expected.', 0aH, 00H
$SG84549 DB	0aH, 'Word requested by ` not on same input line.', 0aH, 00H
	ORG $+2
$SG84595 DB	0aH, '>LINK Foulup--wnext is not at zero!', 0aH, 00H
	ORG $+2
$SG84614 DB	0aH, 'LINK> Foulup--wnext is not at zero!', 0aH, 00H
	ORG $+2
$SG84686 DB	0aH, '%s', 00H
$SG84688 DB	0aH, 00H
	ORG $+2
$SG84698 DB	0aH, '%s', 00H
$SG84700 DB	0aH, 00H
	ORG $+2
$SG84747 DB	'0+', 00H
	ORG $+1
$SG84748 DB	'0-', 00H
	ORG $+1
$SG84749 DB	'0*', 00H
	ORG $+1
$SG84750 DB	'0/', 00H
	ORG $+1
$SG84751 DB	'0MOD', 00H
	ORG $+3
$SG84752 DB	'0/MOD', 00H
	ORG $+2
$SG84753 DB	'0MIN', 00H
	ORG $+3
$SG84754 DB	'0MAX', 00H
	ORG $+3
$SG84755 DB	'0NEGATE', 00H
$SG84756 DB	'0ABS', 00H
	ORG $+3
$SG84757 DB	'0=', 00H
	ORG $+1
$SG84758 DB	'0<>', 00H
$SG84759 DB	'0>', 00H
	ORG $+1
$SG84760 DB	'0<', 00H
	ORG $+1
$SG84761 DB	'0>=', 00H
$SG84762 DB	'0<=', 00H
$SG84763 DB	'0AND', 00H
	ORG $+3
$SG84764 DB	'0OR', 00H
$SG84765 DB	'0XOR', 00H
	ORG $+3
$SG84766 DB	'0NOT', 00H
	ORG $+3
$SG84767 DB	'0SHIFT', 00H
	ORG $+1
$SG84768 DB	'0DEPTH', 00H
	ORG $+1
$SG84769 DB	'0CLEAR', 00H
	ORG $+1
$SG84770 DB	'0DUP', 00H
	ORG $+3
$SG84771 DB	'0DROP', 00H
	ORG $+2
$SG84772 DB	'0SWAP', 00H
	ORG $+2
$SG84773 DB	'0OVER', 00H
	ORG $+2
$SG84774 DB	'0PICK', 00H
	ORG $+2
$SG84775 DB	'0ROT', 00H
	ORG $+3
$SG84776 DB	'0-ROT', 00H
	ORG $+2
$SG84777 DB	'0ROLL', 00H
	ORG $+2
$SG84778 DB	'0>R', 00H
$SG84779 DB	'0R>', 00H
$SG84780 DB	'0R@', 00H
$SG84781 DB	'01+', 00H
$SG84782 DB	'02+', 00H
$SG84783 DB	'01-', 00H
$SG84784 DB	'02-', 00H
$SG84785 DB	'02*', 00H
$SG84786 DB	'02/', 00H
$SG84787 DB	'00=', 00H
$SG84788 DB	'00<>', 00H
	ORG $+3
$SG84789 DB	'00>', 00H
$SG84790 DB	'00<', 00H
$SG84791 DB	'02DUP', 00H
	ORG $+2
$SG84792 DB	'02DROP', 00H
	ORG $+1
$SG84793 DB	'02SWAP', 00H
	ORG $+1
$SG84794 DB	'02OVER', 00H
	ORG $+1
$SG84795 DB	'02ROT', 00H
	ORG $+2
$SG84796 DB	'02VARIABLE', 00H
	ORG $+1
$SG84797 DB	'02CONSTANT', 00H
	ORG $+1
$SG84798 DB	'02!', 00H
$SG84799 DB	'02@', 00H
$SG84800 DB	'0VARIABLE', 00H
	ORG $+2
$SG84801 DB	'0CONSTANT', 00H
	ORG $+2
$SG84802 DB	'0!', 00H
	ORG $+1
$SG84803 DB	'0@', 00H
	ORG $+1
$SG84804 DB	'0+!', 00H
$SG84805 DB	'0ALLOT', 00H
	ORG $+1
$SG84806 DB	'0,', 00H
	ORG $+1
$SG84807 DB	'0C!', 00H
$SG84808 DB	'0C@', 00H
$SG84809 DB	'0C,', 00H
$SG84810 DB	'0C=', 00H
$SG84811 DB	'0HERE', 00H
	ORG $+2
$SG84812 DB	'0ARRAY', 00H
	ORG $+1
$SG84813 DB	'0(STRLIT)', 00H
	ORG $+2
$SG84814 DB	'0STRING', 00H
$SG84815 DB	'0STRCPY', 00H
$SG84816 DB	'0S!', 00H
$SG84817 DB	'0STRCAT', 00H
$SG84818 DB	'0S+', 00H
$SG84819 DB	'0STRLEN', 00H
$SG84820 DB	'0STRCMP', 00H
$SG84821 DB	'0STRCHAR', 00H
	ORG $+3
$SG84822 DB	'0SUBSTR', 00H
$SG84823 DB	'0COMPARE', 00H
	ORG $+3
$SG84824 DB	'0STRFORM', 00H
	ORG $+3
$SG84825 DB	'0FSTRFORM', 00H
	ORG $+2
$SG84826 DB	'0STRINT', 00H
$SG84827 DB	'0STRREAL', 00H
	ORG $+3
$SG84828 DB	'0(FLIT)', 00H
$SG84829 DB	'0F+', 00H
$SG84830 DB	'0F-', 00H
$SG84831 DB	'0F*', 00H
$SG84832 DB	'0F/', 00H
$SG84833 DB	'0FMIN', 00H
	ORG $+2
$SG84834 DB	'0FMAX', 00H
	ORG $+2
$SG84835 DB	'0FNEGATE', 00H
	ORG $+3
$SG84836 DB	'0FABS', 00H
	ORG $+2
$SG84837 DB	'0F=', 00H
$SG84838 DB	'0F<>', 00H
	ORG $+3
$SG84839 DB	'0F>', 00H
$SG84840 DB	'0F<', 00H
$SG84841 DB	'0F>=', 00H
	ORG $+3
$SG84842 DB	'0F<=', 00H
	ORG $+3
$SG84843 DB	'0F.', 00H
$SG84844 DB	'0FLOAT', 00H
	ORG $+1
$SG84845 DB	'0FIX', 00H
	ORG $+3
$SG84846 DB	'0ACOS', 00H
	ORG $+2
$SG84847 DB	'0ASIN', 00H
	ORG $+2
$SG84848 DB	'0ATAN', 00H
	ORG $+2
$SG84849 DB	'0ATAN2', 00H
	ORG $+1
$SG84850 DB	'0COS', 00H
	ORG $+3
$SG84851 DB	'0EXP', 00H
	ORG $+3
$SG84852 DB	'0LOG', 00H
	ORG $+3
$SG84853 DB	'0POW', 00H
	ORG $+3
$SG84854 DB	'0SIN', 00H
	ORG $+3
$SG84855 DB	'0SQRT', 00H
	ORG $+2
$SG84856 DB	'0TAN', 00H
	ORG $+3
$SG84857 DB	'0(NEST)', 00H
$SG84858 DB	'0EXIT', 00H
	ORG $+2
$SG84859 DB	'0(LIT)', 00H
	ORG $+1
$SG84860 DB	'0BRANCH', 00H
$SG84861 DB	'0?BRANCH', 00H
	ORG $+3
$SG84862 DB	'1IF', 00H
$SG84863 DB	'1ELSE', 00H
	ORG $+2
$SG84864 DB	'1THEN', 00H
	ORG $+2
$SG84865 DB	'0?DUP', 00H
	ORG $+2
$SG84866 DB	'1BEGIN', 00H
	ORG $+1
$SG84867 DB	'1UNTIL', 00H
	ORG $+1
$SG84868 DB	'1AGAIN', 00H
	ORG $+1
$SG84869 DB	'1WHILE', 00H
	ORG $+1
$SG84870 DB	'1REPEAT', 00H
$SG84871 DB	'1DO', 00H
$SG84872 DB	'1?DO', 00H
	ORG $+3
$SG84873 DB	'1LOOP', 00H
	ORG $+2
$SG84874 DB	'1+LOOP', 00H
	ORG $+1
$SG84875 DB	'0(XDO)', 00H
	ORG $+1
$SG84876 DB	'0(X?DO)', 00H
$SG84877 DB	'0(XLOOP)', 00H
	ORG $+3
$SG84878 DB	'0(+XLOOP)', 00H
	ORG $+2
$SG84879 DB	'0LEAVE', 00H
	ORG $+1
$SG84880 DB	'0I', 00H
	ORG $+1
$SG84881 DB	'0J', 00H
	ORG $+1
$SG84882 DB	'0QUIT', 00H
	ORG $+2
$SG84883 DB	'0ABORT', 00H
	ORG $+1
$SG84884 DB	'1ABORT"', 00H
$SG84885 DB	'0SYSTEM', 00H
$SG84886 DB	'0TRACE', 00H
	ORG $+1
$SG84887 DB	'0WALKBACK', 00H
	ORG $+2
$SG84888 DB	'0WORDSUSED', 00H
	ORG $+1
$SG84889 DB	'0WORDSUNUSED', 00H
	ORG $+3
$SG84890 DB	'0:', 00H
	ORG $+1
$SG84891 DB	'1;', 00H
	ORG $+1
$SG84892 DB	'0IMMEDIATE', 00H
	ORG $+1
$SG84893 DB	'1[', 00H
	ORG $+1
$SG84894 DB	'0]', 00H
	ORG $+1
$SG84895 DB	'0CREATE', 00H
$SG84896 DB	'0FORGET', 00H
$SG84897 DB	'0DOES>', 00H
	ORG $+1
$SG84898 DB	'0''', 00H
	ORG $+1
$SG84899 DB	'1['']', 00H
	ORG $+3
$SG84900 DB	'0EXECUTE', 00H
	ORG $+3
$SG84901 DB	'0>BODY', 00H
	ORG $+1
$SG84902 DB	'0STATE', 00H
	ORG $+1
$SG84903 DB	'0FIND', 00H
	ORG $+2
$SG84904 DB	'0>NAME', 00H
	ORG $+1
$SG84905 DB	'0>LINK', 00H
	ORG $+1
$SG84906 DB	'0BODY>', 00H
	ORG $+1
$SG84907 DB	'0NAME>', 00H
	ORG $+1
$SG84908 DB	'0LINK>', 00H
	ORG $+1
$SG84909 DB	'0N>LINK', 00H
$SG84910 DB	'0L>NAME', 00H
$SG84911 DB	'0NAME>S!', 00H
	ORG $+3
$SG84912 DB	'0S>NAME!', 00H
	ORG $+3
$SG84913 DB	'1[COMPILE]', 00H
	ORG $+1
$SG84914 DB	'1LITERAL', 00H
	ORG $+3
$SG84915 DB	'0COMPILE', 00H
	ORG $+3
$SG84916 DB	'0<MARK', 00H
	ORG $+1
$SG84917 DB	'0<RESOLVE', 00H
	ORG $+2
$SG84918 DB	'0>MARK', 00H
	ORG $+1
$SG84919 DB	'0>RESOLVE', 00H
	ORG $+2
$SG84920 DB	'0.', 00H
	ORG $+1
$SG84921 DB	'0?', 00H
	ORG $+1
$SG84922 DB	'0CR', 00H
$SG84923 DB	'0.S', 00H
$SG84924 DB	'1."', 00H
$SG84925 DB	'1.(', 00H
$SG84926 DB	'0TYPE', 00H
	ORG $+2
$SG84927 DB	'0WORDS', 00H
	ORG $+1
$SG84928 DB	'0FILE', 00H
	ORG $+2
$SG84929 DB	'0FOPEN', 00H
	ORG $+1
$SG84930 DB	'0FCLOSE', 00H
$SG84931 DB	'0FDELETE', 00H
	ORG $+3
$SG84932 DB	'0FGETS', 00H
	ORG $+1
$SG84933 DB	'0FPUTS', 00H
	ORG $+1
$SG84934 DB	'0FREAD', 00H
	ORG $+1
$SG84935 DB	'0FWRITE', 00H
$SG84936 DB	'0FGETC', 00H
	ORG $+1
$SG84937 DB	'0FPUTC', 00H
	ORG $+1
$SG84938 DB	'0FTELL', 00H
	ORG $+1
$SG84939 DB	'0FSEEK', 00H
	ORG $+1
$SG84940 DB	'0FLOAD', 00H
	ORG $+1
$SG84941 DB	'0EVALUATE', 00H
	ORG $+2
$SG84967 DB	'Walkback:', 0aH, 00H
	ORG $+1
_primt	DD	FLAT:$SG84747
	DD	FLAT:_P_plus
	DD	FLAT:$SG84748
	DD	FLAT:_P_minus
	DD	FLAT:$SG84749
	DD	FLAT:_P_times
	DD	FLAT:$SG84750
	DD	FLAT:_P_div
	DD	FLAT:$SG84751
	DD	FLAT:_P_mod
	DD	FLAT:$SG84752
	DD	FLAT:_P_divmod
	DD	FLAT:$SG84753
	DD	FLAT:_P_min
	DD	FLAT:$SG84754
	DD	FLAT:_P_max
	DD	FLAT:$SG84755
	DD	FLAT:_P_neg
	DD	FLAT:$SG84756
	DD	FLAT:_P_abs
	DD	FLAT:$SG84757
	DD	FLAT:_P_equal
	DD	FLAT:$SG84758
	DD	FLAT:_P_unequal
	DD	FLAT:$SG84759
	DD	FLAT:_P_gtr
	DD	FLAT:$SG84760
	DD	FLAT:_P_lss
	DD	FLAT:$SG84761
	DD	FLAT:_P_geq
	DD	FLAT:$SG84762
	DD	FLAT:_P_leq
	DD	FLAT:$SG84763
	DD	FLAT:_P_and
	DD	FLAT:$SG84764
	DD	FLAT:_P_or
	DD	FLAT:$SG84765
	DD	FLAT:_P_xor
	DD	FLAT:$SG84766
	DD	FLAT:_P_not
	DD	FLAT:$SG84767
	DD	FLAT:_P_shift
	DD	FLAT:$SG84768
	DD	FLAT:_P_depth
	DD	FLAT:$SG84769
	DD	FLAT:_P_clear
	DD	FLAT:$SG84770
	DD	FLAT:_P_dup
	DD	FLAT:$SG84771
	DD	FLAT:_P_drop
	DD	FLAT:$SG84772
	DD	FLAT:_P_swap
	DD	FLAT:$SG84773
	DD	FLAT:_P_over
	DD	FLAT:$SG84774
	DD	FLAT:_P_pick
	DD	FLAT:$SG84775
	DD	FLAT:_P_rot
	DD	FLAT:$SG84776
	DD	FLAT:_P_minusrot
	DD	FLAT:$SG84777
	DD	FLAT:_P_roll
	DD	FLAT:$SG84778
	DD	FLAT:_P_tor
	DD	FLAT:$SG84779
	DD	FLAT:_P_rfrom
	DD	FLAT:$SG84780
	DD	FLAT:_P_rfetch
	DD	FLAT:$SG84781
	DD	FLAT:_P_1plus
	DD	FLAT:$SG84782
	DD	FLAT:_P_2plus
	DD	FLAT:$SG84783
	DD	FLAT:_P_1minus
	DD	FLAT:$SG84784
	DD	FLAT:_P_2minus
	DD	FLAT:$SG84785
	DD	FLAT:_P_2times
	DD	FLAT:$SG84786
	DD	FLAT:_P_2div
	DD	FLAT:$SG84787
	DD	FLAT:_P_0equal
	DD	FLAT:$SG84788
	DD	FLAT:_P_0notequal
	DD	FLAT:$SG84789
	DD	FLAT:_P_0gtr
	DD	FLAT:$SG84790
	DD	FLAT:_P_0lss
	DD	FLAT:$SG84791
	DD	FLAT:_P_2dup
	DD	FLAT:$SG84792
	DD	FLAT:_P_2drop
	DD	FLAT:$SG84793
	DD	FLAT:_P_2swap
	DD	FLAT:$SG84794
	DD	FLAT:_P_2over
	DD	FLAT:$SG84795
	DD	FLAT:_P_2rot
	DD	FLAT:$SG84796
	DD	FLAT:_P_2variable
	DD	FLAT:$SG84797
	DD	FLAT:_P_2constant
	DD	FLAT:$SG84798
	DD	FLAT:_P_2bang
	DD	FLAT:$SG84799
	DD	FLAT:_P_2at
	DD	FLAT:$SG84800
	DD	FLAT:_P_variable
	DD	FLAT:$SG84801
	DD	FLAT:_P_constant
	DD	FLAT:$SG84802
	DD	FLAT:_P_bang
	DD	FLAT:$SG84803
	DD	FLAT:_P_at
	DD	FLAT:$SG84804
	DD	FLAT:_P_plusbang
	DD	FLAT:$SG84805
	DD	FLAT:_P_allot
	DD	FLAT:$SG84806
	DD	FLAT:_P_comma
	DD	FLAT:$SG84807
	DD	FLAT:_P_cbang
	DD	FLAT:$SG84808
	DD	FLAT:_P_cat
	DD	FLAT:$SG84809
	DD	FLAT:_P_ccomma
	DD	FLAT:$SG84810
	DD	FLAT:_P_cequal
	DD	FLAT:$SG84811
	DD	FLAT:_P_here
	DD	FLAT:$SG84812
	DD	FLAT:_P_array
	DD	FLAT:$SG84813
	DD	FLAT:_P_strlit
	DD	FLAT:$SG84814
	DD	FLAT:_P_string
	DD	FLAT:$SG84815
	DD	FLAT:_P_strcpy
	DD	FLAT:$SG84816
	DD	FLAT:_P_strcpy
	DD	FLAT:$SG84817
	DD	FLAT:_P_strcat
	DD	FLAT:$SG84818
	DD	FLAT:_P_strcat
	DD	FLAT:$SG84819
	DD	FLAT:_P_strlen
	DD	FLAT:$SG84820
	DD	FLAT:_P_strcmp
	DD	FLAT:$SG84821
	DD	FLAT:_P_strchar
	DD	FLAT:$SG84822
	DD	FLAT:_P_substr
	DD	FLAT:$SG84823
	DD	FLAT:_P_strcmp
	DD	FLAT:$SG84824
	DD	FLAT:_P_strform
	DD	FLAT:$SG84825
	DD	FLAT:_P_fstrform
	DD	FLAT:$SG84826
	DD	FLAT:_P_strint
	DD	FLAT:$SG84827
	DD	FLAT:_P_strreal
	DD	FLAT:$SG84828
	DD	FLAT:_P_flit
	DD	FLAT:$SG84829
	DD	FLAT:_P_fplus
	DD	FLAT:$SG84830
	DD	FLAT:_P_fminus
	DD	FLAT:$SG84831
	DD	FLAT:_P_ftimes
	DD	FLAT:$SG84832
	DD	FLAT:_P_fdiv
	DD	FLAT:$SG84833
	DD	FLAT:_P_fmin
	DD	FLAT:$SG84834
	DD	FLAT:_P_fmax
	DD	FLAT:$SG84835
	DD	FLAT:_P_fneg
	DD	FLAT:$SG84836
	DD	FLAT:_P_fabs
	DD	FLAT:$SG84837
	DD	FLAT:_P_fequal
	DD	FLAT:$SG84838
	DD	FLAT:_P_funequal
	DD	FLAT:$SG84839
	DD	FLAT:_P_fgtr
	DD	FLAT:$SG84840
	DD	FLAT:_P_flss
	DD	FLAT:$SG84841
	DD	FLAT:_P_fgeq
	DD	FLAT:$SG84842
	DD	FLAT:_P_fleq
	DD	FLAT:$SG84843
	DD	FLAT:_P_fdot
	DD	FLAT:$SG84844
	DD	FLAT:_P_float
	DD	FLAT:$SG84845
	DD	FLAT:_P_fix
	DD	FLAT:$SG84846
	DD	FLAT:_P_acos
	DD	FLAT:$SG84847
	DD	FLAT:_P_asin
	DD	FLAT:$SG84848
	DD	FLAT:_P_atan
	DD	FLAT:$SG84849
	DD	FLAT:_P_atan2
	DD	FLAT:$SG84850
	DD	FLAT:_P_cos
	DD	FLAT:$SG84851
	DD	FLAT:_P_exp
	DD	FLAT:$SG84852
	DD	FLAT:_P_log
	DD	FLAT:$SG84853
	DD	FLAT:_P_pow
	DD	FLAT:$SG84854
	DD	FLAT:_P_sin
	DD	FLAT:$SG84855
	DD	FLAT:_P_sqrt
	DD	FLAT:$SG84856
	DD	FLAT:_P_tan
	DD	FLAT:$SG84857
	DD	FLAT:_P_nest
	DD	FLAT:$SG84858
	DD	FLAT:_P_exit
	DD	FLAT:$SG84859
	DD	FLAT:_P_dolit
	DD	FLAT:$SG84860
	DD	FLAT:_P_branch
	DD	FLAT:$SG84861
	DD	FLAT:_P_qbranch
	DD	FLAT:$SG84862
	DD	FLAT:_P_if
	DD	FLAT:$SG84863
	DD	FLAT:_P_else
	DD	FLAT:$SG84864
	DD	FLAT:_P_then
	DD	FLAT:$SG84865
	DD	FLAT:_P_qdup
	DD	FLAT:$SG84866
	DD	FLAT:_P_begin
	DD	FLAT:$SG84867
	DD	FLAT:_P_until
	DD	FLAT:$SG84868
	DD	FLAT:_P_again
	DD	FLAT:$SG84869
	DD	FLAT:_P_while
	DD	FLAT:$SG84870
	DD	FLAT:_P_repeat
	DD	FLAT:$SG84871
	DD	FLAT:_P_do
	DD	FLAT:$SG84872
	DD	FLAT:_P_qdo
	DD	FLAT:$SG84873
	DD	FLAT:_P_loop
	DD	FLAT:$SG84874
	DD	FLAT:_P_ploop
	DD	FLAT:$SG84875
	DD	FLAT:_P_xdo
	DD	FLAT:$SG84876
	DD	FLAT:_P_xqdo
	DD	FLAT:$SG84877
	DD	FLAT:_P_xloop
	DD	FLAT:$SG84878
	DD	FLAT:_P_xploop
	DD	FLAT:$SG84879
	DD	FLAT:_P_leave
	DD	FLAT:$SG84880
	DD	FLAT:_P_i
	DD	FLAT:$SG84881
	DD	FLAT:_P_j
	DD	FLAT:$SG84882
	DD	FLAT:_P_quit
	DD	FLAT:$SG84883
	DD	FLAT:_P_abort
	DD	FLAT:$SG84884
	DD	FLAT:_P_abortq
	DD	FLAT:$SG84885
	DD	FLAT:_P_system
	DD	FLAT:$SG84886
	DD	FLAT:_P_trace
	DD	FLAT:$SG84887
	DD	FLAT:_P_walkback
	DD	FLAT:$SG84888
	DD	FLAT:_P_wordsused
	DD	FLAT:$SG84889
	DD	FLAT:_P_wordsunused
	DD	FLAT:$SG84890
	DD	FLAT:_P_colon
	DD	FLAT:$SG84891
	DD	FLAT:_P_semicolon
	DD	FLAT:$SG84892
	DD	FLAT:_P_immediate
	DD	FLAT:$SG84893
	DD	FLAT:_P_lbrack
	DD	FLAT:$SG84894
	DD	FLAT:_P_rbrack
	DD	FLAT:$SG84895
	DD	FLAT:_P_create
	DD	FLAT:$SG84896
	DD	FLAT:_P_forget
	DD	FLAT:$SG84897
	DD	FLAT:_P_does
	DD	FLAT:$SG84898
	DD	FLAT:_P_tick
	DD	FLAT:$SG84899
	DD	FLAT:_P_bracktick
	DD	FLAT:$SG84900
	DD	FLAT:_P_execute
	DD	FLAT:$SG84901
	DD	FLAT:_P_body
	DD	FLAT:$SG84902
	DD	FLAT:_P_state
	DD	FLAT:$SG84903
	DD	FLAT:_P_find
	DD	FLAT:$SG84904
	DD	FLAT:_P_toname
	DD	FLAT:$SG84905
	DD	FLAT:_P_tolink
	DD	FLAT:$SG84906
	DD	FLAT:_P_frombody
	DD	FLAT:$SG84907
	DD	FLAT:_P_fromname
	DD	FLAT:$SG84908
	DD	FLAT:_P_fromlink
	DD	FLAT:$SG84909
	DD	FLAT:_P_nametolink
	DD	FLAT:$SG84910
	DD	FLAT:_P_linktoname
	DD	FLAT:$SG84911
	DD	FLAT:_P_fetchname
	DD	FLAT:$SG84912
	DD	FLAT:_P_storename
	DD	FLAT:$SG84913
	DD	FLAT:_P_brackcompile
	DD	FLAT:$SG84914
	DD	FLAT:_P_literal
	DD	FLAT:$SG84915
	DD	FLAT:_P_compile
	DD	FLAT:$SG84916
	DD	FLAT:_P_backmark
	DD	FLAT:$SG84917
	DD	FLAT:_P_backresolve
	DD	FLAT:$SG84918
	DD	FLAT:_P_fwdmark
	DD	FLAT:$SG84919
	DD	FLAT:_P_fwdresolve
	DD	FLAT:$SG84920
	DD	FLAT:_P_dot
	DD	FLAT:$SG84921
	DD	FLAT:_P_question
	DD	FLAT:$SG84922
	DD	FLAT:_P_cr
	DD	FLAT:$SG84923
	DD	FLAT:_P_dots
	DD	FLAT:$SG84924
	DD	FLAT:_P_dotquote
	DD	FLAT:$SG84925
	DD	FLAT:_P_dotparen
	DD	FLAT:$SG84926
	DD	FLAT:_P_type
	DD	FLAT:$SG84927
	DD	FLAT:_P_words
	DD	FLAT:$SG84928
	DD	FLAT:_P_file
	DD	FLAT:$SG84929
	DD	FLAT:_P_fopen
	DD	FLAT:$SG84930
	DD	FLAT:_P_fclose
	DD	FLAT:$SG84931
	DD	FLAT:_P_fdelete
	DD	FLAT:$SG84932
	DD	FLAT:_P_fgetline
	DD	FLAT:$SG84933
	DD	FLAT:_P_fputline
	DD	FLAT:$SG84934
	DD	FLAT:_P_fread
	DD	FLAT:$SG84935
	DD	FLAT:_P_fwrite
	DD	FLAT:$SG84936
	DD	FLAT:_P_fgetc
	DD	FLAT:$SG84937
	DD	FLAT:_P_fputc
	DD	FLAT:$SG84938
	DD	FLAT:_P_ftell
	DD	FLAT:$SG84939
	DD	FLAT:_P_fseek
	DD	FLAT:$SG84940
	DD	FLAT:_P_fload
	DD	FLAT:$SG84941
	DD	FLAT:_P_evaluate
	DD	00H
	DD	00H
$SG84971 DB	'   %s', 0aH, 00H
	ORG $+1
$SG84977 DB	'   %s', 0aH, 00H
	ORG $+1
$SG84982 DB	0aH, '%s.', 0aH, 00H
	ORG $+2
$SG84987 DB	'Stack overflow', 00H
	ORG $+1
$SG84989 DB	'Stack underflow', 00H
$SG84991 DB	'Return stack overflow', 00H
	ORG $+2
$SG84993 DB	'Return stack underflow', 00H
	ORG $+1
$SG84995 DB	'Heap overflow', 00H
	ORG $+2
$SG84997 DB	'Bad pointer', 00H
$SG84999 DB	'Compiler word outside definition', 00H
	ORG $+3
$SG85001 DB	'Divide by zero', 00H
	ORG $+1
$SG85007 DB	0aH, 'Trace: %s ', 00H
$SG85013 DB	'Break signal', 00H
	ORG $+3
$SG85016 DB	0aH, 'Trace: %s ', 00H
$SG85022 DB	'EXIT', 00H
	ORG $+3
$SG85025 DB	'(LIT)', 00H
	ORG $+2
$SG85028 DB	'(FLIT)', 00H
	ORG $+1
$SG85031 DB	'(STRLIT)', 00H
	ORG $+3
$SG85034 DB	'.(', 00H
	ORG $+1
$SG85037 DB	'?BRANCH', 00H
$SG85040 DB	'BRANCH', 00H
	ORG $+1
$SG85043 DB	'(XDO)', 00H
	ORG $+2
$SG85046 DB	'(X?DO)', 00H
	ORG $+1
$SG85049 DB	'(XLOOP)', 00H
$SG85052 DB	'(+XLOOP)', 00H
	ORG $+3
$SG85055 DB	'ABORT"', 00H
	ORG $+1
$SG85095 DB	'STDIN', 00H
	ORG $+2
$SG85097 DB	'STDOUT', 00H
	ORG $+1
$SG85099 DB	'STDERR', 00H
	ORG $+1
?stdfiles@?8??atl_init@@9@9 DD FLAT:$SG85095		; `atl_init'::`9'::stdfiles
	DD	00H
	DD	FLAT:$SG85097
	DD	00H
	DD	FLAT:$SG85099
	DD	00H
$SG85186 DB	0aH, 'Runaway `('' comment.', 0aH, 00H
	ORG $+1
$SG85196 DB	'STACK ', 00H
	ORG $+1
$SG85197 DB	'RSTACK ', 00H
$SG85198 DB	'HEAP ', 00H
	ORG $+2
$SG85199 DB	'TEMPSTRL ', 00H
	ORG $+2
$SG85200 DB	'TEMPSTRN ', 00H
	ORG $+2
?proname@?1??atl_prologue@@9@9 DD FLAT:$SG85196		; `atl_prologue'::`2'::proname
	DD	FLAT:_atl_stklen
	DD	FLAT:$SG85197
	DD	FLAT:_atl_rstklen
	DD	FLAT:$SG85198
	DD	FLAT:_atl_heaplen
	DD	FLAT:$SG85199
	DD	FLAT:_atl_ltempstr
	DD	FLAT:$SG85200
	DD	FLAT:_atl_ntempstr
$SG85202 DB	'\ *', 00H
$SG85213 DB	'%li', 00H
$SG85240 DB	0aH, 'Forget protected.', 0aH, 00H
$SG85255 DB	' ''%s'' undefined ', 00H
	ORG $+3
$SG85264 DB	' ''%s'' undefined ', 00H
	ORG $+3
$SG85270 DB	0aH, '%s isn''t unique.', 00H
	ORG $+2
$SG85283 DB	' ''%s'' undefined ', 00H
	ORG $+3
$SG85334 DB	'%s', 00H
	ORG $+1
$SG85351 DB	0aH, 'Unknown token type %d', 0aH, 00H
_DATA	ENDS
PUBLIC	_getopt
; Function compile flags: /Odtp
; File c:\a15\facultate\forth\atlast-2.0\getopt.h
_TEXT	SEGMENT
_nargc$ = 8						; size = 4
_nargv$ = 12						; size = 4
_options$ = 16						; size = 4
_getopt	PROC

; 222  : {

  00000	55		 push	 ebp
  00001	8b ec		 mov	 ebp, esp

; 223  : 
; 224  : 	/*
; 225  : 	 * We don't pass FLAG_PERMUTE to getopt_internal() since
; 226  : 	 * the BSD getopt(3) (unlike GNU) has never done this.
; 227  : 	 *
; 228  : 	 * Furthermore, since many privileged programs call getopt()
; 229  : 	 * before dropping privileges it makes sense to keep things
; 230  : 	 * as simple (and bug-free) as possible.
; 231  : 	 */
; 232  : 	return (getopt_internal(nargc, nargv, options, NULL, NULL, 0));

  00003	6a 00		 push	 0
  00005	6a 00		 push	 0
  00007	6a 00		 push	 0
  00009	8b 45 10	 mov	 eax, DWORD PTR _options$[ebp]
  0000c	50		 push	 eax
  0000d	8b 4d 0c	 mov	 ecx, DWORD PTR _nargv$[ebp]
  00010	51		 push	 ecx
  00011	8b 55 08	 mov	 edx, DWORD PTR _nargc$[ebp]
  00014	52		 push	 edx
  00015	e8 00 00 00 00	 call	 _getopt_internal
  0001a	83 c4 18	 add	 esp, 24			; 00000018H

; 233  : }

  0001d	5d		 pop	 ebp
  0001e	c3		 ret	 0
_getopt	ENDP
_TEXT	ENDS
EXTRN	_strchr:PROC
EXTRN	_getenv:PROC
; Function compile flags: /Odtp
_TEXT	SEGMENT
_short_too$ = -12					; size = 4
_oli$ = -8						; size = 4
_optchar$ = -4						; size = 4
_nargc$ = 8						; size = 4
_nargv$ = 12						; size = 4
_options$ = 16						; size = 4
_long_options$ = 20					; size = 4
_idx$ = 24						; size = 4
_flags$ = 28						; size = 4
_getopt_internal PROC

; 420  : {

  00020	55		 push	 ebp
  00021	8b ec		 mov	 ebp, esp
  00023	83 ec 0c	 sub	 esp, 12			; 0000000cH

; 421  : 	char *oli;				/* option letter list index */
; 422  : 	int optchar, short_too;
; 423  : 	static int posixly_correct = -1;
; 424  : 
; 425  : 	if (options == NULL)

  00026	83 7d 10 00	 cmp	 DWORD PTR _options$[ebp], 0
  0002a	75 08		 jne	 SHORT $LN54@getopt_int

; 426  : 		return (-1);

  0002c	83 c8 ff	 or	 eax, -1
  0002f	e9 aa 06 00 00	 jmp	 $LN55@getopt_int
$LN54@getopt_int:

; 427  : 
; 428  : 	/*
; 429  : 	 * XXX Some GNU programs (like cvs) set optind to 0 instead of
; 430  : 	 * XXX using optreset.  Work around this braindamage.
; 431  : 	 */
; 432  : 	if (optind == 0)

  00034	83 3d 00 00 00
	00 00		 cmp	 DWORD PTR _optind, 0
  0003b	75 14		 jne	 SHORT $LN53@getopt_int

; 433  : 		optind = optreset = 1;

  0003d	c7 05 00 00 00
	00 01 00 00 00	 mov	 DWORD PTR ___mingw_optreset, 1
  00047	a1 00 00 00 00	 mov	 eax, DWORD PTR ___mingw_optreset
  0004c	a3 00 00 00 00	 mov	 DWORD PTR _optind, eax
$LN53@getopt_int:

; 434  : 
; 435  : 	/*
; 436  : 	 * Disable GNU extensions if POSIXLY_CORRECT is set or options
; 437  : 	 * string begins with a '+'.
; 438  : 	 *
; 439  : 	 * CV, 2009-12-14: Check POSIXLY_CORRECT anew if optind == 0 or
; 440  : 	 *                 optreset != 0 for GNU compatibility.
; 441  : 	 */
; 442  : 	if (posixly_correct == -1 || optreset != 0)

  00051	83 3d 00 00 00
	00 ff		 cmp	 DWORD PTR ?posixly_correct@?1??getopt_internal@@9@9, -1
  00058	74 09		 je	 SHORT $LN51@getopt_int
  0005a	83 3d 00 00 00
	00 00		 cmp	 DWORD PTR ___mingw_optreset, 0
  00061	74 18		 je	 SHORT $LN52@getopt_int
$LN51@getopt_int:

; 443  : 		posixly_correct = (getenv("POSIXLY_CORRECT") != NULL);

  00063	68 00 00 00 00	 push	 OFFSET $SG82002
  00068	e8 00 00 00 00	 call	 _getenv
  0006d	83 c4 04	 add	 esp, 4
  00070	f7 d8		 neg	 eax
  00072	1b c0		 sbb	 eax, eax
  00074	f7 d8		 neg	 eax
  00076	a3 00 00 00 00	 mov	 DWORD PTR ?posixly_correct@?1??getopt_internal@@9@9, eax
$LN52@getopt_int:

; 444  : 	if (*options == '-')

  0007b	8b 4d 10	 mov	 ecx, DWORD PTR _options$[ebp]
  0007e	0f be 11	 movsx	 edx, BYTE PTR [ecx]
  00081	83 fa 2d	 cmp	 edx, 45			; 0000002dH
  00084	75 0b		 jne	 SHORT $LN50@getopt_int

; 445  : 		flags |= FLAG_ALLARGS;

  00086	8b 45 1c	 mov	 eax, DWORD PTR _flags$[ebp]
  00089	83 c8 02	 or	 eax, 2
  0008c	89 45 1c	 mov	 DWORD PTR _flags$[ebp], eax
  0008f	eb 1d		 jmp	 SHORT $LN49@getopt_int
$LN50@getopt_int:

; 446  : 	else if (posixly_correct || *options == '+')

  00091	83 3d 00 00 00
	00 00		 cmp	 DWORD PTR ?posixly_correct@?1??getopt_internal@@9@9, 0
  00098	75 0b		 jne	 SHORT $LN47@getopt_int
  0009a	8b 4d 10	 mov	 ecx, DWORD PTR _options$[ebp]
  0009d	0f be 11	 movsx	 edx, BYTE PTR [ecx]
  000a0	83 fa 2b	 cmp	 edx, 43			; 0000002bH
  000a3	75 09		 jne	 SHORT $LN49@getopt_int
$LN47@getopt_int:

; 447  : 		flags &= ~FLAG_PERMUTE;

  000a5	8b 45 1c	 mov	 eax, DWORD PTR _flags$[ebp]
  000a8	83 e0 fe	 and	 eax, -2			; fffffffeH
  000ab	89 45 1c	 mov	 DWORD PTR _flags$[ebp], eax
$LN49@getopt_int:

; 448  : 	if (*options == '+' || *options == '-')

  000ae	8b 4d 10	 mov	 ecx, DWORD PTR _options$[ebp]
  000b1	0f be 11	 movsx	 edx, BYTE PTR [ecx]
  000b4	83 fa 2b	 cmp	 edx, 43			; 0000002bH
  000b7	74 0b		 je	 SHORT $LN45@getopt_int
  000b9	8b 45 10	 mov	 eax, DWORD PTR _options$[ebp]
  000bc	0f be 08	 movsx	 ecx, BYTE PTR [eax]
  000bf	83 f9 2d	 cmp	 ecx, 45			; 0000002dH
  000c2	75 09		 jne	 SHORT $LN46@getopt_int
$LN45@getopt_int:

; 449  : 		options++;

  000c4	8b 55 10	 mov	 edx, DWORD PTR _options$[ebp]
  000c7	83 c2 01	 add	 edx, 1
  000ca	89 55 10	 mov	 DWORD PTR _options$[ebp], edx
$LN46@getopt_int:

; 450  : 
; 451  : 	optarg = NULL;

  000cd	c7 05 00 00 00
	00 00 00 00 00	 mov	 DWORD PTR _optarg, 0

; 452  : 	if (optreset)

  000d7	83 3d 00 00 00
	00 00		 cmp	 DWORD PTR ___mingw_optreset, 0
  000de	74 14		 je	 SHORT $start$82011

; 453  : 		nonopt_start = nonopt_end = -1;

  000e0	c7 05 00 00 00
	00 ff ff ff ff	 mov	 DWORD PTR _nonopt_end, -1
  000ea	a1 00 00 00 00	 mov	 eax, DWORD PTR _nonopt_end
  000ef	a3 00 00 00 00	 mov	 DWORD PTR _nonopt_start, eax
$start$82011:

; 454  : start:
; 455  : 	if (optreset || !*place) {		/* update scanning pointer */

  000f4	83 3d 00 00 00
	00 00		 cmp	 DWORD PTR ___mingw_optreset, 0
  000fb	75 11		 jne	 SHORT $LN42@getopt_int
  000fd	8b 0d 00 00 00
	00		 mov	 ecx, DWORD PTR _place
  00103	0f be 11	 movsx	 edx, BYTE PTR [ecx]
  00106	85 d2		 test	 edx, edx
  00108	0f 85 73 02 00
	00		 jne	 $LN43@getopt_int
$LN42@getopt_int:

; 456  : 		optreset = 0;

  0010e	c7 05 00 00 00
	00 00 00 00 00	 mov	 DWORD PTR ___mingw_optreset, 0

; 457  : 		if (optind >= nargc) {          /* end of argument vector */

  00118	a1 00 00 00 00	 mov	 eax, DWORD PTR _optind
  0011d	3b 45 08	 cmp	 eax, DWORD PTR _nargc$[ebp]
  00120	0f 8c 80 00 00
	00		 jl	 $LN41@getopt_int

; 458  : 			place = EMSG;

  00126	c7 05 00 00 00
	00 00 00 00 00	 mov	 DWORD PTR _place, OFFSET $SG82015

; 459  : 			if (nonopt_end != -1) {

  00130	83 3d 00 00 00
	00 ff		 cmp	 DWORD PTR _nonopt_end, -1
  00137	74 3a		 je	 SHORT $LN40@getopt_int

; 460  : 				/* do permutation, if we have to */
; 461  : 				permute_args(nonopt_start, nonopt_end,
; 462  : 				    optind, nargv);

  00139	8b 4d 0c	 mov	 ecx, DWORD PTR _nargv$[ebp]
  0013c	51		 push	 ecx
  0013d	8b 15 00 00 00
	00		 mov	 edx, DWORD PTR _optind
  00143	52		 push	 edx
  00144	a1 00 00 00 00	 mov	 eax, DWORD PTR _nonopt_end
  00149	50		 push	 eax
  0014a	8b 0d 00 00 00
	00		 mov	 ecx, DWORD PTR _nonopt_start
  00150	51		 push	 ecx
  00151	e8 00 00 00 00	 call	 _permute_args
  00156	83 c4 10	 add	 esp, 16			; 00000010H

; 463  : 				optind -= nonopt_end - nonopt_start;

  00159	8b 15 00 00 00
	00		 mov	 edx, DWORD PTR _nonopt_end
  0015f	2b 15 00 00 00
	00		 sub	 edx, DWORD PTR _nonopt_start
  00165	a1 00 00 00 00	 mov	 eax, DWORD PTR _optind
  0016a	2b c2		 sub	 eax, edx
  0016c	a3 00 00 00 00	 mov	 DWORD PTR _optind, eax
  00171	eb 15		 jmp	 SHORT $LN39@getopt_int
$LN40@getopt_int:

; 464  : 			}
; 465  : 			else if (nonopt_start != -1) {

  00173	83 3d 00 00 00
	00 ff		 cmp	 DWORD PTR _nonopt_start, -1
  0017a	74 0c		 je	 SHORT $LN39@getopt_int

; 466  : 				/*
; 467  : 				 * If we skipped non-options, set optind
; 468  : 				 * to the first of them.
; 469  : 				 */
; 470  : 				optind = nonopt_start;

  0017c	8b 0d 00 00 00
	00		 mov	 ecx, DWORD PTR _nonopt_start
  00182	89 0d 00 00 00
	00		 mov	 DWORD PTR _optind, ecx
$LN39@getopt_int:

; 471  : 			}
; 472  : 			nonopt_start = nonopt_end = -1;

  00188	c7 05 00 00 00
	00 ff ff ff ff	 mov	 DWORD PTR _nonopt_end, -1
  00192	8b 15 00 00 00
	00		 mov	 edx, DWORD PTR _nonopt_end
  00198	89 15 00 00 00
	00		 mov	 DWORD PTR _nonopt_start, edx

; 473  : 			return (-1);

  0019e	83 c8 ff	 or	 eax, -1
  001a1	e9 38 05 00 00	 jmp	 $LN55@getopt_int
$LN41@getopt_int:

; 474  : 		}
; 475  : 		if (*(place = nargv[optind]) != '-' ||
; 476  : 		    (place[1] == '\0' && strchr(options, '-') == NULL)) {

  001a6	a1 00 00 00 00	 mov	 eax, DWORD PTR _optind
  001ab	8b 4d 0c	 mov	 ecx, DWORD PTR _nargv$[ebp]
  001ae	8b 14 81	 mov	 edx, DWORD PTR [ecx+eax*4]
  001b1	89 15 00 00 00
	00		 mov	 DWORD PTR _place, edx
  001b7	a1 00 00 00 00	 mov	 eax, DWORD PTR _place
  001bc	0f be 08	 movsx	 ecx, BYTE PTR [eax]
  001bf	83 f9 2d	 cmp	 ecx, 45			; 0000002dH
  001c2	75 28		 jne	 SHORT $LN36@getopt_int
  001c4	8b 15 00 00 00
	00		 mov	 edx, DWORD PTR _place
  001ca	0f be 42 01	 movsx	 eax, BYTE PTR [edx+1]
  001ce	85 c0		 test	 eax, eax
  001d0	0f 85 d6 00 00
	00		 jne	 $LN37@getopt_int
  001d6	6a 2d		 push	 45			; 0000002dH
  001d8	8b 4d 10	 mov	 ecx, DWORD PTR _options$[ebp]
  001db	51		 push	 ecx
  001dc	e8 00 00 00 00	 call	 _strchr
  001e1	83 c4 08	 add	 esp, 8
  001e4	85 c0		 test	 eax, eax
  001e6	0f 85 c0 00 00
	00		 jne	 $LN37@getopt_int
$LN36@getopt_int:

; 477  : 			place = EMSG;		/* found non-option */

  001ec	c7 05 00 00 00
	00 00 00 00 00	 mov	 DWORD PTR _place, OFFSET $SG82022

; 478  : 			if (flags & FLAG_ALLARGS) {

  001f6	8b 55 1c	 mov	 edx, DWORD PTR _flags$[ebp]
  001f9	83 e2 02	 and	 edx, 2
  001fc	74 28		 je	 SHORT $LN35@getopt_int

; 479  : 				/*
; 480  : 				 * GNU extension:
; 481  : 				 * return non-option as argument to option 1
; 482  : 				 */
; 483  : 				optarg = nargv[optind++];

  001fe	a1 00 00 00 00	 mov	 eax, DWORD PTR _optind
  00203	8b 4d 0c	 mov	 ecx, DWORD PTR _nargv$[ebp]
  00206	8b 14 81	 mov	 edx, DWORD PTR [ecx+eax*4]
  00209	89 15 00 00 00
	00		 mov	 DWORD PTR _optarg, edx
  0020f	a1 00 00 00 00	 mov	 eax, DWORD PTR _optind
  00214	83 c0 01	 add	 eax, 1
  00217	a3 00 00 00 00	 mov	 DWORD PTR _optind, eax

; 484  : 				return (INORDER);

  0021c	b8 01 00 00 00	 mov	 eax, 1
  00221	e9 b8 04 00 00	 jmp	 $LN55@getopt_int
$LN35@getopt_int:

; 485  : 			}
; 486  : 			if (!(flags & FLAG_PERMUTE)) {

  00226	8b 4d 1c	 mov	 ecx, DWORD PTR _flags$[ebp]
  00229	83 e1 01	 and	 ecx, 1
  0022c	75 08		 jne	 SHORT $LN34@getopt_int

; 487  : 				/*
; 488  : 				 * If no permutation wanted, stop parsing
; 489  : 				 * at first non-option.
; 490  : 				 */
; 491  : 				return (-1);

  0022e	83 c8 ff	 or	 eax, -1
  00231	e9 a8 04 00 00	 jmp	 $LN55@getopt_int
$LN34@getopt_int:

; 492  : 			}
; 493  : 			/* do permutation */
; 494  : 			if (nonopt_start == -1)

  00236	83 3d 00 00 00
	00 ff		 cmp	 DWORD PTR _nonopt_start, -1
  0023d	75 0e		 jne	 SHORT $LN33@getopt_int

; 495  : 				nonopt_start = optind;

  0023f	8b 15 00 00 00
	00		 mov	 edx, DWORD PTR _optind
  00245	89 15 00 00 00
	00		 mov	 DWORD PTR _nonopt_start, edx
  0024b	eb 4d		 jmp	 SHORT $LN32@getopt_int
$LN33@getopt_int:

; 496  : 			else if (nonopt_end != -1) {

  0024d	83 3d 00 00 00
	00 ff		 cmp	 DWORD PTR _nonopt_end, -1
  00254	74 44		 je	 SHORT $LN32@getopt_int

; 497  : 				permute_args(nonopt_start, nonopt_end,
; 498  : 				    optind, nargv);

  00256	8b 45 0c	 mov	 eax, DWORD PTR _nargv$[ebp]
  00259	50		 push	 eax
  0025a	8b 0d 00 00 00
	00		 mov	 ecx, DWORD PTR _optind
  00260	51		 push	 ecx
  00261	8b 15 00 00 00
	00		 mov	 edx, DWORD PTR _nonopt_end
  00267	52		 push	 edx
  00268	a1 00 00 00 00	 mov	 eax, DWORD PTR _nonopt_start
  0026d	50		 push	 eax
  0026e	e8 00 00 00 00	 call	 _permute_args
  00273	83 c4 10	 add	 esp, 16			; 00000010H

; 499  : 				nonopt_start = optind -
; 500  : 				    (nonopt_end - nonopt_start);

  00276	8b 0d 00 00 00
	00		 mov	 ecx, DWORD PTR _nonopt_end
  0027c	2b 0d 00 00 00
	00		 sub	 ecx, DWORD PTR _nonopt_start
  00282	8b 15 00 00 00
	00		 mov	 edx, DWORD PTR _optind
  00288	2b d1		 sub	 edx, ecx
  0028a	89 15 00 00 00
	00		 mov	 DWORD PTR _nonopt_start, edx

; 501  : 				nonopt_end = -1;

  00290	c7 05 00 00 00
	00 ff ff ff ff	 mov	 DWORD PTR _nonopt_end, -1
$LN32@getopt_int:

; 502  : 			}
; 503  : 			optind++;

  0029a	a1 00 00 00 00	 mov	 eax, DWORD PTR _optind
  0029f	83 c0 01	 add	 eax, 1
  002a2	a3 00 00 00 00	 mov	 DWORD PTR _optind, eax

; 504  : 			/* process next argument */
; 505  : 			goto start;

  002a7	e9 48 fe ff ff	 jmp	 $start$82011
$LN37@getopt_int:

; 506  : 		}
; 507  : 		if (nonopt_start != -1 && nonopt_end == -1)

  002ac	83 3d 00 00 00
	00 ff		 cmp	 DWORD PTR _nonopt_start, -1
  002b3	74 15		 je	 SHORT $LN30@getopt_int
  002b5	83 3d 00 00 00
	00 ff		 cmp	 DWORD PTR _nonopt_end, -1
  002bc	75 0c		 jne	 SHORT $LN30@getopt_int

; 508  : 			nonopt_end = optind;

  002be	8b 0d 00 00 00
	00		 mov	 ecx, DWORD PTR _optind
  002c4	89 0d 00 00 00
	00		 mov	 DWORD PTR _nonopt_end, ecx
$LN30@getopt_int:

; 509  : 
; 510  : 		/*
; 511  : 		 * If we have "-" do nothing, if "--" we are done.
; 512  : 		 */
; 513  : 		if (place[1] != '\0' && *++place == '-' && place[1] == '\0') {

  002ca	8b 15 00 00 00
	00		 mov	 edx, DWORD PTR _place
  002d0	0f be 42 01	 movsx	 eax, BYTE PTR [edx+1]
  002d4	85 c0		 test	 eax, eax
  002d6	0f 84 a5 00 00
	00		 je	 $LN43@getopt_int
  002dc	8b 0d 00 00 00
	00		 mov	 ecx, DWORD PTR _place
  002e2	83 c1 01	 add	 ecx, 1
  002e5	89 0d 00 00 00
	00		 mov	 DWORD PTR _place, ecx
  002eb	8b 15 00 00 00
	00		 mov	 edx, DWORD PTR _place
  002f1	0f be 02	 movsx	 eax, BYTE PTR [edx]
  002f4	83 f8 2d	 cmp	 eax, 45			; 0000002dH
  002f7	0f 85 84 00 00
	00		 jne	 $LN43@getopt_int
  002fd	8b 0d 00 00 00
	00		 mov	 ecx, DWORD PTR _place
  00303	0f be 51 01	 movsx	 edx, BYTE PTR [ecx+1]
  00307	85 d2		 test	 edx, edx
  00309	75 76		 jne	 SHORT $LN43@getopt_int

; 514  : 			optind++;

  0030b	a1 00 00 00 00	 mov	 eax, DWORD PTR _optind
  00310	83 c0 01	 add	 eax, 1
  00313	a3 00 00 00 00	 mov	 DWORD PTR _optind, eax

; 515  : 			place = EMSG;

  00318	c7 05 00 00 00
	00 00 00 00 00	 mov	 DWORD PTR _place, OFFSET $SG82031

; 516  : 			/*
; 517  : 			 * We found an option (--), so if we skipped
; 518  : 			 * non-options, we have to permute.
; 519  : 			 */
; 520  : 			if (nonopt_end != -1) {

  00322	83 3d 00 00 00
	00 ff		 cmp	 DWORD PTR _nonopt_end, -1
  00329	74 38		 je	 SHORT $LN28@getopt_int

; 521  : 				permute_args(nonopt_start, nonopt_end,
; 522  : 				    optind, nargv);

  0032b	8b 4d 0c	 mov	 ecx, DWORD PTR _nargv$[ebp]
  0032e	51		 push	 ecx
  0032f	8b 15 00 00 00
	00		 mov	 edx, DWORD PTR _optind
  00335	52		 push	 edx
  00336	a1 00 00 00 00	 mov	 eax, DWORD PTR _nonopt_end
  0033b	50		 push	 eax
  0033c	8b 0d 00 00 00
	00		 mov	 ecx, DWORD PTR _nonopt_start
  00342	51		 push	 ecx
  00343	e8 00 00 00 00	 call	 _permute_args
  00348	83 c4 10	 add	 esp, 16			; 00000010H

; 523  : 				optind -= nonopt_end - nonopt_start;

  0034b	8b 15 00 00 00
	00		 mov	 edx, DWORD PTR _nonopt_end
  00351	2b 15 00 00 00
	00		 sub	 edx, DWORD PTR _nonopt_start
  00357	a1 00 00 00 00	 mov	 eax, DWORD PTR _optind
  0035c	2b c2		 sub	 eax, edx
  0035e	a3 00 00 00 00	 mov	 DWORD PTR _optind, eax
$LN28@getopt_int:

; 524  : 			}
; 525  : 			nonopt_start = nonopt_end = -1;

  00363	c7 05 00 00 00
	00 ff ff ff ff	 mov	 DWORD PTR _nonopt_end, -1
  0036d	8b 0d 00 00 00
	00		 mov	 ecx, DWORD PTR _nonopt_end
  00373	89 0d 00 00 00
	00		 mov	 DWORD PTR _nonopt_start, ecx

; 526  : 			return (-1);

  00379	83 c8 ff	 or	 eax, -1
  0037c	e9 5d 03 00 00	 jmp	 $LN55@getopt_int
$LN43@getopt_int:

; 527  : 		}
; 528  : 	}
; 529  : 
; 530  : 	/*
; 531  : 	 * Check long options if:
; 532  : 	 *  1) we were passed some
; 533  : 	 *  2) the arg is not just "-"
; 534  : 	 *  3) either the arg starts with -- we are getopt_long_only()
; 535  : 	 */
; 536  : 	if (long_options != NULL && place != nargv[optind] &&
; 537  : 	    (*place == '-' || (flags & FLAG_LONGONLY))) {

  00381	83 7d 14 00	 cmp	 DWORD PTR _long_options$[ebp], 0
  00385	0f 84 be 00 00
	00		 je	 $LN27@getopt_int
  0038b	8b 15 00 00 00
	00		 mov	 edx, DWORD PTR _optind
  00391	8b 45 0c	 mov	 eax, DWORD PTR _nargv$[ebp]
  00394	8b 0d 00 00 00
	00		 mov	 ecx, DWORD PTR _place
  0039a	3b 0c 90	 cmp	 ecx, DWORD PTR [eax+edx*4]
  0039d	0f 84 a6 00 00
	00		 je	 $LN27@getopt_int
  003a3	8b 15 00 00 00
	00		 mov	 edx, DWORD PTR _place
  003a9	0f be 02	 movsx	 eax, BYTE PTR [edx]
  003ac	83 f8 2d	 cmp	 eax, 45			; 0000002dH
  003af	74 0c		 je	 SHORT $LN26@getopt_int
  003b1	8b 4d 1c	 mov	 ecx, DWORD PTR _flags$[ebp]
  003b4	83 e1 04	 and	 ecx, 4
  003b7	0f 84 8c 00 00
	00		 je	 $LN27@getopt_int
$LN26@getopt_int:

; 538  : 		short_too = 0;

  003bd	c7 45 f4 00 00
	00 00		 mov	 DWORD PTR _short_too$[ebp], 0

; 539  : 		if (*place == '-')

  003c4	8b 15 00 00 00
	00		 mov	 edx, DWORD PTR _place
  003ca	0f be 02	 movsx	 eax, BYTE PTR [edx]
  003cd	83 f8 2d	 cmp	 eax, 45			; 0000002dH
  003d0	75 11		 jne	 SHORT $LN25@getopt_int

; 540  : 			place++;		/* --foo long option */

  003d2	8b 0d 00 00 00
	00		 mov	 ecx, DWORD PTR _place
  003d8	83 c1 01	 add	 ecx, 1
  003db	89 0d 00 00 00
	00		 mov	 DWORD PTR _place, ecx
  003e1	eb 2f		 jmp	 SHORT $LN24@getopt_int
$LN25@getopt_int:

; 541  : 		else if (*place != ':' && strchr(options, *place) != NULL)

  003e3	8b 15 00 00 00
	00		 mov	 edx, DWORD PTR _place
  003e9	0f be 02	 movsx	 eax, BYTE PTR [edx]
  003ec	83 f8 3a	 cmp	 eax, 58			; 0000003aH
  003ef	74 21		 je	 SHORT $LN24@getopt_int
  003f1	8b 0d 00 00 00
	00		 mov	 ecx, DWORD PTR _place
  003f7	0f be 11	 movsx	 edx, BYTE PTR [ecx]
  003fa	52		 push	 edx
  003fb	8b 45 10	 mov	 eax, DWORD PTR _options$[ebp]
  003fe	50		 push	 eax
  003ff	e8 00 00 00 00	 call	 _strchr
  00404	83 c4 08	 add	 esp, 8
  00407	85 c0		 test	 eax, eax
  00409	74 07		 je	 SHORT $LN24@getopt_int

; 542  : 			short_too = 1;		/* could be short option too */

  0040b	c7 45 f4 01 00
	00 00		 mov	 DWORD PTR _short_too$[ebp], 1
$LN24@getopt_int:

; 543  : 
; 544  : 		optchar = parse_long_options(nargv, options, long_options,
; 545  : 		    idx, short_too);

  00412	8b 4d f4	 mov	 ecx, DWORD PTR _short_too$[ebp]
  00415	51		 push	 ecx
  00416	8b 55 18	 mov	 edx, DWORD PTR _idx$[ebp]
  00419	52		 push	 edx
  0041a	8b 45 14	 mov	 eax, DWORD PTR _long_options$[ebp]
  0041d	50		 push	 eax
  0041e	8b 4d 10	 mov	 ecx, DWORD PTR _options$[ebp]
  00421	51		 push	 ecx
  00422	8b 55 0c	 mov	 edx, DWORD PTR _nargv$[ebp]
  00425	52		 push	 edx
  00426	e8 00 00 00 00	 call	 _parse_long_options
  0042b	83 c4 14	 add	 esp, 20			; 00000014H
  0042e	89 45 fc	 mov	 DWORD PTR _optchar$[ebp], eax

; 546  : 		if (optchar != -1) {

  00431	83 7d fc ff	 cmp	 DWORD PTR _optchar$[ebp], -1
  00435	74 12		 je	 SHORT $LN27@getopt_int

; 547  : 			place = EMSG;

  00437	c7 05 00 00 00
	00 00 00 00 00	 mov	 DWORD PTR _place, OFFSET $SG82041

; 548  : 			return (optchar);

  00441	8b 45 fc	 mov	 eax, DWORD PTR _optchar$[ebp]
  00444	e9 95 02 00 00	 jmp	 $LN55@getopt_int
$LN27@getopt_int:

; 549  : 		}
; 550  : 	}
; 551  : 
; 552  : 	if ((optchar = (int)*place++) == (int)':' ||
; 553  : 	    (optchar == (int)'-' && *place != '\0') ||
; 554  : 	    (oli = (char*)strchr(options, optchar)) == NULL) {

  00449	a1 00 00 00 00	 mov	 eax, DWORD PTR _place
  0044e	0f be 08	 movsx	 ecx, BYTE PTR [eax]
  00451	89 4d fc	 mov	 DWORD PTR _optchar$[ebp], ecx
  00454	8b 55 fc	 mov	 edx, DWORD PTR _optchar$[ebp]
  00457	a1 00 00 00 00	 mov	 eax, DWORD PTR _place
  0045c	83 c0 01	 add	 eax, 1
  0045f	a3 00 00 00 00	 mov	 DWORD PTR _place, eax
  00464	83 fa 3a	 cmp	 edx, 58			; 0000003aH
  00467	74 2c		 je	 SHORT $LN20@getopt_int
  00469	83 7d fc 2d	 cmp	 DWORD PTR _optchar$[ebp], 45 ; 0000002dH
  0046d	75 0d		 jne	 SHORT $LN19@getopt_int
  0046f	8b 0d 00 00 00
	00		 mov	 ecx, DWORD PTR _place
  00475	0f be 11	 movsx	 edx, BYTE PTR [ecx]
  00478	85 d2		 test	 edx, edx
  0047a	75 19		 jne	 SHORT $LN20@getopt_int
$LN19@getopt_int:
  0047c	8b 45 fc	 mov	 eax, DWORD PTR _optchar$[ebp]
  0047f	50		 push	 eax
  00480	8b 4d 10	 mov	 ecx, DWORD PTR _options$[ebp]
  00483	51		 push	 ecx
  00484	e8 00 00 00 00	 call	 _strchr
  00489	83 c4 08	 add	 esp, 8
  0048c	89 45 f8	 mov	 DWORD PTR _oli$[ebp], eax
  0048f	83 7d f8 00	 cmp	 DWORD PTR _oli$[ebp], 0
  00493	75 6d		 jne	 SHORT $LN21@getopt_int
$LN20@getopt_int:

; 555  : 		/*
; 556  : 		 * If the user specified "-" and  '-' isn't listed in
; 557  : 		 * options, return -1 (non-option) as per POSIX.
; 558  : 		 * Otherwise, it is an unknown option character (or ':').
; 559  : 		 */
; 560  : 		if (optchar == (int)'-' && *place == '\0')

  00495	83 7d fc 2d	 cmp	 DWORD PTR _optchar$[ebp], 45 ; 0000002dH
  00499	75 15		 jne	 SHORT $LN18@getopt_int
  0049b	8b 15 00 00 00
	00		 mov	 edx, DWORD PTR _place
  004a1	0f be 02	 movsx	 eax, BYTE PTR [edx]
  004a4	85 c0		 test	 eax, eax
  004a6	75 08		 jne	 SHORT $LN18@getopt_int

; 561  : 			return (-1);

  004a8	83 c8 ff	 or	 eax, -1
  004ab	e9 2e 02 00 00	 jmp	 $LN55@getopt_int
$LN18@getopt_int:

; 562  : 		if (!*place)

  004b0	8b 0d 00 00 00
	00		 mov	 ecx, DWORD PTR _place
  004b6	0f be 11	 movsx	 edx, BYTE PTR [ecx]
  004b9	85 d2		 test	 edx, edx
  004bb	75 0d		 jne	 SHORT $LN17@getopt_int

; 563  : 			++optind;

  004bd	a1 00 00 00 00	 mov	 eax, DWORD PTR _optind
  004c2	83 c0 01	 add	 eax, 1
  004c5	a3 00 00 00 00	 mov	 DWORD PTR _optind, eax
$LN17@getopt_int:

; 564  : 		if (PRINT_ERROR)

  004ca	83 3d 00 00 00
	00 00		 cmp	 DWORD PTR _opterr, 0
  004d1	74 1c		 je	 SHORT $LN16@getopt_int
  004d3	8b 4d 10	 mov	 ecx, DWORD PTR _options$[ebp]
  004d6	0f be 11	 movsx	 edx, BYTE PTR [ecx]
  004d9	83 fa 3a	 cmp	 edx, 58			; 0000003aH
  004dc	74 11		 je	 SHORT $LN16@getopt_int

; 565  : 			warnx(illoptchar, optchar);

  004de	8b 45 fc	 mov	 eax, DWORD PTR _optchar$[ebp]
  004e1	50		 push	 eax
  004e2	68 00 00 00 00	 push	 OFFSET _illoptchar
  004e7	e8 00 00 00 00	 call	 _warnx
  004ec	83 c4 08	 add	 esp, 8
$LN16@getopt_int:

; 566  : 		optopt = optchar;

  004ef	8b 4d fc	 mov	 ecx, DWORD PTR _optchar$[ebp]
  004f2	89 0d 00 00 00
	00		 mov	 DWORD PTR _optopt, ecx

; 567  : 		return (BADCH);

  004f8	b8 3f 00 00 00	 mov	 eax, 63			; 0000003fH
  004fd	e9 dc 01 00 00	 jmp	 $LN55@getopt_int
$LN21@getopt_int:

; 568  : 	}
; 569  : 	if (long_options != NULL && optchar == 'W' && oli[1] == ';') {

  00502	83 7d 14 00	 cmp	 DWORD PTR _long_options$[ebp], 0
  00506	0f 84 d3 00 00
	00		 je	 $LN15@getopt_int
  0050c	83 7d fc 57	 cmp	 DWORD PTR _optchar$[ebp], 87 ; 00000057H
  00510	0f 85 c9 00 00
	00		 jne	 $LN15@getopt_int
  00516	8b 55 f8	 mov	 edx, DWORD PTR _oli$[ebp]
  00519	0f be 42 01	 movsx	 eax, BYTE PTR [edx+1]
  0051d	83 f8 3b	 cmp	 eax, 59			; 0000003bH
  00520	0f 85 b9 00 00
	00		 jne	 $LN15@getopt_int

; 570  : 		/* -W long-option */
; 571  : 		if (*place)			/* no space */

  00526	8b 0d 00 00 00
	00		 mov	 ecx, DWORD PTR _place
  0052c	0f be 11	 movsx	 edx, BYTE PTR [ecx]
  0052f	85 d2		 test	 edx, edx
  00531	74 02		 je	 SHORT $LN14@getopt_int
  00533	eb 7b		 jmp	 SHORT $LN13@getopt_int
$LN14@getopt_int:

; 572  : 			/* NOTHING */;
; 573  : 		else if (++optind >= nargc) {	/* no arg */

  00535	a1 00 00 00 00	 mov	 eax, DWORD PTR _optind
  0053a	83 c0 01	 add	 eax, 1
  0053d	a3 00 00 00 00	 mov	 DWORD PTR _optind, eax
  00542	8b 0d 00 00 00
	00		 mov	 ecx, DWORD PTR _optind
  00548	3b 4d 08	 cmp	 ecx, DWORD PTR _nargc$[ebp]
  0054b	7c 52		 jl	 SHORT $LN12@getopt_int

; 574  : 			place = EMSG;

  0054d	c7 05 00 00 00
	00 00 00 00 00	 mov	 DWORD PTR _place, OFFSET $SG82060

; 575  : 			if (PRINT_ERROR)

  00557	83 3d 00 00 00
	00 00		 cmp	 DWORD PTR _opterr, 0
  0055e	74 1c		 je	 SHORT $LN11@getopt_int
  00560	8b 55 10	 mov	 edx, DWORD PTR _options$[ebp]
  00563	0f be 02	 movsx	 eax, BYTE PTR [edx]
  00566	83 f8 3a	 cmp	 eax, 58			; 0000003aH
  00569	74 11		 je	 SHORT $LN11@getopt_int

; 576  : 				warnx(recargchar, optchar);

  0056b	8b 4d fc	 mov	 ecx, DWORD PTR _optchar$[ebp]
  0056e	51		 push	 ecx
  0056f	68 00 00 00 00	 push	 OFFSET _recargchar
  00574	e8 00 00 00 00	 call	 _warnx
  00579	83 c4 08	 add	 esp, 8
$LN11@getopt_int:

; 577  : 			optopt = optchar;

  0057c	8b 55 fc	 mov	 edx, DWORD PTR _optchar$[ebp]
  0057f	89 15 00 00 00
	00		 mov	 DWORD PTR _optopt, edx

; 578  : 			return (BADARG);

  00585	8b 45 10	 mov	 eax, DWORD PTR _options$[ebp]
  00588	0f be 00	 movsx	 eax, BYTE PTR [eax]
  0058b	83 e8 3a	 sub	 eax, 58			; 0000003aH
  0058e	f7 d8		 neg	 eax
  00590	1b c0		 sbb	 eax, eax
  00592	83 e0 05	 and	 eax, 5
  00595	83 c0 3a	 add	 eax, 58			; 0000003aH
  00598	e9 41 01 00 00	 jmp	 $LN55@getopt_int

; 579  : 		} else				/* white space */

  0059d	eb 11		 jmp	 SHORT $LN13@getopt_int
$LN12@getopt_int:

; 580  : 			place = nargv[optind];

  0059f	8b 0d 00 00 00
	00		 mov	 ecx, DWORD PTR _optind
  005a5	8b 55 0c	 mov	 edx, DWORD PTR _nargv$[ebp]
  005a8	8b 04 8a	 mov	 eax, DWORD PTR [edx+ecx*4]
  005ab	a3 00 00 00 00	 mov	 DWORD PTR _place, eax
$LN13@getopt_int:

; 581  : 		optchar = parse_long_options(nargv, options, long_options,
; 582  : 		    idx, 0);

  005b0	6a 00		 push	 0
  005b2	8b 4d 18	 mov	 ecx, DWORD PTR _idx$[ebp]
  005b5	51		 push	 ecx
  005b6	8b 55 14	 mov	 edx, DWORD PTR _long_options$[ebp]
  005b9	52		 push	 edx
  005ba	8b 45 10	 mov	 eax, DWORD PTR _options$[ebp]
  005bd	50		 push	 eax
  005be	8b 4d 0c	 mov	 ecx, DWORD PTR _nargv$[ebp]
  005c1	51		 push	 ecx
  005c2	e8 00 00 00 00	 call	 _parse_long_options
  005c7	83 c4 14	 add	 esp, 20			; 00000014H
  005ca	89 45 fc	 mov	 DWORD PTR _optchar$[ebp], eax

; 583  : 		place = EMSG;

  005cd	c7 05 00 00 00
	00 00 00 00 00	 mov	 DWORD PTR _place, OFFSET $SG82065

; 584  : 		return (optchar);

  005d7	8b 45 fc	 mov	 eax, DWORD PTR _optchar$[ebp]
  005da	e9 ff 00 00 00	 jmp	 $LN55@getopt_int
$LN15@getopt_int:

; 585  : 	}
; 586  : 	if (*++oli != ':') {			/* doesn't take argument */

  005df	8b 55 f8	 mov	 edx, DWORD PTR _oli$[ebp]
  005e2	83 c2 01	 add	 edx, 1
  005e5	89 55 f8	 mov	 DWORD PTR _oli$[ebp], edx
  005e8	8b 45 f8	 mov	 eax, DWORD PTR _oli$[ebp]
  005eb	0f be 08	 movsx	 ecx, BYTE PTR [eax]
  005ee	83 f9 3a	 cmp	 ecx, 58			; 0000003aH
  005f1	74 21		 je	 SHORT $LN9@getopt_int

; 587  : 		if (!*place)

  005f3	8b 15 00 00 00
	00		 mov	 edx, DWORD PTR _place
  005f9	0f be 02	 movsx	 eax, BYTE PTR [edx]
  005fc	85 c0		 test	 eax, eax
  005fe	75 0f		 jne	 SHORT $LN8@getopt_int

; 588  : 			++optind;

  00600	8b 0d 00 00 00
	00		 mov	 ecx, DWORD PTR _optind
  00606	83 c1 01	 add	 ecx, 1
  00609	89 0d 00 00 00
	00		 mov	 DWORD PTR _optind, ecx
$LN8@getopt_int:

; 589  : 	} else {				/* takes (optional) argument */

  0060f	e9 c7 00 00 00	 jmp	 $LN7@getopt_int
$LN9@getopt_int:

; 590  : 		optarg = NULL;

  00614	c7 05 00 00 00
	00 00 00 00 00	 mov	 DWORD PTR _optarg, 0

; 591  : 		if (*place)			/* no white space */

  0061e	8b 15 00 00 00
	00		 mov	 edx, DWORD PTR _place
  00624	0f be 02	 movsx	 eax, BYTE PTR [edx]
  00627	85 c0		 test	 eax, eax
  00629	74 11		 je	 SHORT $LN6@getopt_int

; 592  : 			optarg = place;

  0062b	8b 0d 00 00 00
	00		 mov	 ecx, DWORD PTR _place
  00631	89 0d 00 00 00
	00		 mov	 DWORD PTR _optarg, ecx
  00637	e9 86 00 00 00	 jmp	 $LN5@getopt_int
$LN6@getopt_int:

; 593  : 		else if (oli[1] != ':') {	/* arg not optional */

  0063c	8b 55 f8	 mov	 edx, DWORD PTR _oli$[ebp]
  0063f	0f be 42 01	 movsx	 eax, BYTE PTR [edx+1]
  00643	83 f8 3a	 cmp	 eax, 58			; 0000003aH
  00646	74 7a		 je	 SHORT $LN5@getopt_int

; 594  : 			if (++optind >= nargc) {	/* no arg */

  00648	8b 0d 00 00 00
	00		 mov	 ecx, DWORD PTR _optind
  0064e	83 c1 01	 add	 ecx, 1
  00651	89 0d 00 00 00
	00		 mov	 DWORD PTR _optind, ecx
  00657	8b 15 00 00 00
	00		 mov	 edx, DWORD PTR _optind
  0065d	3b 55 08	 cmp	 edx, DWORD PTR _nargc$[ebp]
  00660	7c 4e		 jl	 SHORT $LN3@getopt_int

; 595  : 				place = EMSG;

  00662	c7 05 00 00 00
	00 00 00 00 00	 mov	 DWORD PTR _place, OFFSET $SG82074

; 596  : 				if (PRINT_ERROR)

  0066c	83 3d 00 00 00
	00 00		 cmp	 DWORD PTR _opterr, 0
  00673	74 1c		 je	 SHORT $LN2@getopt_int
  00675	8b 45 10	 mov	 eax, DWORD PTR _options$[ebp]
  00678	0f be 08	 movsx	 ecx, BYTE PTR [eax]
  0067b	83 f9 3a	 cmp	 ecx, 58			; 0000003aH
  0067e	74 11		 je	 SHORT $LN2@getopt_int

; 597  : 					warnx(recargchar, optchar);

  00680	8b 55 fc	 mov	 edx, DWORD PTR _optchar$[ebp]
  00683	52		 push	 edx
  00684	68 00 00 00 00	 push	 OFFSET _recargchar
  00689	e8 00 00 00 00	 call	 _warnx
  0068e	83 c4 08	 add	 esp, 8
$LN2@getopt_int:

; 598  : 				optopt = optchar;

  00691	8b 45 fc	 mov	 eax, DWORD PTR _optchar$[ebp]
  00694	a3 00 00 00 00	 mov	 DWORD PTR _optopt, eax

; 599  : 				return (BADARG);

  00699	8b 4d 10	 mov	 ecx, DWORD PTR _options$[ebp]
  0069c	0f be 01	 movsx	 eax, BYTE PTR [ecx]
  0069f	83 e8 3a	 sub	 eax, 58			; 0000003aH
  006a2	f7 d8		 neg	 eax
  006a4	1b c0		 sbb	 eax, eax
  006a6	83 e0 05	 and	 eax, 5
  006a9	83 c0 3a	 add	 eax, 58			; 0000003aH
  006ac	eb 30		 jmp	 SHORT $LN55@getopt_int

; 600  : 			} else

  006ae	eb 12		 jmp	 SHORT $LN5@getopt_int
$LN3@getopt_int:

; 601  : 				optarg = nargv[optind];

  006b0	8b 15 00 00 00
	00		 mov	 edx, DWORD PTR _optind
  006b6	8b 45 0c	 mov	 eax, DWORD PTR _nargv$[ebp]
  006b9	8b 0c 90	 mov	 ecx, DWORD PTR [eax+edx*4]
  006bc	89 0d 00 00 00
	00		 mov	 DWORD PTR _optarg, ecx
$LN5@getopt_int:

; 602  : 		}
; 603  : 		place = EMSG;

  006c2	c7 05 00 00 00
	00 00 00 00 00	 mov	 DWORD PTR _place, OFFSET $SG82079

; 604  : 		++optind;

  006cc	8b 15 00 00 00
	00		 mov	 edx, DWORD PTR _optind
  006d2	83 c2 01	 add	 edx, 1
  006d5	89 15 00 00 00
	00		 mov	 DWORD PTR _optind, edx
$LN7@getopt_int:

; 605  : 	}
; 606  : 	/* dump back option letter */
; 607  : 	return (optchar);

  006db	8b 45 fc	 mov	 eax, DWORD PTR _optchar$[ebp]
$LN55@getopt_int:

; 608  : }

  006de	8b e5		 mov	 esp, ebp
  006e0	5d		 pop	 ebp
  006e1	c3		 ret	 0
_getopt_internal ENDP
; Function compile flags: /Odtp
_ap$ = -4						; size = 4
_fmt$ = 8						; size = 4
_warnx	PROC

; 151  : {

  006f0	55		 push	 ebp
  006f1	8b ec		 mov	 ebp, esp
  006f3	51		 push	 ecx

; 152  :   va_list ap;
; 153  :   va_start(ap,fmt);

  006f4	8d 45 0c	 lea	 eax, DWORD PTR _fmt$[ebp+4]
  006f7	89 45 fc	 mov	 DWORD PTR _ap$[ebp], eax

; 154  :   _vwarnx(fmt,ap);

  006fa	8b 4d fc	 mov	 ecx, DWORD PTR _ap$[ebp]
  006fd	51		 push	 ecx
  006fe	8b 55 08	 mov	 edx, DWORD PTR _fmt$[ebp]
  00701	52		 push	 edx
  00702	e8 00 00 00 00	 call	 __vwarnx
  00707	83 c4 08	 add	 esp, 8

; 155  :   va_end(ap);

  0070a	c7 45 fc 00 00
	00 00		 mov	 DWORD PTR _ap$[ebp], 0

; 156  : }

  00711	8b e5		 mov	 esp, ebp
  00713	5d		 pop	 ebp
  00714	c3		 ret	 0
_warnx	ENDP
_TEXT	ENDS
EXTRN	_vfprintf:PROC
EXTRN	_fprintf:PROC
EXTRN	___iob_func:PROC
EXTRN	___argv:DWORD
; Function compile flags: /Odtp
_TEXT	SEGMENT
_fmt$ = 8						; size = 4
_ap$ = 12						; size = 4
__vwarnx PROC

; 142  : {

  00720	55		 push	 ebp
  00721	8b ec		 mov	 ebp, esp

; 143  :   (void)fprintf(stderr,"%s: ",__progname);

  00723	a1 00 00 00 00	 mov	 eax, DWORD PTR ___argv
  00728	8b 08		 mov	 ecx, DWORD PTR [eax]
  0072a	51		 push	 ecx
  0072b	68 00 00 00 00	 push	 OFFSET $SG81845
  00730	e8 00 00 00 00	 call	 ___iob_func
  00735	83 c0 40	 add	 eax, 64			; 00000040H
  00738	50		 push	 eax
  00739	e8 00 00 00 00	 call	 _fprintf
  0073e	83 c4 0c	 add	 esp, 12			; 0000000cH

; 144  :   if (fmt != NULL)

  00741	83 7d 08 00	 cmp	 DWORD PTR _fmt$[ebp], 0
  00745	74 19		 je	 SHORT $LN1@vwarnx

; 145  :     (void)vfprintf(stderr,fmt,ap);

  00747	8b 55 0c	 mov	 edx, DWORD PTR _ap$[ebp]
  0074a	52		 push	 edx
  0074b	8b 45 08	 mov	 eax, DWORD PTR _fmt$[ebp]
  0074e	50		 push	 eax
  0074f	e8 00 00 00 00	 call	 ___iob_func
  00754	83 c0 40	 add	 eax, 64			; 00000040H
  00757	50		 push	 eax
  00758	e8 00 00 00 00	 call	 _vfprintf
  0075d	83 c4 0c	 add	 esp, 12			; 0000000cH
$LN1@vwarnx:

; 146  :   (void)fprintf(stderr,"\n");

  00760	68 00 00 00 00	 push	 OFFSET $SG81850
  00765	e8 00 00 00 00	 call	 ___iob_func
  0076a	83 c0 40	 add	 eax, 64			; 00000040H
  0076d	50		 push	 eax
  0076e	e8 00 00 00 00	 call	 _fprintf
  00773	83 c4 08	 add	 esp, 8

; 147  : }

  00776	5d		 pop	 ebp
  00777	c3		 ret	 0
__vwarnx ENDP
; Function compile flags: /Odtp
_j$ = -36						; size = 4
_pos$ = -32						; size = 4
_swap$ = -28						; size = 4
_cyclelen$ = -24					; size = 4
_ncycle$ = -20						; size = 4
_nopts$ = -16						; size = 4
_cstart$ = -12						; size = 4
_i$ = -8						; size = 4
_nnonopts$ = -4						; size = 4
_panonopt_start$ = 8					; size = 4
_panonopt_end$ = 12					; size = 4
_opt_end$ = 16						; size = 4
_nargv$ = 20						; size = 4
_permute_args PROC

; 184  : {

  00780	55		 push	 ebp
  00781	8b ec		 mov	 ebp, esp
  00783	83 ec 24	 sub	 esp, 36			; 00000024H
  00786	56		 push	 esi

; 185  : 	int cstart, cyclelen, i, j, ncycle, nnonopts, nopts, pos;
; 186  : 	char *swap;
; 187  : 
; 188  : 	/*
; 189  : 	 * compute lengths of blocks and number and size of cycles
; 190  : 	 */
; 191  : 	nnonopts = panonopt_end - panonopt_start;

  00787	8b 45 0c	 mov	 eax, DWORD PTR _panonopt_end$[ebp]
  0078a	2b 45 08	 sub	 eax, DWORD PTR _panonopt_start$[ebp]
  0078d	89 45 fc	 mov	 DWORD PTR _nnonopts$[ebp], eax

; 192  : 	nopts = opt_end - panonopt_end;

  00790	8b 4d 10	 mov	 ecx, DWORD PTR _opt_end$[ebp]
  00793	2b 4d 0c	 sub	 ecx, DWORD PTR _panonopt_end$[ebp]
  00796	89 4d f0	 mov	 DWORD PTR _nopts$[ebp], ecx

; 193  : 	ncycle = gcd(nnonopts, nopts);

  00799	8b 55 f0	 mov	 edx, DWORD PTR _nopts$[ebp]
  0079c	52		 push	 edx
  0079d	8b 45 fc	 mov	 eax, DWORD PTR _nnonopts$[ebp]
  007a0	50		 push	 eax
  007a1	e8 00 00 00 00	 call	 _gcd
  007a6	83 c4 08	 add	 esp, 8
  007a9	89 45 ec	 mov	 DWORD PTR _ncycle$[ebp], eax

; 194  : 	cyclelen = (opt_end - panonopt_start) / ncycle;

  007ac	8b 45 10	 mov	 eax, DWORD PTR _opt_end$[ebp]
  007af	2b 45 08	 sub	 eax, DWORD PTR _panonopt_start$[ebp]
  007b2	99		 cdq
  007b3	f7 7d ec	 idiv	 DWORD PTR _ncycle$[ebp]
  007b6	89 45 e8	 mov	 DWORD PTR _cyclelen$[ebp], eax

; 195  : 
; 196  : 	for (i = 0; i < ncycle; i++) {

  007b9	c7 45 f8 00 00
	00 00		 mov	 DWORD PTR _i$[ebp], 0
  007c0	eb 09		 jmp	 SHORT $LN8@permute_ar
$LN7@permute_ar:
  007c2	8b 4d f8	 mov	 ecx, DWORD PTR _i$[ebp]
  007c5	83 c1 01	 add	 ecx, 1
  007c8	89 4d f8	 mov	 DWORD PTR _i$[ebp], ecx
$LN8@permute_ar:
  007cb	8b 55 f8	 mov	 edx, DWORD PTR _i$[ebp]
  007ce	3b 55 ec	 cmp	 edx, DWORD PTR _ncycle$[ebp]
  007d1	7d 76		 jge	 SHORT $LN9@permute_ar

; 197  : 		cstart = panonopt_end+i;

  007d3	8b 45 0c	 mov	 eax, DWORD PTR _panonopt_end$[ebp]
  007d6	03 45 f8	 add	 eax, DWORD PTR _i$[ebp]
  007d9	89 45 f4	 mov	 DWORD PTR _cstart$[ebp], eax

; 198  : 		pos = cstart;

  007dc	8b 4d f4	 mov	 ecx, DWORD PTR _cstart$[ebp]
  007df	89 4d e0	 mov	 DWORD PTR _pos$[ebp], ecx

; 199  : 		for (j = 0; j < cyclelen; j++) {

  007e2	c7 45 dc 00 00
	00 00		 mov	 DWORD PTR _j$[ebp], 0
  007e9	eb 09		 jmp	 SHORT $LN5@permute_ar
$LN4@permute_ar:
  007eb	8b 55 dc	 mov	 edx, DWORD PTR _j$[ebp]
  007ee	83 c2 01	 add	 edx, 1
  007f1	89 55 dc	 mov	 DWORD PTR _j$[ebp], edx
$LN5@permute_ar:
  007f4	8b 45 dc	 mov	 eax, DWORD PTR _j$[ebp]
  007f7	3b 45 e8	 cmp	 eax, DWORD PTR _cyclelen$[ebp]
  007fa	7d 48		 jge	 SHORT $LN3@permute_ar

; 200  : 			if (pos >= panonopt_end)

  007fc	8b 4d e0	 mov	 ecx, DWORD PTR _pos$[ebp]
  007ff	3b 4d 0c	 cmp	 ecx, DWORD PTR _panonopt_end$[ebp]
  00802	7c 0b		 jl	 SHORT $LN2@permute_ar

; 201  : 				pos -= nnonopts;

  00804	8b 55 e0	 mov	 edx, DWORD PTR _pos$[ebp]
  00807	2b 55 fc	 sub	 edx, DWORD PTR _nnonopts$[ebp]
  0080a	89 55 e0	 mov	 DWORD PTR _pos$[ebp], edx

; 202  : 			else

  0080d	eb 09		 jmp	 SHORT $LN1@permute_ar
$LN2@permute_ar:

; 203  : 				pos += nopts;

  0080f	8b 45 e0	 mov	 eax, DWORD PTR _pos$[ebp]
  00812	03 45 f0	 add	 eax, DWORD PTR _nopts$[ebp]
  00815	89 45 e0	 mov	 DWORD PTR _pos$[ebp], eax
$LN1@permute_ar:

; 204  : 			swap = nargv[pos];

  00818	8b 4d e0	 mov	 ecx, DWORD PTR _pos$[ebp]
  0081b	8b 55 14	 mov	 edx, DWORD PTR _nargv$[ebp]
  0081e	8b 04 8a	 mov	 eax, DWORD PTR [edx+ecx*4]
  00821	89 45 e4	 mov	 DWORD PTR _swap$[ebp], eax

; 205  : 			/* LINTED const cast */
; 206  : 			((char **) nargv)[pos] = nargv[cstart];

  00824	8b 4d e0	 mov	 ecx, DWORD PTR _pos$[ebp]
  00827	8b 55 14	 mov	 edx, DWORD PTR _nargv$[ebp]
  0082a	8b 45 f4	 mov	 eax, DWORD PTR _cstart$[ebp]
  0082d	8b 75 14	 mov	 esi, DWORD PTR _nargv$[ebp]
  00830	8b 04 86	 mov	 eax, DWORD PTR [esi+eax*4]
  00833	89 04 8a	 mov	 DWORD PTR [edx+ecx*4], eax

; 207  : 			/* LINTED const cast */
; 208  : 			((char **)nargv)[cstart] = swap;

  00836	8b 4d f4	 mov	 ecx, DWORD PTR _cstart$[ebp]
  00839	8b 55 14	 mov	 edx, DWORD PTR _nargv$[ebp]
  0083c	8b 45 e4	 mov	 eax, DWORD PTR _swap$[ebp]
  0083f	89 04 8a	 mov	 DWORD PTR [edx+ecx*4], eax

; 209  : 		}

  00842	eb a7		 jmp	 SHORT $LN4@permute_ar
$LN3@permute_ar:

; 210  : 	}

  00844	e9 79 ff ff ff	 jmp	 $LN7@permute_ar
$LN9@permute_ar:

; 211  : }

  00849	5e		 pop	 esi
  0084a	8b e5		 mov	 esp, ebp
  0084c	5d		 pop	 ebp
  0084d	c3		 ret	 0
_permute_args ENDP
; Function compile flags: /Odtp
_c$ = -4						; size = 4
_a$ = 8							; size = 4
_b$ = 12						; size = 4
_gcd	PROC

; 163  : {

  00850	55		 push	 ebp
  00851	8b ec		 mov	 ebp, esp
  00853	51		 push	 ecx

; 164  : 	int c;
; 165  : 
; 166  : 	c = a % b;

  00854	8b 45 08	 mov	 eax, DWORD PTR _a$[ebp]
  00857	99		 cdq
  00858	f7 7d 0c	 idiv	 DWORD PTR _b$[ebp]
  0085b	89 55 fc	 mov	 DWORD PTR _c$[ebp], edx
$LN2@gcd:

; 167  : 	while (c != 0) {

  0085e	83 7d fc 00	 cmp	 DWORD PTR _c$[ebp], 0
  00862	74 18		 je	 SHORT $LN1@gcd

; 168  : 		a = b;

  00864	8b 45 0c	 mov	 eax, DWORD PTR _b$[ebp]
  00867	89 45 08	 mov	 DWORD PTR _a$[ebp], eax

; 169  : 		b = c;

  0086a	8b 4d fc	 mov	 ecx, DWORD PTR _c$[ebp]
  0086d	89 4d 0c	 mov	 DWORD PTR _b$[ebp], ecx

; 170  : 		c = a % b;

  00870	8b 45 08	 mov	 eax, DWORD PTR _a$[ebp]
  00873	99		 cdq
  00874	f7 7d 0c	 idiv	 DWORD PTR _b$[ebp]
  00877	89 55 fc	 mov	 DWORD PTR _c$[ebp], edx

; 171  : 	}

  0087a	eb e2		 jmp	 SHORT $LN2@gcd
$LN1@gcd:

; 172  : 
; 173  : 	return (b);

  0087c	8b 45 0c	 mov	 eax, DWORD PTR _b$[ebp]

; 174  : }

  0087f	8b e5		 mov	 esp, ebp
  00881	5d		 pop	 ebp
  00882	c3		 ret	 0
_gcd	ENDP
_TEXT	ENDS
EXTRN	_strncmp:PROC
EXTRN	_strlen:PROC
; Function compile flags: /Odtp
_TEXT	SEGMENT
_has_equal$ = -24					; size = 4
_match$ = -20						; size = 4
_ambiguous$ = -16					; size = 4
_i$ = -12						; size = 4
_current_argv_len$ = -8					; size = 4
_current_argv$ = -4					; size = 4
_nargv$ = 8						; size = 4
_options$ = 12						; size = 4
_long_options$ = 16					; size = 4
_idx$ = 20						; size = 4
_short_too$ = 24					; size = 4
_parse_long_options PROC

; 292  : {

  00890	55		 push	 ebp
  00891	8b ec		 mov	 ebp, esp
  00893	83 ec 18	 sub	 esp, 24			; 00000018H
  00896	56		 push	 esi

; 293  : 	char *current_argv, *has_equal;
; 294  : 	size_t current_argv_len;
; 295  : 	int i, ambiguous, match;
; 296  : 
; 297  : #define IDENTICAL_INTERPRETATION(_x, _y)                                \
; 298  : 	(long_options[(_x)].has_arg == long_options[(_y)].has_arg &&    \
; 299  : 	 long_options[(_x)].flag == long_options[(_y)].flag &&          \
; 300  : 	 long_options[(_x)].val == long_options[(_y)].val)
; 301  : 
; 302  : 	current_argv = place;

  00897	a1 00 00 00 00	 mov	 eax, DWORD PTR _place
  0089c	89 45 fc	 mov	 DWORD PTR _current_argv$[ebp], eax

; 303  : 	match = -1;

  0089f	c7 45 ec ff ff
	ff ff		 mov	 DWORD PTR _match$[ebp], -1

; 304  : 	ambiguous = 0;

  008a6	c7 45 f0 00 00
	00 00		 mov	 DWORD PTR _ambiguous$[ebp], 0

; 305  : 
; 306  : 	optind++;

  008ad	8b 0d 00 00 00
	00		 mov	 ecx, DWORD PTR _optind
  008b3	83 c1 01	 add	 ecx, 1
  008b6	89 0d 00 00 00
	00		 mov	 DWORD PTR _optind, ecx

; 307  : 
; 308  : 	if ((has_equal = strchr(current_argv, '=')) != NULL) {

  008bc	6a 3d		 push	 61			; 0000003dH
  008be	8b 55 fc	 mov	 edx, DWORD PTR _current_argv$[ebp]
  008c1	52		 push	 edx
  008c2	e8 00 00 00 00	 call	 _strchr
  008c7	83 c4 08	 add	 esp, 8
  008ca	89 45 e8	 mov	 DWORD PTR _has_equal$[ebp], eax
  008cd	83 7d e8 00	 cmp	 DWORD PTR _has_equal$[ebp], 0
  008d1	74 14		 je	 SHORT $LN34@parse_long

; 309  : 		/* argument found (--option=arg) */
; 310  : 		current_argv_len = has_equal - current_argv;

  008d3	8b 45 e8	 mov	 eax, DWORD PTR _has_equal$[ebp]
  008d6	2b 45 fc	 sub	 eax, DWORD PTR _current_argv$[ebp]
  008d9	89 45 f8	 mov	 DWORD PTR _current_argv_len$[ebp], eax

; 311  : 		has_equal++;

  008dc	8b 4d e8	 mov	 ecx, DWORD PTR _has_equal$[ebp]
  008df	83 c1 01	 add	 ecx, 1
  008e2	89 4d e8	 mov	 DWORD PTR _has_equal$[ebp], ecx

; 312  : 	} else

  008e5	eb 0f		 jmp	 SHORT $LN33@parse_long
$LN34@parse_long:

; 313  : 		current_argv_len = strlen(current_argv);

  008e7	8b 55 fc	 mov	 edx, DWORD PTR _current_argv$[ebp]
  008ea	52		 push	 edx
  008eb	e8 00 00 00 00	 call	 _strlen
  008f0	83 c4 04	 add	 esp, 4
  008f3	89 45 f8	 mov	 DWORD PTR _current_argv_len$[ebp], eax
$LN33@parse_long:

; 314  : 
; 315  : 	for (i = 0; long_options[i].name; i++) {

  008f6	c7 45 f4 00 00
	00 00		 mov	 DWORD PTR _i$[ebp], 0
  008fd	eb 09		 jmp	 SHORT $LN32@parse_long
$LN31@parse_long:
  008ff	8b 45 f4	 mov	 eax, DWORD PTR _i$[ebp]
  00902	83 c0 01	 add	 eax, 1
  00905	89 45 f4	 mov	 DWORD PTR _i$[ebp], eax
$LN32@parse_long:
  00908	8b 4d f4	 mov	 ecx, DWORD PTR _i$[ebp]
  0090b	c1 e1 04	 shl	 ecx, 4
  0090e	8b 55 10	 mov	 edx, DWORD PTR _long_options$[ebp]
  00911	83 3c 0a 00	 cmp	 DWORD PTR [edx+ecx], 0
  00915	0f 84 c8 00 00
	00		 je	 $LN30@parse_long

; 316  : 		/* find matching long option */
; 317  : 		if (strncmp(current_argv, long_options[i].name,
; 318  : 		    current_argv_len))

  0091b	8b 45 f8	 mov	 eax, DWORD PTR _current_argv_len$[ebp]
  0091e	50		 push	 eax
  0091f	8b 4d f4	 mov	 ecx, DWORD PTR _i$[ebp]
  00922	c1 e1 04	 shl	 ecx, 4
  00925	8b 55 10	 mov	 edx, DWORD PTR _long_options$[ebp]
  00928	8b 04 0a	 mov	 eax, DWORD PTR [edx+ecx]
  0092b	50		 push	 eax
  0092c	8b 4d fc	 mov	 ecx, DWORD PTR _current_argv$[ebp]
  0092f	51		 push	 ecx
  00930	e8 00 00 00 00	 call	 _strncmp
  00935	83 c4 0c	 add	 esp, 12			; 0000000cH
  00938	85 c0		 test	 eax, eax
  0093a	74 02		 je	 SHORT $LN29@parse_long

; 319  : 			continue;

  0093c	eb c1		 jmp	 SHORT $LN31@parse_long
$LN29@parse_long:

; 320  : 
; 321  : 		if (strlen(long_options[i].name) == current_argv_len) {

  0093e	8b 55 f4	 mov	 edx, DWORD PTR _i$[ebp]
  00941	c1 e2 04	 shl	 edx, 4
  00944	8b 45 10	 mov	 eax, DWORD PTR _long_options$[ebp]
  00947	8b 0c 10	 mov	 ecx, DWORD PTR [eax+edx]
  0094a	51		 push	 ecx
  0094b	e8 00 00 00 00	 call	 _strlen
  00950	83 c4 04	 add	 esp, 4
  00953	3b 45 f8	 cmp	 eax, DWORD PTR _current_argv_len$[ebp]
  00956	75 0f		 jne	 SHORT $LN28@parse_long

; 322  : 			/* exact match */
; 323  : 			match = i;

  00958	8b 55 f4	 mov	 edx, DWORD PTR _i$[ebp]
  0095b	89 55 ec	 mov	 DWORD PTR _match$[ebp], edx

; 324  : 			ambiguous = 0;

  0095e	c7 45 f0 00 00
	00 00		 mov	 DWORD PTR _ambiguous$[ebp], 0

; 325  : 			break;

  00965	eb 7c		 jmp	 SHORT $LN30@parse_long
$LN28@parse_long:

; 326  : 		}
; 327  : 		/*
; 328  : 		 * If this is a known short option, don't allow
; 329  : 		 * a partial match of a single character.
; 330  : 		 */
; 331  : 		if (short_too && current_argv_len == 1)

  00967	83 7d 18 00	 cmp	 DWORD PTR _short_too$[ebp], 0
  0096b	74 08		 je	 SHORT $LN27@parse_long
  0096d	83 7d f8 01	 cmp	 DWORD PTR _current_argv_len$[ebp], 1
  00971	75 02		 jne	 SHORT $LN27@parse_long

; 332  : 			continue;

  00973	eb 8a		 jmp	 SHORT $LN31@parse_long
$LN27@parse_long:

; 333  : 
; 334  : 		if (match == -1)	/* partial match */

  00975	83 7d ec ff	 cmp	 DWORD PTR _match$[ebp], -1
  00979	75 08		 jne	 SHORT $LN26@parse_long

; 335  : 			match = i;

  0097b	8b 45 f4	 mov	 eax, DWORD PTR _i$[ebp]
  0097e	89 45 ec	 mov	 DWORD PTR _match$[ebp], eax
  00981	eb 5b		 jmp	 SHORT $LN25@parse_long
$LN26@parse_long:

; 336  : 		else if (!IDENTICAL_INTERPRETATION(i, match))

  00983	8b 4d f4	 mov	 ecx, DWORD PTR _i$[ebp]
  00986	c1 e1 04	 shl	 ecx, 4
  00989	8b 55 ec	 mov	 edx, DWORD PTR _match$[ebp]
  0098c	c1 e2 04	 shl	 edx, 4
  0098f	8b 45 10	 mov	 eax, DWORD PTR _long_options$[ebp]
  00992	8b 75 10	 mov	 esi, DWORD PTR _long_options$[ebp]
  00995	8b 4c 08 04	 mov	 ecx, DWORD PTR [eax+ecx+4]
  00999	3b 4c 16 04	 cmp	 ecx, DWORD PTR [esi+edx+4]
  0099d	75 38		 jne	 SHORT $LN23@parse_long
  0099f	8b 55 f4	 mov	 edx, DWORD PTR _i$[ebp]
  009a2	c1 e2 04	 shl	 edx, 4
  009a5	8b 45 ec	 mov	 eax, DWORD PTR _match$[ebp]
  009a8	c1 e0 04	 shl	 eax, 4
  009ab	8b 4d 10	 mov	 ecx, DWORD PTR _long_options$[ebp]
  009ae	8b 75 10	 mov	 esi, DWORD PTR _long_options$[ebp]
  009b1	8b 54 11 08	 mov	 edx, DWORD PTR [ecx+edx+8]
  009b5	3b 54 06 08	 cmp	 edx, DWORD PTR [esi+eax+8]
  009b9	75 1c		 jne	 SHORT $LN23@parse_long
  009bb	8b 45 f4	 mov	 eax, DWORD PTR _i$[ebp]
  009be	c1 e0 04	 shl	 eax, 4
  009c1	8b 4d ec	 mov	 ecx, DWORD PTR _match$[ebp]
  009c4	c1 e1 04	 shl	 ecx, 4
  009c7	8b 55 10	 mov	 edx, DWORD PTR _long_options$[ebp]
  009ca	8b 75 10	 mov	 esi, DWORD PTR _long_options$[ebp]
  009cd	8b 44 02 0c	 mov	 eax, DWORD PTR [edx+eax+12]
  009d1	3b 44 0e 0c	 cmp	 eax, DWORD PTR [esi+ecx+12]
  009d5	74 07		 je	 SHORT $LN25@parse_long
$LN23@parse_long:

; 337  : 			ambiguous = 1;

  009d7	c7 45 f0 01 00
	00 00		 mov	 DWORD PTR _ambiguous$[ebp], 1
$LN25@parse_long:

; 338  : 	}

  009de	e9 1c ff ff ff	 jmp	 $LN31@parse_long
$LN30@parse_long:

; 339  : 	if (ambiguous) {

  009e3	83 7d f0 00	 cmp	 DWORD PTR _ambiguous$[ebp], 0
  009e7	74 3d		 je	 SHORT $LN22@parse_long

; 340  : 		/* ambiguous abbreviation */
; 341  : 		if (PRINT_ERROR)

  009e9	83 3d 00 00 00
	00 00		 cmp	 DWORD PTR _opterr, 0
  009f0	74 20		 je	 SHORT $LN21@parse_long
  009f2	8b 4d 0c	 mov	 ecx, DWORD PTR _options$[ebp]
  009f5	0f be 11	 movsx	 edx, BYTE PTR [ecx]
  009f8	83 fa 3a	 cmp	 edx, 58			; 0000003aH
  009fb	74 15		 je	 SHORT $LN21@parse_long

; 342  : 			warnx(ambig, (int)current_argv_len,
; 343  : 			     current_argv);

  009fd	8b 45 fc	 mov	 eax, DWORD PTR _current_argv$[ebp]
  00a00	50		 push	 eax
  00a01	8b 4d f8	 mov	 ecx, DWORD PTR _current_argv_len$[ebp]
  00a04	51		 push	 ecx
  00a05	68 00 00 00 00	 push	 OFFSET _ambig
  00a0a	e8 00 00 00 00	 call	 _warnx
  00a0f	83 c4 0c	 add	 esp, 12			; 0000000cH
$LN21@parse_long:

; 344  : 		optopt = 0;

  00a12	c7 05 00 00 00
	00 00 00 00 00	 mov	 DWORD PTR _optopt, 0

; 345  : 		return (BADCH);

  00a1c	b8 3f 00 00 00	 mov	 eax, 63			; 0000003fH
  00a21	e9 27 02 00 00	 jmp	 $LN35@parse_long
$LN22@parse_long:

; 346  : 	}
; 347  : 	if (match != -1) {		/* option found */

  00a26	83 7d ec ff	 cmp	 DWORD PTR _match$[ebp], -1
  00a2a	0f 84 7d 01 00
	00		 je	 $LN20@parse_long

; 348  : 		if (long_options[match].has_arg == no_argument
; 349  : 		    && has_equal) {

  00a30	8b 55 ec	 mov	 edx, DWORD PTR _match$[ebp]
  00a33	c1 e2 04	 shl	 edx, 4
  00a36	8b 45 10	 mov	 eax, DWORD PTR _long_options$[ebp]
  00a39	83 7c 10 04 00	 cmp	 DWORD PTR [eax+edx+4], 0
  00a3e	75 75		 jne	 SHORT $LN19@parse_long
  00a40	83 7d e8 00	 cmp	 DWORD PTR _has_equal$[ebp], 0
  00a44	74 6f		 je	 SHORT $LN19@parse_long

; 350  : 			if (PRINT_ERROR)

  00a46	83 3d 00 00 00
	00 00		 cmp	 DWORD PTR _opterr, 0
  00a4d	74 20		 je	 SHORT $LN18@parse_long
  00a4f	8b 4d 0c	 mov	 ecx, DWORD PTR _options$[ebp]
  00a52	0f be 11	 movsx	 edx, BYTE PTR [ecx]
  00a55	83 fa 3a	 cmp	 edx, 58			; 0000003aH
  00a58	74 15		 je	 SHORT $LN18@parse_long

; 351  : 				warnx(noarg, (int)current_argv_len,
; 352  : 				     current_argv);

  00a5a	8b 45 fc	 mov	 eax, DWORD PTR _current_argv$[ebp]
  00a5d	50		 push	 eax
  00a5e	8b 4d f8	 mov	 ecx, DWORD PTR _current_argv_len$[ebp]
  00a61	51		 push	 ecx
  00a62	68 00 00 00 00	 push	 OFFSET _noarg
  00a67	e8 00 00 00 00	 call	 _warnx
  00a6c	83 c4 0c	 add	 esp, 12			; 0000000cH
$LN18@parse_long:

; 353  : 			/*
; 354  : 			 * XXX: GNU sets optopt to val regardless of flag
; 355  : 			 */
; 356  : 			if (long_options[match].flag == NULL)

  00a6f	8b 55 ec	 mov	 edx, DWORD PTR _match$[ebp]
  00a72	c1 e2 04	 shl	 edx, 4
  00a75	8b 45 10	 mov	 eax, DWORD PTR _long_options$[ebp]
  00a78	83 7c 10 08 00	 cmp	 DWORD PTR [eax+edx+8], 0
  00a7d	75 14		 jne	 SHORT $LN17@parse_long

; 357  : 				optopt = long_options[match].val;

  00a7f	8b 4d ec	 mov	 ecx, DWORD PTR _match$[ebp]
  00a82	c1 e1 04	 shl	 ecx, 4
  00a85	8b 55 10	 mov	 edx, DWORD PTR _long_options$[ebp]
  00a88	8b 44 0a 0c	 mov	 eax, DWORD PTR [edx+ecx+12]
  00a8c	a3 00 00 00 00	 mov	 DWORD PTR _optopt, eax

; 358  : 			else

  00a91	eb 0a		 jmp	 SHORT $LN16@parse_long
$LN17@parse_long:

; 359  : 				optopt = 0;

  00a93	c7 05 00 00 00
	00 00 00 00 00	 mov	 DWORD PTR _optopt, 0
$LN16@parse_long:

; 360  : 			return (BADARG);

  00a9d	8b 4d 0c	 mov	 ecx, DWORD PTR _options$[ebp]
  00aa0	0f be 01	 movsx	 eax, BYTE PTR [ecx]
  00aa3	83 e8 3a	 sub	 eax, 58			; 0000003aH
  00aa6	f7 d8		 neg	 eax
  00aa8	1b c0		 sbb	 eax, eax
  00aaa	83 e0 05	 and	 eax, 5
  00aad	83 c0 3a	 add	 eax, 58			; 0000003aH
  00ab0	e9 98 01 00 00	 jmp	 $LN35@parse_long
$LN19@parse_long:

; 361  : 		}
; 362  : 		if (long_options[match].has_arg == required_argument ||
; 363  : 		    long_options[match].has_arg == optional_argument) {

  00ab5	8b 55 ec	 mov	 edx, DWORD PTR _match$[ebp]
  00ab8	c1 e2 04	 shl	 edx, 4
  00abb	8b 45 10	 mov	 eax, DWORD PTR _long_options$[ebp]
  00abe	83 7c 10 04 01	 cmp	 DWORD PTR [eax+edx+4], 1
  00ac3	74 10		 je	 SHORT $LN14@parse_long
  00ac5	8b 4d ec	 mov	 ecx, DWORD PTR _match$[ebp]
  00ac8	c1 e1 04	 shl	 ecx, 4
  00acb	8b 55 10	 mov	 edx, DWORD PTR _long_options$[ebp]
  00ace	83 7c 0a 04 02	 cmp	 DWORD PTR [edx+ecx+4], 2
  00ad3	75 3e		 jne	 SHORT $LN15@parse_long
$LN14@parse_long:

; 364  : 			if (has_equal)

  00ad5	83 7d e8 00	 cmp	 DWORD PTR _has_equal$[ebp], 0
  00ad9	74 0a		 je	 SHORT $LN13@parse_long

; 365  : 				optarg = has_equal;

  00adb	8b 45 e8	 mov	 eax, DWORD PTR _has_equal$[ebp]
  00ade	a3 00 00 00 00	 mov	 DWORD PTR _optarg, eax

; 366  : 			else if (long_options[match].has_arg ==

  00ae3	eb 2e		 jmp	 SHORT $LN15@parse_long
$LN13@parse_long:

; 367  : 			    required_argument) {

  00ae5	8b 4d ec	 mov	 ecx, DWORD PTR _match$[ebp]
  00ae8	c1 e1 04	 shl	 ecx, 4
  00aeb	8b 55 10	 mov	 edx, DWORD PTR _long_options$[ebp]
  00aee	83 7c 0a 04 01	 cmp	 DWORD PTR [edx+ecx+4], 1
  00af3	75 1e		 jne	 SHORT $LN15@parse_long

; 368  : 				/*
; 369  : 				 * optional argument doesn't use next nargv
; 370  : 				 */
; 371  : 				optarg = nargv[optind++];

  00af5	a1 00 00 00 00	 mov	 eax, DWORD PTR _optind
  00afa	8b 4d 08	 mov	 ecx, DWORD PTR _nargv$[ebp]
  00afd	8b 14 81	 mov	 edx, DWORD PTR [ecx+eax*4]
  00b00	89 15 00 00 00
	00		 mov	 DWORD PTR _optarg, edx
  00b06	a1 00 00 00 00	 mov	 eax, DWORD PTR _optind
  00b0b	83 c0 01	 add	 eax, 1
  00b0e	a3 00 00 00 00	 mov	 DWORD PTR _optind, eax
$LN15@parse_long:

; 372  : 			}
; 373  : 		}
; 374  : 		if ((long_options[match].has_arg == required_argument)
; 375  : 		    && (optarg == NULL)) {

  00b13	8b 4d ec	 mov	 ecx, DWORD PTR _match$[ebp]
  00b16	c1 e1 04	 shl	 ecx, 4
  00b19	8b 55 10	 mov	 edx, DWORD PTR _long_options$[ebp]
  00b1c	83 7c 0a 04 01	 cmp	 DWORD PTR [edx+ecx+4], 1
  00b21	0f 85 84 00 00
	00		 jne	 $LN10@parse_long
  00b27	83 3d 00 00 00
	00 00		 cmp	 DWORD PTR _optarg, 0
  00b2e	75 7b		 jne	 SHORT $LN10@parse_long

; 376  : 			/*
; 377  : 			 * Missing argument; leading ':' indicates no error
; 378  : 			 * should be generated.
; 379  : 			 */
; 380  : 			if (PRINT_ERROR)

  00b30	83 3d 00 00 00
	00 00		 cmp	 DWORD PTR _opterr, 0
  00b37	74 1c		 je	 SHORT $LN9@parse_long
  00b39	8b 45 0c	 mov	 eax, DWORD PTR _options$[ebp]
  00b3c	0f be 08	 movsx	 ecx, BYTE PTR [eax]
  00b3f	83 f9 3a	 cmp	 ecx, 58			; 0000003aH
  00b42	74 11		 je	 SHORT $LN9@parse_long

; 381  : 				warnx(recargstring,
; 382  : 				    current_argv);

  00b44	8b 55 fc	 mov	 edx, DWORD PTR _current_argv$[ebp]
  00b47	52		 push	 edx
  00b48	68 00 00 00 00	 push	 OFFSET _recargstring
  00b4d	e8 00 00 00 00	 call	 _warnx
  00b52	83 c4 08	 add	 esp, 8
$LN9@parse_long:

; 383  : 			/*
; 384  : 			 * XXX: GNU sets optopt to val regardless of flag
; 385  : 			 */
; 386  : 			if (long_options[match].flag == NULL)

  00b55	8b 45 ec	 mov	 eax, DWORD PTR _match$[ebp]
  00b58	c1 e0 04	 shl	 eax, 4
  00b5b	8b 4d 10	 mov	 ecx, DWORD PTR _long_options$[ebp]
  00b5e	83 7c 01 08 00	 cmp	 DWORD PTR [ecx+eax+8], 0
  00b63	75 15		 jne	 SHORT $LN8@parse_long

; 387  : 				optopt = long_options[match].val;

  00b65	8b 55 ec	 mov	 edx, DWORD PTR _match$[ebp]
  00b68	c1 e2 04	 shl	 edx, 4
  00b6b	8b 45 10	 mov	 eax, DWORD PTR _long_options$[ebp]
  00b6e	8b 4c 10 0c	 mov	 ecx, DWORD PTR [eax+edx+12]
  00b72	89 0d 00 00 00
	00		 mov	 DWORD PTR _optopt, ecx

; 388  : 			else

  00b78	eb 0a		 jmp	 SHORT $LN7@parse_long
$LN8@parse_long:

; 389  : 				optopt = 0;

  00b7a	c7 05 00 00 00
	00 00 00 00 00	 mov	 DWORD PTR _optopt, 0
$LN7@parse_long:

; 390  : 			--optind;

  00b84	8b 15 00 00 00
	00		 mov	 edx, DWORD PTR _optind
  00b8a	83 ea 01	 sub	 edx, 1
  00b8d	89 15 00 00 00
	00		 mov	 DWORD PTR _optind, edx

; 391  : 			return (BADARG);

  00b93	8b 45 0c	 mov	 eax, DWORD PTR _options$[ebp]
  00b96	0f be 00	 movsx	 eax, BYTE PTR [eax]
  00b99	83 e8 3a	 sub	 eax, 58			; 0000003aH
  00b9c	f7 d8		 neg	 eax
  00b9e	1b c0		 sbb	 eax, eax
  00ba0	83 e0 05	 and	 eax, 5
  00ba3	83 c0 3a	 add	 eax, 58			; 0000003aH
  00ba6	e9 a2 00 00 00	 jmp	 $LN35@parse_long
$LN10@parse_long:

; 392  : 		}
; 393  : 	} else {			/* unknown option */

  00bab	eb 53		 jmp	 SHORT $LN6@parse_long
$LN20@parse_long:

; 394  : 		if (short_too) {

  00bad	83 7d 18 00	 cmp	 DWORD PTR _short_too$[ebp], 0
  00bb1	74 17		 je	 SHORT $LN5@parse_long

; 395  : 			--optind;

  00bb3	8b 0d 00 00 00
	00		 mov	 ecx, DWORD PTR _optind
  00bb9	83 e9 01	 sub	 ecx, 1
  00bbc	89 0d 00 00 00
	00		 mov	 DWORD PTR _optind, ecx

; 396  : 			return (-1);

  00bc2	83 c8 ff	 or	 eax, -1
  00bc5	e9 83 00 00 00	 jmp	 $LN35@parse_long
$LN5@parse_long:

; 397  : 		}
; 398  : 		if (PRINT_ERROR)

  00bca	83 3d 00 00 00
	00 00		 cmp	 DWORD PTR _opterr, 0
  00bd1	74 1c		 je	 SHORT $LN4@parse_long
  00bd3	8b 55 0c	 mov	 edx, DWORD PTR _options$[ebp]
  00bd6	0f be 02	 movsx	 eax, BYTE PTR [edx]
  00bd9	83 f8 3a	 cmp	 eax, 58			; 0000003aH
  00bdc	74 11		 je	 SHORT $LN4@parse_long

; 399  : 			warnx(illoptstring, current_argv);

  00bde	8b 4d fc	 mov	 ecx, DWORD PTR _current_argv$[ebp]
  00be1	51		 push	 ecx
  00be2	68 00 00 00 00	 push	 OFFSET _illoptstring
  00be7	e8 00 00 00 00	 call	 _warnx
  00bec	83 c4 08	 add	 esp, 8
$LN4@parse_long:

; 400  : 		optopt = 0;

  00bef	c7 05 00 00 00
	00 00 00 00 00	 mov	 DWORD PTR _optopt, 0

; 401  : 		return (BADCH);

  00bf9	b8 3f 00 00 00	 mov	 eax, 63			; 0000003fH
  00bfe	eb 4d		 jmp	 SHORT $LN35@parse_long
$LN6@parse_long:

; 402  : 	}
; 403  : 	if (idx)

  00c00	83 7d 14 00	 cmp	 DWORD PTR _idx$[ebp], 0
  00c04	74 08		 je	 SHORT $LN3@parse_long

; 404  : 		*idx = match;

  00c06	8b 55 14	 mov	 edx, DWORD PTR _idx$[ebp]
  00c09	8b 45 ec	 mov	 eax, DWORD PTR _match$[ebp]
  00c0c	89 02		 mov	 DWORD PTR [edx], eax
$LN3@parse_long:

; 405  : 	if (long_options[match].flag) {

  00c0e	8b 4d ec	 mov	 ecx, DWORD PTR _match$[ebp]
  00c11	c1 e1 04	 shl	 ecx, 4
  00c14	8b 55 10	 mov	 edx, DWORD PTR _long_options$[ebp]
  00c17	83 7c 0a 08 00	 cmp	 DWORD PTR [edx+ecx+8], 0
  00c1c	74 22		 je	 SHORT $LN2@parse_long

; 406  : 		*long_options[match].flag = long_options[match].val;

  00c1e	8b 45 ec	 mov	 eax, DWORD PTR _match$[ebp]
  00c21	c1 e0 04	 shl	 eax, 4
  00c24	8b 4d ec	 mov	 ecx, DWORD PTR _match$[ebp]
  00c27	c1 e1 04	 shl	 ecx, 4
  00c2a	8b 55 10	 mov	 edx, DWORD PTR _long_options$[ebp]
  00c2d	8b 4c 0a 08	 mov	 ecx, DWORD PTR [edx+ecx+8]
  00c31	8b 55 10	 mov	 edx, DWORD PTR _long_options$[ebp]
  00c34	8b 44 02 0c	 mov	 eax, DWORD PTR [edx+eax+12]
  00c38	89 01		 mov	 DWORD PTR [ecx], eax

; 407  : 		return (0);

  00c3a	33 c0		 xor	 eax, eax
  00c3c	eb 0f		 jmp	 SHORT $LN35@parse_long

; 408  : 	} else

  00c3e	eb 0d		 jmp	 SHORT $LN35@parse_long
$LN2@parse_long:

; 409  : 		return (long_options[match].val);

  00c40	8b 4d ec	 mov	 ecx, DWORD PTR _match$[ebp]
  00c43	c1 e1 04	 shl	 ecx, 4
  00c46	8b 55 10	 mov	 edx, DWORD PTR _long_options$[ebp]
  00c49	8b 44 0a 0c	 mov	 eax, DWORD PTR [edx+ecx+12]
$LN35@parse_long:

; 410  : #undef IDENTICAL_INTERPRETATION
; 411  : }

  00c4d	5e		 pop	 esi
  00c4e	8b e5		 mov	 esp, ebp
  00c50	5d		 pop	 ebp
  00c51	c3		 ret	 0
_parse_long_options ENDP
_TEXT	ENDS
PUBLIC	_getopt_long
; Function compile flags: /Odtp
_TEXT	SEGMENT
_nargc$ = 8						; size = 4
_nargv$ = 12						; size = 4
_options$ = 16						; size = 4
_long_options$ = 20					; size = 4
_idx$ = 24						; size = 4
_getopt_long PROC

; 617  : {

  00c60	55		 push	 ebp
  00c61	8b ec		 mov	 ebp, esp

; 618  : 
; 619  : 	return (getopt_internal(nargc, nargv, options, long_options, idx,
; 620  : 	    FLAG_PERMUTE));

  00c63	6a 01		 push	 1
  00c65	8b 45 18	 mov	 eax, DWORD PTR _idx$[ebp]
  00c68	50		 push	 eax
  00c69	8b 4d 14	 mov	 ecx, DWORD PTR _long_options$[ebp]
  00c6c	51		 push	 ecx
  00c6d	8b 55 10	 mov	 edx, DWORD PTR _options$[ebp]
  00c70	52		 push	 edx
  00c71	8b 45 0c	 mov	 eax, DWORD PTR _nargv$[ebp]
  00c74	50		 push	 eax
  00c75	8b 4d 08	 mov	 ecx, DWORD PTR _nargc$[ebp]
  00c78	51		 push	 ecx
  00c79	e8 00 00 00 00	 call	 _getopt_internal
  00c7e	83 c4 18	 add	 esp, 24			; 00000018H

; 621  : }

  00c81	5d		 pop	 ebp
  00c82	c3		 ret	 0
_getopt_long ENDP
_TEXT	ENDS
PUBLIC	_getopt_long_only
; Function compile flags: /Odtp
_TEXT	SEGMENT
_nargc$ = 8						; size = 4
_nargv$ = 12						; size = 4
_options$ = 16						; size = 4
_long_options$ = 20					; size = 4
_idx$ = 24						; size = 4
_getopt_long_only PROC

; 630  : {

  00c90	55		 push	 ebp
  00c91	8b ec		 mov	 ebp, esp

; 631  : 
; 632  : 	return (getopt_internal(nargc, nargv, options, long_options, idx,
; 633  : 	    FLAG_PERMUTE|FLAG_LONGONLY));

  00c93	6a 05		 push	 5
  00c95	8b 45 18	 mov	 eax, DWORD PTR _idx$[ebp]
  00c98	50		 push	 eax
  00c99	8b 4d 14	 mov	 ecx, DWORD PTR _long_options$[ebp]
  00c9c	51		 push	 ecx
  00c9d	8b 55 10	 mov	 edx, DWORD PTR _options$[ebp]
  00ca0	52		 push	 edx
  00ca1	8b 45 0c	 mov	 eax, DWORD PTR _nargv$[ebp]
  00ca4	50		 push	 eax
  00ca5	8b 4d 08	 mov	 ecx, DWORD PTR _nargc$[ebp]
  00ca8	51		 push	 ecx
  00ca9	e8 00 00 00 00	 call	 _getopt_internal
  00cae	83 c4 18	 add	 esp, 24			; 00000018H

; 634  : }

  00cb1	5d		 pop	 ebp
  00cb2	c3		 ret	 0
_getopt_long_only ENDP
_TEXT	ENDS
_BSS	SEGMENT
_stk	DD	01H DUP (?)
; Function compile flags: /Odtp
; File c:\a15\facultate\forth\atlast-2.0\atlast.c
_BSS	ENDS
_TEXT	SEGMENT
_P_plus	PROC

; 587  : {

  00cc0	55		 push	 ebp
  00cc1	8b ec		 mov	 ebp, esp

; 588  :     Sl(2);

  00cc3	a1 00 00 00 00	 mov	 eax, DWORD PTR _stk
  00cc8	2b 05 00 00 00
	00		 sub	 eax, DWORD PTR _stack
  00cce	c1 f8 03	 sar	 eax, 3
  00cd1	83 f8 02	 cmp	 eax, 2
  00cd4	7d 07		 jge	 SHORT $LN1@P_plus
  00cd6	e8 00 00 00 00	 call	 _stakunder
  00cdb	eb 31		 jmp	 SHORT $LN2@P_plus
$LN1@P_plus:

; 589  : /* printf("PLUS %lx + %lx = %lx\n", S1, S0, (S1 + S0)); */
; 590  :     S1 += S0;

  00cdd	8b 0d 00 00 00
	00		 mov	 ecx, DWORD PTR _stk
  00ce3	8b 15 00 00 00
	00		 mov	 edx, DWORD PTR _stk
  00ce9	8b 41 f0	 mov	 eax, DWORD PTR [ecx-16]
  00cec	03 42 f8	 add	 eax, DWORD PTR [edx-8]
  00cef	8b 49 f4	 mov	 ecx, DWORD PTR [ecx-12]
  00cf2	13 4a fc	 adc	 ecx, DWORD PTR [edx-4]
  00cf5	8b 15 00 00 00
	00		 mov	 edx, DWORD PTR _stk
  00cfb	89 42 f0	 mov	 DWORD PTR [edx-16], eax
  00cfe	89 4a f4	 mov	 DWORD PTR [edx-12], ecx

; 591  :     Pop;

  00d01	a1 00 00 00 00	 mov	 eax, DWORD PTR _stk
  00d06	83 e8 08	 sub	 eax, 8
  00d09	a3 00 00 00 00	 mov	 DWORD PTR _stk, eax
$LN2@P_plus:

; 592  : }

  00d0e	5d		 pop	 ebp
  00d0f	c3		 ret	 0
_P_plus	ENDP
; Function compile flags: /Odtp
_P_minus PROC

; 595  : {

  00d10	55		 push	 ebp
  00d11	8b ec		 mov	 ebp, esp

; 596  :     Sl(2);

  00d13	a1 00 00 00 00	 mov	 eax, DWORD PTR _stk
  00d18	2b 05 00 00 00
	00		 sub	 eax, DWORD PTR _stack
  00d1e	c1 f8 03	 sar	 eax, 3
  00d21	83 f8 02	 cmp	 eax, 2
  00d24	7d 07		 jge	 SHORT $LN1@P_minus
  00d26	e8 00 00 00 00	 call	 _stakunder
  00d2b	eb 31		 jmp	 SHORT $LN2@P_minus
$LN1@P_minus:

; 597  :     S1 -= S0;

  00d2d	8b 0d 00 00 00
	00		 mov	 ecx, DWORD PTR _stk
  00d33	8b 15 00 00 00
	00		 mov	 edx, DWORD PTR _stk
  00d39	8b 41 f0	 mov	 eax, DWORD PTR [ecx-16]
  00d3c	2b 42 f8	 sub	 eax, DWORD PTR [edx-8]
  00d3f	8b 49 f4	 mov	 ecx, DWORD PTR [ecx-12]
  00d42	1b 4a fc	 sbb	 ecx, DWORD PTR [edx-4]
  00d45	8b 15 00 00 00
	00		 mov	 edx, DWORD PTR _stk
  00d4b	89 42 f0	 mov	 DWORD PTR [edx-16], eax
  00d4e	89 4a f4	 mov	 DWORD PTR [edx-12], ecx

; 598  :     Pop;

  00d51	a1 00 00 00 00	 mov	 eax, DWORD PTR _stk
  00d56	83 e8 08	 sub	 eax, 8
  00d59	a3 00 00 00 00	 mov	 DWORD PTR _stk, eax
$LN2@P_minus:

; 599  : }

  00d5e	5d		 pop	 ebp
  00d5f	c3		 ret	 0
_P_minus ENDP
_TEXT	ENDS
EXTRN	__allmul:PROC
; Function compile flags: /Odtp
_TEXT	SEGMENT
_P_times PROC

; 602  : {

  00d60	55		 push	 ebp
  00d61	8b ec		 mov	 ebp, esp

; 603  :     Sl(2);

  00d63	a1 00 00 00 00	 mov	 eax, DWORD PTR _stk
  00d68	2b 05 00 00 00
	00		 sub	 eax, DWORD PTR _stack
  00d6e	c1 f8 03	 sar	 eax, 3
  00d71	83 f8 02	 cmp	 eax, 2
  00d74	7d 07		 jge	 SHORT $LN1@P_times
  00d76	e8 00 00 00 00	 call	 _stakunder
  00d7b	eb 3c		 jmp	 SHORT $LN2@P_times
$LN1@P_times:

; 604  :     S1 *= S0;

  00d7d	8b 0d 00 00 00
	00		 mov	 ecx, DWORD PTR _stk
  00d83	8b 15 00 00 00
	00		 mov	 edx, DWORD PTR _stk
  00d89	8b 42 fc	 mov	 eax, DWORD PTR [edx-4]
  00d8c	50		 push	 eax
  00d8d	8b 52 f8	 mov	 edx, DWORD PTR [edx-8]
  00d90	52		 push	 edx
  00d91	8b 41 f4	 mov	 eax, DWORD PTR [ecx-12]
  00d94	50		 push	 eax
  00d95	8b 49 f0	 mov	 ecx, DWORD PTR [ecx-16]
  00d98	51		 push	 ecx
  00d99	e8 00 00 00 00	 call	 __allmul
  00d9e	8b 0d 00 00 00
	00		 mov	 ecx, DWORD PTR _stk
  00da4	89 41 f0	 mov	 DWORD PTR [ecx-16], eax
  00da7	89 51 f4	 mov	 DWORD PTR [ecx-12], edx

; 605  :     Pop;

  00daa	8b 15 00 00 00
	00		 mov	 edx, DWORD PTR _stk
  00db0	83 ea 08	 sub	 edx, 8
  00db3	89 15 00 00 00
	00		 mov	 DWORD PTR _stk, edx
$LN2@P_times:

; 606  : }

  00db9	5d		 pop	 ebp
  00dba	c3		 ret	 0
_P_times ENDP
_TEXT	ENDS
EXTRN	__alldiv:PROC
; Function compile flags: /Odtp
_TEXT	SEGMENT
tv76 = -4						; size = 4
_P_div	PROC

; 609  : {

  00dc0	55		 push	 ebp
  00dc1	8b ec		 mov	 ebp, esp
  00dc3	51		 push	 ecx

; 610  :     Sl(2);

  00dc4	a1 00 00 00 00	 mov	 eax, DWORD PTR _stk
  00dc9	2b 05 00 00 00
	00		 sub	 eax, DWORD PTR _stack
  00dcf	c1 f8 03	 sar	 eax, 3
  00dd2	83 f8 02	 cmp	 eax, 2
  00dd5	7d 07		 jge	 SHORT $LN2@P_div
  00dd7	e8 00 00 00 00	 call	 _stakunder
  00ddc	eb 59		 jmp	 SHORT $LN3@P_div
$LN2@P_div:

; 611  : #ifndef NOMEMCHECK
; 612  :     if (S0 == 0) {

  00dde	8b 0d 00 00 00
	00		 mov	 ecx, DWORD PTR _stk
  00de4	89 4d fc	 mov	 DWORD PTR tv76[ebp], ecx
  00de7	8b 55 fc	 mov	 edx, DWORD PTR tv76[ebp]
  00dea	8b 45 fc	 mov	 eax, DWORD PTR tv76[ebp]
  00ded	8b 4a f8	 mov	 ecx, DWORD PTR [edx-8]
  00df0	0b 48 fc	 or	 ecx, DWORD PTR [eax-4]
  00df3	75 07		 jne	 SHORT $LN1@P_div

; 613  : 	divzero();

  00df5	e8 00 00 00 00	 call	 _divzero

; 614  : 	return;

  00dfa	eb 3b		 jmp	 SHORT $LN3@P_div
$LN1@P_div:

; 615  :     }
; 616  : #endif /* NOMEMCHECK */
; 617  :     S1 /= S0;

  00dfc	8b 15 00 00 00
	00		 mov	 edx, DWORD PTR _stk
  00e02	a1 00 00 00 00	 mov	 eax, DWORD PTR _stk
  00e07	8b 48 fc	 mov	 ecx, DWORD PTR [eax-4]
  00e0a	51		 push	 ecx
  00e0b	8b 40 f8	 mov	 eax, DWORD PTR [eax-8]
  00e0e	50		 push	 eax
  00e0f	8b 4a f4	 mov	 ecx, DWORD PTR [edx-12]
  00e12	51		 push	 ecx
  00e13	8b 52 f0	 mov	 edx, DWORD PTR [edx-16]
  00e16	52		 push	 edx
  00e17	e8 00 00 00 00	 call	 __alldiv
  00e1c	8b 0d 00 00 00
	00		 mov	 ecx, DWORD PTR _stk
  00e22	89 41 f0	 mov	 DWORD PTR [ecx-16], eax
  00e25	89 51 f4	 mov	 DWORD PTR [ecx-12], edx

; 618  :     Pop;

  00e28	8b 15 00 00 00
	00		 mov	 edx, DWORD PTR _stk
  00e2e	83 ea 08	 sub	 edx, 8
  00e31	89 15 00 00 00
	00		 mov	 DWORD PTR _stk, edx
$LN3@P_div:

; 619  : }

  00e37	8b e5		 mov	 esp, ebp
  00e39	5d		 pop	 ebp
  00e3a	c3		 ret	 0
_P_div	ENDP
_TEXT	ENDS
EXTRN	__allrem:PROC
; Function compile flags: /Odtp
_TEXT	SEGMENT
tv76 = -4						; size = 4
_P_mod	PROC

; 622  : {

  00e40	55		 push	 ebp
  00e41	8b ec		 mov	 ebp, esp
  00e43	51		 push	 ecx

; 623  :     Sl(2);

  00e44	a1 00 00 00 00	 mov	 eax, DWORD PTR _stk
  00e49	2b 05 00 00 00
	00		 sub	 eax, DWORD PTR _stack
  00e4f	c1 f8 03	 sar	 eax, 3
  00e52	83 f8 02	 cmp	 eax, 2
  00e55	7d 07		 jge	 SHORT $LN2@P_mod
  00e57	e8 00 00 00 00	 call	 _stakunder
  00e5c	eb 59		 jmp	 SHORT $LN3@P_mod
$LN2@P_mod:

; 624  : #ifndef NOMEMCHECK
; 625  :     if (S0 == 0) {

  00e5e	8b 0d 00 00 00
	00		 mov	 ecx, DWORD PTR _stk
  00e64	89 4d fc	 mov	 DWORD PTR tv76[ebp], ecx
  00e67	8b 55 fc	 mov	 edx, DWORD PTR tv76[ebp]
  00e6a	8b 45 fc	 mov	 eax, DWORD PTR tv76[ebp]
  00e6d	8b 4a f8	 mov	 ecx, DWORD PTR [edx-8]
  00e70	0b 48 fc	 or	 ecx, DWORD PTR [eax-4]
  00e73	75 07		 jne	 SHORT $LN1@P_mod

; 626  : 	divzero();

  00e75	e8 00 00 00 00	 call	 _divzero

; 627  : 	return;

  00e7a	eb 3b		 jmp	 SHORT $LN3@P_mod
$LN1@P_mod:

; 628  :     }
; 629  : #endif /* NOMEMCHECK */
; 630  :     S1 %= S0;

  00e7c	8b 15 00 00 00
	00		 mov	 edx, DWORD PTR _stk
  00e82	a1 00 00 00 00	 mov	 eax, DWORD PTR _stk
  00e87	8b 48 fc	 mov	 ecx, DWORD PTR [eax-4]
  00e8a	51		 push	 ecx
  00e8b	8b 40 f8	 mov	 eax, DWORD PTR [eax-8]
  00e8e	50		 push	 eax
  00e8f	8b 4a f4	 mov	 ecx, DWORD PTR [edx-12]
  00e92	51		 push	 ecx
  00e93	8b 52 f0	 mov	 edx, DWORD PTR [edx-16]
  00e96	52		 push	 edx
  00e97	e8 00 00 00 00	 call	 __allrem
  00e9c	8b 0d 00 00 00
	00		 mov	 ecx, DWORD PTR _stk
  00ea2	89 41 f0	 mov	 DWORD PTR [ecx-16], eax
  00ea5	89 51 f4	 mov	 DWORD PTR [ecx-12], edx

; 631  :     Pop;

  00ea8	8b 15 00 00 00
	00		 mov	 edx, DWORD PTR _stk
  00eae	83 ea 08	 sub	 edx, 8
  00eb1	89 15 00 00 00
	00		 mov	 DWORD PTR _stk, edx
$LN3@P_mod:

; 632  : }

  00eb7	8b e5		 mov	 esp, ebp
  00eb9	5d		 pop	 ebp
  00eba	c3		 ret	 0
_P_mod	ENDP
; Function compile flags: /Odtp
tv79 = -12						; size = 4
_quot$ = -8						; size = 8
_P_divmod PROC

; 635  : {

  00ec0	55		 push	 ebp
  00ec1	8b ec		 mov	 ebp, esp
  00ec3	83 ec 0c	 sub	 esp, 12			; 0000000cH

; 636  :     stackitem quot;
; 637  : 
; 638  :     Sl(2);

  00ec6	a1 00 00 00 00	 mov	 eax, DWORD PTR _stk
  00ecb	2b 05 00 00 00
	00		 sub	 eax, DWORD PTR _stack
  00ed1	c1 f8 03	 sar	 eax, 3
  00ed4	83 f8 02	 cmp	 eax, 2
  00ed7	7d 0a		 jge	 SHORT $LN2@P_divmod
  00ed9	e8 00 00 00 00	 call	 _stakunder
  00ede	e9 82 00 00 00	 jmp	 $LN3@P_divmod
$LN2@P_divmod:

; 639  : #ifndef NOMEMCHECK
; 640  :     if (S0 == 0) {

  00ee3	8b 0d 00 00 00
	00		 mov	 ecx, DWORD PTR _stk
  00ee9	89 4d f4	 mov	 DWORD PTR tv79[ebp], ecx
  00eec	8b 55 f4	 mov	 edx, DWORD PTR tv79[ebp]
  00eef	8b 45 f4	 mov	 eax, DWORD PTR tv79[ebp]
  00ef2	8b 4a f8	 mov	 ecx, DWORD PTR [edx-8]
  00ef5	0b 48 fc	 or	 ecx, DWORD PTR [eax-4]
  00ef8	75 07		 jne	 SHORT $LN1@P_divmod

; 641  : 	divzero();

  00efa	e8 00 00 00 00	 call	 _divzero

; 642  : 	return;

  00eff	eb 64		 jmp	 SHORT $LN3@P_divmod
$LN1@P_divmod:

; 643  :     }
; 644  : #endif /* NOMEMCHECK */
; 645  :     quot = S1 / S0;

  00f01	8b 15 00 00 00
	00		 mov	 edx, DWORD PTR _stk
  00f07	a1 00 00 00 00	 mov	 eax, DWORD PTR _stk
  00f0c	8b 48 fc	 mov	 ecx, DWORD PTR [eax-4]
  00f0f	51		 push	 ecx
  00f10	8b 40 f8	 mov	 eax, DWORD PTR [eax-8]
  00f13	50		 push	 eax
  00f14	8b 4a f4	 mov	 ecx, DWORD PTR [edx-12]
  00f17	51		 push	 ecx
  00f18	8b 52 f0	 mov	 edx, DWORD PTR [edx-16]
  00f1b	52		 push	 edx
  00f1c	e8 00 00 00 00	 call	 __alldiv
  00f21	89 45 f8	 mov	 DWORD PTR _quot$[ebp], eax
  00f24	89 55 fc	 mov	 DWORD PTR _quot$[ebp+4], edx

; 646  :     S1 %= S0;

  00f27	a1 00 00 00 00	 mov	 eax, DWORD PTR _stk
  00f2c	8b 0d 00 00 00
	00		 mov	 ecx, DWORD PTR _stk
  00f32	8b 51 fc	 mov	 edx, DWORD PTR [ecx-4]
  00f35	52		 push	 edx
  00f36	8b 49 f8	 mov	 ecx, DWORD PTR [ecx-8]
  00f39	51		 push	 ecx
  00f3a	8b 50 f4	 mov	 edx, DWORD PTR [eax-12]
  00f3d	52		 push	 edx
  00f3e	8b 40 f0	 mov	 eax, DWORD PTR [eax-16]
  00f41	50		 push	 eax
  00f42	e8 00 00 00 00	 call	 __allrem
  00f47	8b 0d 00 00 00
	00		 mov	 ecx, DWORD PTR _stk
  00f4d	89 41 f0	 mov	 DWORD PTR [ecx-16], eax
  00f50	89 51 f4	 mov	 DWORD PTR [ecx-12], edx

; 647  :     S0 = quot;

  00f53	8b 15 00 00 00
	00		 mov	 edx, DWORD PTR _stk
  00f59	8b 45 f8	 mov	 eax, DWORD PTR _quot$[ebp]
  00f5c	89 42 f8	 mov	 DWORD PTR [edx-8], eax
  00f5f	8b 4d fc	 mov	 ecx, DWORD PTR _quot$[ebp+4]
  00f62	89 4a fc	 mov	 DWORD PTR [edx-4], ecx
$LN3@P_divmod:

; 648  : }

  00f65	8b e5		 mov	 esp, ebp
  00f67	5d		 pop	 ebp
  00f68	c3		 ret	 0
_P_divmod ENDP
; Function compile flags: /Odtp
tv73 = -16						; size = 8
tv79 = -8						; size = 4
tv78 = -4						; size = 4
_P_min	PROC

; 651  : {

  00f70	55		 push	 ebp
  00f71	8b ec		 mov	 ebp, esp
  00f73	83 ec 10	 sub	 esp, 16			; 00000010H

; 652  :     Sl(2);

  00f76	a1 00 00 00 00	 mov	 eax, DWORD PTR _stk
  00f7b	2b 05 00 00 00
	00		 sub	 eax, DWORD PTR _stack
  00f81	c1 f8 03	 sar	 eax, 3
  00f84	83 f8 02	 cmp	 eax, 2
  00f87	7d 07		 jge	 SHORT $LN1@P_min
  00f89	e8 00 00 00 00	 call	 _stakunder
  00f8e	eb 72		 jmp	 SHORT $LN2@P_min
$LN1@P_min:

; 653  :     S1 = min(S1, S0);

  00f90	8b 0d 00 00 00
	00		 mov	 ecx, DWORD PTR _stk
  00f96	8b 15 00 00 00
	00		 mov	 edx, DWORD PTR _stk
  00f9c	89 4d fc	 mov	 DWORD PTR tv78[ebp], ecx
  00f9f	89 55 f8	 mov	 DWORD PTR tv79[ebp], edx
  00fa2	8b 45 fc	 mov	 eax, DWORD PTR tv78[ebp]
  00fa5	8b 4d f8	 mov	 ecx, DWORD PTR tv79[ebp]
  00fa8	8b 50 f4	 mov	 edx, DWORD PTR [eax-12]
  00fab	3b 51 fc	 cmp	 edx, DWORD PTR [ecx-4]
  00fae	7f 23		 jg	 SHORT $LN4@P_min
  00fb0	7c 0e		 jl	 SHORT $LN6@P_min
  00fb2	8b 45 fc	 mov	 eax, DWORD PTR tv78[ebp]
  00fb5	8b 4d f8	 mov	 ecx, DWORD PTR tv79[ebp]
  00fb8	8b 50 f0	 mov	 edx, DWORD PTR [eax-16]
  00fbb	3b 51 f8	 cmp	 edx, DWORD PTR [ecx-8]
  00fbe	77 13		 ja	 SHORT $LN4@P_min
$LN6@P_min:
  00fc0	a1 00 00 00 00	 mov	 eax, DWORD PTR _stk
  00fc5	8b 48 f0	 mov	 ecx, DWORD PTR [eax-16]
  00fc8	89 4d f0	 mov	 DWORD PTR tv73[ebp], ecx
  00fcb	8b 50 f4	 mov	 edx, DWORD PTR [eax-12]
  00fce	89 55 f4	 mov	 DWORD PTR tv73[ebp+4], edx
  00fd1	eb 11		 jmp	 SHORT $LN5@P_min
$LN4@P_min:
  00fd3	a1 00 00 00 00	 mov	 eax, DWORD PTR _stk
  00fd8	8b 48 f8	 mov	 ecx, DWORD PTR [eax-8]
  00fdb	89 4d f0	 mov	 DWORD PTR tv73[ebp], ecx
  00fde	8b 50 fc	 mov	 edx, DWORD PTR [eax-4]
  00fe1	89 55 f4	 mov	 DWORD PTR tv73[ebp+4], edx
$LN5@P_min:
  00fe4	a1 00 00 00 00	 mov	 eax, DWORD PTR _stk
  00fe9	8b 4d f0	 mov	 ecx, DWORD PTR tv73[ebp]
  00fec	89 48 f0	 mov	 DWORD PTR [eax-16], ecx
  00fef	8b 55 f4	 mov	 edx, DWORD PTR tv73[ebp+4]
  00ff2	89 50 f4	 mov	 DWORD PTR [eax-12], edx

; 654  :     Pop;

  00ff5	a1 00 00 00 00	 mov	 eax, DWORD PTR _stk
  00ffa	83 e8 08	 sub	 eax, 8
  00ffd	a3 00 00 00 00	 mov	 DWORD PTR _stk, eax
$LN2@P_min:

; 655  : }

  01002	8b e5		 mov	 esp, ebp
  01004	5d		 pop	 ebp
  01005	c3		 ret	 0
_P_min	ENDP
; Function compile flags: /Odtp
tv73 = -16						; size = 8
tv79 = -8						; size = 4
tv78 = -4						; size = 4
_P_max	PROC

; 658  : {

  01010	55		 push	 ebp
  01011	8b ec		 mov	 ebp, esp
  01013	83 ec 10	 sub	 esp, 16			; 00000010H

; 659  :     Sl(2);

  01016	a1 00 00 00 00	 mov	 eax, DWORD PTR _stk
  0101b	2b 05 00 00 00
	00		 sub	 eax, DWORD PTR _stack
  01021	c1 f8 03	 sar	 eax, 3
  01024	83 f8 02	 cmp	 eax, 2
  01027	7d 07		 jge	 SHORT $LN1@P_max
  01029	e8 00 00 00 00	 call	 _stakunder
  0102e	eb 72		 jmp	 SHORT $LN2@P_max
$LN1@P_max:

; 660  :     S1 = max(S1, S0);

  01030	8b 0d 00 00 00
	00		 mov	 ecx, DWORD PTR _stk
  01036	8b 15 00 00 00
	00		 mov	 edx, DWORD PTR _stk
  0103c	89 4d fc	 mov	 DWORD PTR tv78[ebp], ecx
  0103f	89 55 f8	 mov	 DWORD PTR tv79[ebp], edx
  01042	8b 45 fc	 mov	 eax, DWORD PTR tv78[ebp]
  01045	8b 4d f8	 mov	 ecx, DWORD PTR tv79[ebp]
  01048	8b 50 f4	 mov	 edx, DWORD PTR [eax-12]
  0104b	3b 51 fc	 cmp	 edx, DWORD PTR [ecx-4]
  0104e	7c 23		 jl	 SHORT $LN4@P_max
  01050	7f 0e		 jg	 SHORT $LN6@P_max
  01052	8b 45 fc	 mov	 eax, DWORD PTR tv78[ebp]
  01055	8b 4d f8	 mov	 ecx, DWORD PTR tv79[ebp]
  01058	8b 50 f0	 mov	 edx, DWORD PTR [eax-16]
  0105b	3b 51 f8	 cmp	 edx, DWORD PTR [ecx-8]
  0105e	76 13		 jbe	 SHORT $LN4@P_max
$LN6@P_max:
  01060	a1 00 00 00 00	 mov	 eax, DWORD PTR _stk
  01065	8b 48 f0	 mov	 ecx, DWORD PTR [eax-16]
  01068	89 4d f0	 mov	 DWORD PTR tv73[ebp], ecx
  0106b	8b 50 f4	 mov	 edx, DWORD PTR [eax-12]
  0106e	89 55 f4	 mov	 DWORD PTR tv73[ebp+4], edx
  01071	eb 11		 jmp	 SHORT $LN5@P_max
$LN4@P_max:
  01073	a1 00 00 00 00	 mov	 eax, DWORD PTR _stk
  01078	8b 48 f8	 mov	 ecx, DWORD PTR [eax-8]
  0107b	89 4d f0	 mov	 DWORD PTR tv73[ebp], ecx
  0107e	8b 50 fc	 mov	 edx, DWORD PTR [eax-4]
  01081	89 55 f4	 mov	 DWORD PTR tv73[ebp+4], edx
$LN5@P_max:
  01084	a1 00 00 00 00	 mov	 eax, DWORD PTR _stk
  01089	8b 4d f0	 mov	 ecx, DWORD PTR tv73[ebp]
  0108c	89 48 f0	 mov	 DWORD PTR [eax-16], ecx
  0108f	8b 55 f4	 mov	 edx, DWORD PTR tv73[ebp+4]
  01092	89 50 f4	 mov	 DWORD PTR [eax-12], edx

; 661  :     Pop;

  01095	a1 00 00 00 00	 mov	 eax, DWORD PTR _stk
  0109a	83 e8 08	 sub	 eax, 8
  0109d	a3 00 00 00 00	 mov	 DWORD PTR _stk, eax
$LN2@P_max:

; 662  : }

  010a2	8b e5		 mov	 esp, ebp
  010a4	5d		 pop	 ebp
  010a5	c3		 ret	 0
_P_max	ENDP
; Function compile flags: /Odtp
_P_neg	PROC

; 665  : {

  010b0	55		 push	 ebp
  010b1	8b ec		 mov	 ebp, esp

; 666  :     Sl(1);

  010b3	a1 00 00 00 00	 mov	 eax, DWORD PTR _stk
  010b8	2b 05 00 00 00
	00		 sub	 eax, DWORD PTR _stack
  010be	c1 f8 03	 sar	 eax, 3
  010c1	83 f8 01	 cmp	 eax, 1
  010c4	7d 07		 jge	 SHORT $LN1@P_neg
  010c6	e8 00 00 00 00	 call	 _stakunder
  010cb	eb 1f		 jmp	 SHORT $LN2@P_neg
$LN1@P_neg:

; 667  :     S0 = - S0;

  010cd	8b 0d 00 00 00
	00		 mov	 ecx, DWORD PTR _stk
  010d3	8b 51 f8	 mov	 edx, DWORD PTR [ecx-8]
  010d6	f7 da		 neg	 edx
  010d8	8b 41 fc	 mov	 eax, DWORD PTR [ecx-4]
  010db	83 d0 00	 adc	 eax, 0
  010de	f7 d8		 neg	 eax
  010e0	8b 0d 00 00 00
	00		 mov	 ecx, DWORD PTR _stk
  010e6	89 51 f8	 mov	 DWORD PTR [ecx-8], edx
  010e9	89 41 fc	 mov	 DWORD PTR [ecx-4], eax
$LN2@P_neg:

; 668  : }

  010ec	5d		 pop	 ebp
  010ed	c3		 ret	 0
_P_neg	ENDP
; Function compile flags: /Odtp
tv73 = -12						; size = 8
tv76 = -4						; size = 4
_P_abs	PROC

; 671  : {

  010f0	55		 push	 ebp
  010f1	8b ec		 mov	 ebp, esp
  010f3	83 ec 0c	 sub	 esp, 12			; 0000000cH

; 672  :     Sl(1);

  010f6	a1 00 00 00 00	 mov	 eax, DWORD PTR _stk
  010fb	2b 05 00 00 00
	00		 sub	 eax, DWORD PTR _stack
  01101	c1 f8 03	 sar	 eax, 3
  01104	83 f8 01	 cmp	 eax, 1
  01107	7d 07		 jge	 SHORT $LN1@P_abs
  01109	e8 00 00 00 00	 call	 _stakunder
  0110e	eb 5c		 jmp	 SHORT $LN2@P_abs
$LN1@P_abs:

; 673  :     S0 = abs(S0);

  01110	8b 0d 00 00 00
	00		 mov	 ecx, DWORD PTR _stk
  01116	89 4d fc	 mov	 DWORD PTR tv76[ebp], ecx
  01119	8b 55 fc	 mov	 edx, DWORD PTR tv76[ebp]
  0111c	83 7a fc 00	 cmp	 DWORD PTR [edx-4], 0
  01120	7f 26		 jg	 SHORT $LN4@P_abs
  01122	7c 09		 jl	 SHORT $LN6@P_abs
  01124	8b 45 fc	 mov	 eax, DWORD PTR tv76[ebp]
  01127	83 78 f8 00	 cmp	 DWORD PTR [eax-8], 0
  0112b	73 1b		 jae	 SHORT $LN4@P_abs
$LN6@P_abs:
  0112d	8b 0d 00 00 00
	00		 mov	 ecx, DWORD PTR _stk
  01133	8b 51 f8	 mov	 edx, DWORD PTR [ecx-8]
  01136	f7 da		 neg	 edx
  01138	8b 41 fc	 mov	 eax, DWORD PTR [ecx-4]
  0113b	83 d0 00	 adc	 eax, 0
  0113e	f7 d8		 neg	 eax
  01140	89 55 f4	 mov	 DWORD PTR tv73[ebp], edx
  01143	89 45 f8	 mov	 DWORD PTR tv73[ebp+4], eax
  01146	eb 12		 jmp	 SHORT $LN5@P_abs
$LN4@P_abs:
  01148	8b 0d 00 00 00
	00		 mov	 ecx, DWORD PTR _stk
  0114e	8b 51 f8	 mov	 edx, DWORD PTR [ecx-8]
  01151	89 55 f4	 mov	 DWORD PTR tv73[ebp], edx
  01154	8b 41 fc	 mov	 eax, DWORD PTR [ecx-4]
  01157	89 45 f8	 mov	 DWORD PTR tv73[ebp+4], eax
$LN5@P_abs:
  0115a	8b 0d 00 00 00
	00		 mov	 ecx, DWORD PTR _stk
  01160	8b 55 f4	 mov	 edx, DWORD PTR tv73[ebp]
  01163	89 51 f8	 mov	 DWORD PTR [ecx-8], edx
  01166	8b 45 f8	 mov	 eax, DWORD PTR tv73[ebp+4]
  01169	89 41 fc	 mov	 DWORD PTR [ecx-4], eax
$LN2@P_abs:

; 674  : }

  0116c	8b e5		 mov	 esp, ebp
  0116e	5d		 pop	 ebp
  0116f	c3		 ret	 0
_P_abs	ENDP
; Function compile flags: /Odtp
tv71 = -12						; size = 4
tv78 = -8						; size = 4
tv77 = -4						; size = 4
_P_equal PROC

; 677  : {

  01170	55		 push	 ebp
  01171	8b ec		 mov	 ebp, esp
  01173	83 ec 0c	 sub	 esp, 12			; 0000000cH

; 678  :     Sl(2);

  01176	a1 00 00 00 00	 mov	 eax, DWORD PTR _stk
  0117b	2b 05 00 00 00
	00		 sub	 eax, DWORD PTR _stack
  01181	c1 f8 03	 sar	 eax, 3
  01184	83 f8 02	 cmp	 eax, 2
  01187	7d 07		 jge	 SHORT $LN1@P_equal
  01189	e8 00 00 00 00	 call	 _stakunder
  0118e	eb 5d		 jmp	 SHORT $LN2@P_equal
$LN1@P_equal:

; 679  :     S1 = (S1 == S0) ? Truth : Falsity;

  01190	8b 0d 00 00 00
	00		 mov	 ecx, DWORD PTR _stk
  01196	8b 15 00 00 00
	00		 mov	 edx, DWORD PTR _stk
  0119c	89 4d fc	 mov	 DWORD PTR tv77[ebp], ecx
  0119f	89 55 f8	 mov	 DWORD PTR tv78[ebp], edx
  011a2	8b 45 fc	 mov	 eax, DWORD PTR tv77[ebp]
  011a5	8b 4d f8	 mov	 ecx, DWORD PTR tv78[ebp]
  011a8	8b 50 f0	 mov	 edx, DWORD PTR [eax-16]
  011ab	3b 51 f8	 cmp	 edx, DWORD PTR [ecx-8]
  011ae	75 17		 jne	 SHORT $LN4@P_equal
  011b0	8b 45 fc	 mov	 eax, DWORD PTR tv77[ebp]
  011b3	8b 4d f8	 mov	 ecx, DWORD PTR tv78[ebp]
  011b6	8b 50 f4	 mov	 edx, DWORD PTR [eax-12]
  011b9	3b 51 fc	 cmp	 edx, DWORD PTR [ecx-4]
  011bc	75 09		 jne	 SHORT $LN4@P_equal
  011be	c7 45 f4 ff ff
	ff ff		 mov	 DWORD PTR tv71[ebp], -1
  011c5	eb 07		 jmp	 SHORT $LN5@P_equal
$LN4@P_equal:
  011c7	c7 45 f4 00 00
	00 00		 mov	 DWORD PTR tv71[ebp], 0
$LN5@P_equal:
  011ce	8b 45 f4	 mov	 eax, DWORD PTR tv71[ebp]
  011d1	99		 cdq
  011d2	8b 0d 00 00 00
	00		 mov	 ecx, DWORD PTR _stk
  011d8	89 41 f0	 mov	 DWORD PTR [ecx-16], eax
  011db	89 51 f4	 mov	 DWORD PTR [ecx-12], edx

; 680  :     Pop;

  011de	8b 15 00 00 00
	00		 mov	 edx, DWORD PTR _stk
  011e4	83 ea 08	 sub	 edx, 8
  011e7	89 15 00 00 00
	00		 mov	 DWORD PTR _stk, edx
$LN2@P_equal:

; 681  : }

  011ed	8b e5		 mov	 esp, ebp
  011ef	5d		 pop	 ebp
  011f0	c3		 ret	 0
_P_equal ENDP
; Function compile flags: /Odtp
tv71 = -12						; size = 4
tv78 = -8						; size = 4
tv77 = -4						; size = 4
_P_unequal PROC

; 684  : {

  01200	55		 push	 ebp
  01201	8b ec		 mov	 ebp, esp
  01203	83 ec 0c	 sub	 esp, 12			; 0000000cH

; 685  :     Sl(2);

  01206	a1 00 00 00 00	 mov	 eax, DWORD PTR _stk
  0120b	2b 05 00 00 00
	00		 sub	 eax, DWORD PTR _stack
  01211	c1 f8 03	 sar	 eax, 3
  01214	83 f8 02	 cmp	 eax, 2
  01217	7d 07		 jge	 SHORT $LN1@P_unequal
  01219	e8 00 00 00 00	 call	 _stakunder
  0121e	eb 5d		 jmp	 SHORT $LN2@P_unequal
$LN1@P_unequal:

; 686  :     S1 = (S1 != S0) ? Truth : Falsity;

  01220	8b 0d 00 00 00
	00		 mov	 ecx, DWORD PTR _stk
  01226	8b 15 00 00 00
	00		 mov	 edx, DWORD PTR _stk
  0122c	89 4d fc	 mov	 DWORD PTR tv77[ebp], ecx
  0122f	89 55 f8	 mov	 DWORD PTR tv78[ebp], edx
  01232	8b 45 fc	 mov	 eax, DWORD PTR tv77[ebp]
  01235	8b 4d f8	 mov	 ecx, DWORD PTR tv78[ebp]
  01238	8b 50 f0	 mov	 edx, DWORD PTR [eax-16]
  0123b	3b 51 f8	 cmp	 edx, DWORD PTR [ecx-8]
  0123e	75 0e		 jne	 SHORT $LN6@P_unequal
  01240	8b 45 fc	 mov	 eax, DWORD PTR tv77[ebp]
  01243	8b 4d f8	 mov	 ecx, DWORD PTR tv78[ebp]
  01246	8b 50 f4	 mov	 edx, DWORD PTR [eax-12]
  01249	3b 51 fc	 cmp	 edx, DWORD PTR [ecx-4]
  0124c	74 09		 je	 SHORT $LN4@P_unequal
$LN6@P_unequal:
  0124e	c7 45 f4 ff ff
	ff ff		 mov	 DWORD PTR tv71[ebp], -1
  01255	eb 07		 jmp	 SHORT $LN5@P_unequal
$LN4@P_unequal:
  01257	c7 45 f4 00 00
	00 00		 mov	 DWORD PTR tv71[ebp], 0
$LN5@P_unequal:
  0125e	8b 45 f4	 mov	 eax, DWORD PTR tv71[ebp]
  01261	99		 cdq
  01262	8b 0d 00 00 00
	00		 mov	 ecx, DWORD PTR _stk
  01268	89 41 f0	 mov	 DWORD PTR [ecx-16], eax
  0126b	89 51 f4	 mov	 DWORD PTR [ecx-12], edx

; 687  :     Pop;

  0126e	8b 15 00 00 00
	00		 mov	 edx, DWORD PTR _stk
  01274	83 ea 08	 sub	 edx, 8
  01277	89 15 00 00 00
	00		 mov	 DWORD PTR _stk, edx
$LN2@P_unequal:

; 688  : }

  0127d	8b e5		 mov	 esp, ebp
  0127f	5d		 pop	 ebp
  01280	c3		 ret	 0
_P_unequal ENDP
; Function compile flags: /Odtp
tv71 = -12						; size = 4
tv78 = -8						; size = 4
tv77 = -4						; size = 4
_P_gtr	PROC

; 691  : {

  01290	55		 push	 ebp
  01291	8b ec		 mov	 ebp, esp
  01293	83 ec 0c	 sub	 esp, 12			; 0000000cH

; 692  :     Sl(2);

  01296	a1 00 00 00 00	 mov	 eax, DWORD PTR _stk
  0129b	2b 05 00 00 00
	00		 sub	 eax, DWORD PTR _stack
  012a1	c1 f8 03	 sar	 eax, 3
  012a4	83 f8 02	 cmp	 eax, 2
  012a7	7d 07		 jge	 SHORT $LN1@P_gtr
  012a9	e8 00 00 00 00	 call	 _stakunder
  012ae	eb 5f		 jmp	 SHORT $LN2@P_gtr
$LN1@P_gtr:

; 693  :     S1 = (S1 > S0) ? Truth : Falsity;

  012b0	8b 0d 00 00 00
	00		 mov	 ecx, DWORD PTR _stk
  012b6	8b 15 00 00 00
	00		 mov	 edx, DWORD PTR _stk
  012bc	89 4d fc	 mov	 DWORD PTR tv77[ebp], ecx
  012bf	89 55 f8	 mov	 DWORD PTR tv78[ebp], edx
  012c2	8b 45 fc	 mov	 eax, DWORD PTR tv77[ebp]
  012c5	8b 4d f8	 mov	 ecx, DWORD PTR tv78[ebp]
  012c8	8b 50 f4	 mov	 edx, DWORD PTR [eax-12]
  012cb	3b 51 fc	 cmp	 edx, DWORD PTR [ecx-4]
  012ce	7c 19		 jl	 SHORT $LN4@P_gtr
  012d0	7f 0e		 jg	 SHORT $LN6@P_gtr
  012d2	8b 45 fc	 mov	 eax, DWORD PTR tv77[ebp]
  012d5	8b 4d f8	 mov	 ecx, DWORD PTR tv78[ebp]
  012d8	8b 50 f0	 mov	 edx, DWORD PTR [eax-16]
  012db	3b 51 f8	 cmp	 edx, DWORD PTR [ecx-8]
  012de	76 09		 jbe	 SHORT $LN4@P_gtr
$LN6@P_gtr:
  012e0	c7 45 f4 ff ff
	ff ff		 mov	 DWORD PTR tv71[ebp], -1
  012e7	eb 07		 jmp	 SHORT $LN5@P_gtr
$LN4@P_gtr:
  012e9	c7 45 f4 00 00
	00 00		 mov	 DWORD PTR tv71[ebp], 0
$LN5@P_gtr:
  012f0	8b 45 f4	 mov	 eax, DWORD PTR tv71[ebp]
  012f3	99		 cdq
  012f4	8b 0d 00 00 00
	00		 mov	 ecx, DWORD PTR _stk
  012fa	89 41 f0	 mov	 DWORD PTR [ecx-16], eax
  012fd	89 51 f4	 mov	 DWORD PTR [ecx-12], edx

; 694  :     Pop;

  01300	8b 15 00 00 00
	00		 mov	 edx, DWORD PTR _stk
  01306	83 ea 08	 sub	 edx, 8
  01309	89 15 00 00 00
	00		 mov	 DWORD PTR _stk, edx
$LN2@P_gtr:

; 695  : }

  0130f	8b e5		 mov	 esp, ebp
  01311	5d		 pop	 ebp
  01312	c3		 ret	 0
_P_gtr	ENDP
; Function compile flags: /Odtp
tv71 = -12						; size = 4
tv78 = -8						; size = 4
tv77 = -4						; size = 4
_P_lss	PROC

; 698  : {

  01320	55		 push	 ebp
  01321	8b ec		 mov	 ebp, esp
  01323	83 ec 0c	 sub	 esp, 12			; 0000000cH

; 699  :     Sl(2);

  01326	a1 00 00 00 00	 mov	 eax, DWORD PTR _stk
  0132b	2b 05 00 00 00
	00		 sub	 eax, DWORD PTR _stack
  01331	c1 f8 03	 sar	 eax, 3
  01334	83 f8 02	 cmp	 eax, 2
  01337	7d 07		 jge	 SHORT $LN1@P_lss
  01339	e8 00 00 00 00	 call	 _stakunder
  0133e	eb 5f		 jmp	 SHORT $LN2@P_lss
$LN1@P_lss:

; 700  :     S1 = (S1 < S0) ? Truth : Falsity;

  01340	8b 0d 00 00 00
	00		 mov	 ecx, DWORD PTR _stk
  01346	8b 15 00 00 00
	00		 mov	 edx, DWORD PTR _stk
  0134c	89 4d fc	 mov	 DWORD PTR tv77[ebp], ecx
  0134f	89 55 f8	 mov	 DWORD PTR tv78[ebp], edx
  01352	8b 45 fc	 mov	 eax, DWORD PTR tv77[ebp]
  01355	8b 4d f8	 mov	 ecx, DWORD PTR tv78[ebp]
  01358	8b 50 f4	 mov	 edx, DWORD PTR [eax-12]
  0135b	3b 51 fc	 cmp	 edx, DWORD PTR [ecx-4]
  0135e	7f 19		 jg	 SHORT $LN4@P_lss
  01360	7c 0e		 jl	 SHORT $LN6@P_lss
  01362	8b 45 fc	 mov	 eax, DWORD PTR tv77[ebp]
  01365	8b 4d f8	 mov	 ecx, DWORD PTR tv78[ebp]
  01368	8b 50 f0	 mov	 edx, DWORD PTR [eax-16]
  0136b	3b 51 f8	 cmp	 edx, DWORD PTR [ecx-8]
  0136e	73 09		 jae	 SHORT $LN4@P_lss
$LN6@P_lss:
  01370	c7 45 f4 ff ff
	ff ff		 mov	 DWORD PTR tv71[ebp], -1
  01377	eb 07		 jmp	 SHORT $LN5@P_lss
$LN4@P_lss:
  01379	c7 45 f4 00 00
	00 00		 mov	 DWORD PTR tv71[ebp], 0
$LN5@P_lss:
  01380	8b 45 f4	 mov	 eax, DWORD PTR tv71[ebp]
  01383	99		 cdq
  01384	8b 0d 00 00 00
	00		 mov	 ecx, DWORD PTR _stk
  0138a	89 41 f0	 mov	 DWORD PTR [ecx-16], eax
  0138d	89 51 f4	 mov	 DWORD PTR [ecx-12], edx

; 701  :     Pop;

  01390	8b 15 00 00 00
	00		 mov	 edx, DWORD PTR _stk
  01396	83 ea 08	 sub	 edx, 8
  01399	89 15 00 00 00
	00		 mov	 DWORD PTR _stk, edx
$LN2@P_lss:

; 702  : }

  0139f	8b e5		 mov	 esp, ebp
  013a1	5d		 pop	 ebp
  013a2	c3		 ret	 0
_P_lss	ENDP
; Function compile flags: /Odtp
tv71 = -12						; size = 4
tv78 = -8						; size = 4
tv77 = -4						; size = 4
_P_geq	PROC

; 705  : {

  013b0	55		 push	 ebp
  013b1	8b ec		 mov	 ebp, esp
  013b3	83 ec 0c	 sub	 esp, 12			; 0000000cH

; 706  :     Sl(2);

  013b6	a1 00 00 00 00	 mov	 eax, DWORD PTR _stk
  013bb	2b 05 00 00 00
	00		 sub	 eax, DWORD PTR _stack
  013c1	c1 f8 03	 sar	 eax, 3
  013c4	83 f8 02	 cmp	 eax, 2
  013c7	7d 07		 jge	 SHORT $LN1@P_geq
  013c9	e8 00 00 00 00	 call	 _stakunder
  013ce	eb 5f		 jmp	 SHORT $LN2@P_geq
$LN1@P_geq:

; 707  :     S1 = (S1 >= S0) ? Truth : Falsity;

  013d0	8b 0d 00 00 00
	00		 mov	 ecx, DWORD PTR _stk
  013d6	8b 15 00 00 00
	00		 mov	 edx, DWORD PTR _stk
  013dc	89 4d fc	 mov	 DWORD PTR tv77[ebp], ecx
  013df	89 55 f8	 mov	 DWORD PTR tv78[ebp], edx
  013e2	8b 45 fc	 mov	 eax, DWORD PTR tv77[ebp]
  013e5	8b 4d f8	 mov	 ecx, DWORD PTR tv78[ebp]
  013e8	8b 50 f4	 mov	 edx, DWORD PTR [eax-12]
  013eb	3b 51 fc	 cmp	 edx, DWORD PTR [ecx-4]
  013ee	7c 19		 jl	 SHORT $LN4@P_geq
  013f0	7f 0e		 jg	 SHORT $LN6@P_geq
  013f2	8b 45 fc	 mov	 eax, DWORD PTR tv77[ebp]
  013f5	8b 4d f8	 mov	 ecx, DWORD PTR tv78[ebp]
  013f8	8b 50 f0	 mov	 edx, DWORD PTR [eax-16]
  013fb	3b 51 f8	 cmp	 edx, DWORD PTR [ecx-8]
  013fe	72 09		 jb	 SHORT $LN4@P_geq
$LN6@P_geq:
  01400	c7 45 f4 ff ff
	ff ff		 mov	 DWORD PTR tv71[ebp], -1
  01407	eb 07		 jmp	 SHORT $LN5@P_geq
$LN4@P_geq:
  01409	c7 45 f4 00 00
	00 00		 mov	 DWORD PTR tv71[ebp], 0
$LN5@P_geq:
  01410	8b 45 f4	 mov	 eax, DWORD PTR tv71[ebp]
  01413	99		 cdq
  01414	8b 0d 00 00 00
	00		 mov	 ecx, DWORD PTR _stk
  0141a	89 41 f0	 mov	 DWORD PTR [ecx-16], eax
  0141d	89 51 f4	 mov	 DWORD PTR [ecx-12], edx

; 708  :     Pop;

  01420	8b 15 00 00 00
	00		 mov	 edx, DWORD PTR _stk
  01426	83 ea 08	 sub	 edx, 8
  01429	89 15 00 00 00
	00		 mov	 DWORD PTR _stk, edx
$LN2@P_geq:

; 709  : }

  0142f	8b e5		 mov	 esp, ebp
  01431	5d		 pop	 ebp
  01432	c3		 ret	 0
_P_geq	ENDP
; Function compile flags: /Odtp
tv71 = -12						; size = 4
tv78 = -8						; size = 4
tv77 = -4						; size = 4
_P_leq	PROC

; 712  : {

  01440	55		 push	 ebp
  01441	8b ec		 mov	 ebp, esp
  01443	83 ec 0c	 sub	 esp, 12			; 0000000cH

; 713  :     Sl(2);

  01446	a1 00 00 00 00	 mov	 eax, DWORD PTR _stk
  0144b	2b 05 00 00 00
	00		 sub	 eax, DWORD PTR _stack
  01451	c1 f8 03	 sar	 eax, 3
  01454	83 f8 02	 cmp	 eax, 2
  01457	7d 07		 jge	 SHORT $LN1@P_leq
  01459	e8 00 00 00 00	 call	 _stakunder
  0145e	eb 5f		 jmp	 SHORT $LN2@P_leq
$LN1@P_leq:

; 714  :     S1 = (S1 <= S0) ? Truth : Falsity;

  01460	8b 0d 00 00 00
	00		 mov	 ecx, DWORD PTR _stk
  01466	8b 15 00 00 00
	00		 mov	 edx, DWORD PTR _stk
  0146c	89 4d fc	 mov	 DWORD PTR tv77[ebp], ecx
  0146f	89 55 f8	 mov	 DWORD PTR tv78[ebp], edx
  01472	8b 45 fc	 mov	 eax, DWORD PTR tv77[ebp]
  01475	8b 4d f8	 mov	 ecx, DWORD PTR tv78[ebp]
  01478	8b 50 f4	 mov	 edx, DWORD PTR [eax-12]
  0147b	3b 51 fc	 cmp	 edx, DWORD PTR [ecx-4]
  0147e	7f 19		 jg	 SHORT $LN4@P_leq
  01480	7c 0e		 jl	 SHORT $LN6@P_leq
  01482	8b 45 fc	 mov	 eax, DWORD PTR tv77[ebp]
  01485	8b 4d f8	 mov	 ecx, DWORD PTR tv78[ebp]
  01488	8b 50 f0	 mov	 edx, DWORD PTR [eax-16]
  0148b	3b 51 f8	 cmp	 edx, DWORD PTR [ecx-8]
  0148e	77 09		 ja	 SHORT $LN4@P_leq
$LN6@P_leq:
  01490	c7 45 f4 ff ff
	ff ff		 mov	 DWORD PTR tv71[ebp], -1
  01497	eb 07		 jmp	 SHORT $LN5@P_leq
$LN4@P_leq:
  01499	c7 45 f4 00 00
	00 00		 mov	 DWORD PTR tv71[ebp], 0
$LN5@P_leq:
  014a0	8b 45 f4	 mov	 eax, DWORD PTR tv71[ebp]
  014a3	99		 cdq
  014a4	8b 0d 00 00 00
	00		 mov	 ecx, DWORD PTR _stk
  014aa	89 41 f0	 mov	 DWORD PTR [ecx-16], eax
  014ad	89 51 f4	 mov	 DWORD PTR [ecx-12], edx

; 715  :     Pop;

  014b0	8b 15 00 00 00
	00		 mov	 edx, DWORD PTR _stk
  014b6	83 ea 08	 sub	 edx, 8
  014b9	89 15 00 00 00
	00		 mov	 DWORD PTR _stk, edx
$LN2@P_leq:

; 716  : }

  014bf	8b e5		 mov	 esp, ebp
  014c1	5d		 pop	 ebp
  014c2	c3		 ret	 0
_P_leq	ENDP
; Function compile flags: /Odtp
_P_and	PROC

; 719  : {

  014d0	55		 push	 ebp
  014d1	8b ec		 mov	 ebp, esp

; 720  :     Sl(2);

  014d3	a1 00 00 00 00	 mov	 eax, DWORD PTR _stk
  014d8	2b 05 00 00 00
	00		 sub	 eax, DWORD PTR _stack
  014de	c1 f8 03	 sar	 eax, 3
  014e1	83 f8 02	 cmp	 eax, 2
  014e4	7d 07		 jge	 SHORT $LN1@P_and
  014e6	e8 00 00 00 00	 call	 _stakunder
  014eb	eb 31		 jmp	 SHORT $LN2@P_and
$LN1@P_and:

; 721  : /* printf("AND %lx & %lx = %lx\n", S1, S0, (S1 & S0)); */
; 722  :     S1 &= S0;

  014ed	8b 0d 00 00 00
	00		 mov	 ecx, DWORD PTR _stk
  014f3	8b 15 00 00 00
	00		 mov	 edx, DWORD PTR _stk
  014f9	8b 41 f0	 mov	 eax, DWORD PTR [ecx-16]
  014fc	23 42 f8	 and	 eax, DWORD PTR [edx-8]
  014ff	8b 49 f4	 mov	 ecx, DWORD PTR [ecx-12]
  01502	23 4a fc	 and	 ecx, DWORD PTR [edx-4]
  01505	8b 15 00 00 00
	00		 mov	 edx, DWORD PTR _stk
  0150b	89 42 f0	 mov	 DWORD PTR [edx-16], eax
  0150e	89 4a f4	 mov	 DWORD PTR [edx-12], ecx

; 723  :     Pop;

  01511	a1 00 00 00 00	 mov	 eax, DWORD PTR _stk
  01516	83 e8 08	 sub	 eax, 8
  01519	a3 00 00 00 00	 mov	 DWORD PTR _stk, eax
$LN2@P_and:

; 724  : }

  0151e	5d		 pop	 ebp
  0151f	c3		 ret	 0
_P_and	ENDP
; Function compile flags: /Odtp
_P_or	PROC

; 727  : {

  01520	55		 push	 ebp
  01521	8b ec		 mov	 ebp, esp

; 728  :     Sl(2);

  01523	a1 00 00 00 00	 mov	 eax, DWORD PTR _stk
  01528	2b 05 00 00 00
	00		 sub	 eax, DWORD PTR _stack
  0152e	c1 f8 03	 sar	 eax, 3
  01531	83 f8 02	 cmp	 eax, 2
  01534	7d 07		 jge	 SHORT $LN1@P_or
  01536	e8 00 00 00 00	 call	 _stakunder
  0153b	eb 31		 jmp	 SHORT $LN2@P_or
$LN1@P_or:

; 729  :     S1 |= S0;

  0153d	8b 0d 00 00 00
	00		 mov	 ecx, DWORD PTR _stk
  01543	8b 15 00 00 00
	00		 mov	 edx, DWORD PTR _stk
  01549	8b 41 f0	 mov	 eax, DWORD PTR [ecx-16]
  0154c	0b 42 f8	 or	 eax, DWORD PTR [edx-8]
  0154f	8b 49 f4	 mov	 ecx, DWORD PTR [ecx-12]
  01552	0b 4a fc	 or	 ecx, DWORD PTR [edx-4]
  01555	8b 15 00 00 00
	00		 mov	 edx, DWORD PTR _stk
  0155b	89 42 f0	 mov	 DWORD PTR [edx-16], eax
  0155e	89 4a f4	 mov	 DWORD PTR [edx-12], ecx

; 730  :     Pop;

  01561	a1 00 00 00 00	 mov	 eax, DWORD PTR _stk
  01566	83 e8 08	 sub	 eax, 8
  01569	a3 00 00 00 00	 mov	 DWORD PTR _stk, eax
$LN2@P_or:

; 731  : }

  0156e	5d		 pop	 ebp
  0156f	c3		 ret	 0
_P_or	ENDP
; Function compile flags: /Odtp
_P_xor	PROC

; 734  : {

  01570	55		 push	 ebp
  01571	8b ec		 mov	 ebp, esp

; 735  :     Sl(2);

  01573	a1 00 00 00 00	 mov	 eax, DWORD PTR _stk
  01578	2b 05 00 00 00
	00		 sub	 eax, DWORD PTR _stack
  0157e	c1 f8 03	 sar	 eax, 3
  01581	83 f8 02	 cmp	 eax, 2
  01584	7d 07		 jge	 SHORT $LN1@P_xor
  01586	e8 00 00 00 00	 call	 _stakunder
  0158b	eb 31		 jmp	 SHORT $LN2@P_xor
$LN1@P_xor:

; 736  :     S1 ^= S0;

  0158d	8b 0d 00 00 00
	00		 mov	 ecx, DWORD PTR _stk
  01593	8b 15 00 00 00
	00		 mov	 edx, DWORD PTR _stk
  01599	8b 41 f0	 mov	 eax, DWORD PTR [ecx-16]
  0159c	33 42 f8	 xor	 eax, DWORD PTR [edx-8]
  0159f	8b 49 f4	 mov	 ecx, DWORD PTR [ecx-12]
  015a2	33 4a fc	 xor	 ecx, DWORD PTR [edx-4]
  015a5	8b 15 00 00 00
	00		 mov	 edx, DWORD PTR _stk
  015ab	89 42 f0	 mov	 DWORD PTR [edx-16], eax
  015ae	89 4a f4	 mov	 DWORD PTR [edx-12], ecx

; 737  :     Pop;

  015b1	a1 00 00 00 00	 mov	 eax, DWORD PTR _stk
  015b6	83 e8 08	 sub	 eax, 8
  015b9	a3 00 00 00 00	 mov	 DWORD PTR _stk, eax
$LN2@P_xor:

; 738  : }

  015be	5d		 pop	 ebp
  015bf	c3		 ret	 0
_P_xor	ENDP
; Function compile flags: /Odtp
_P_not	PROC

; 741  : {

  015c0	55		 push	 ebp
  015c1	8b ec		 mov	 ebp, esp

; 742  :     Sl(1);

  015c3	a1 00 00 00 00	 mov	 eax, DWORD PTR _stk
  015c8	2b 05 00 00 00
	00		 sub	 eax, DWORD PTR _stack
  015ce	c1 f8 03	 sar	 eax, 3
  015d1	83 f8 01	 cmp	 eax, 1
  015d4	7d 07		 jge	 SHORT $LN1@P_not
  015d6	e8 00 00 00 00	 call	 _stakunder
  015db	eb 1c		 jmp	 SHORT $LN2@P_not
$LN1@P_not:

; 743  :     S0 = ~S0;

  015dd	8b 0d 00 00 00
	00		 mov	 ecx, DWORD PTR _stk
  015e3	8b 51 f8	 mov	 edx, DWORD PTR [ecx-8]
  015e6	f7 d2		 not	 edx
  015e8	8b 41 fc	 mov	 eax, DWORD PTR [ecx-4]
  015eb	f7 d0		 not	 eax
  015ed	8b 0d 00 00 00
	00		 mov	 ecx, DWORD PTR _stk
  015f3	89 51 f8	 mov	 DWORD PTR [ecx-8], edx
  015f6	89 41 fc	 mov	 DWORD PTR [ecx-4], eax
$LN2@P_not:

; 744  : }

  015f9	5d		 pop	 ebp
  015fa	c3		 ret	 0
_P_not	ENDP
; Function compile flags: /Odtp
tv81 = -8						; size = 4
tv86 = -4						; size = 4
_P_shift PROC

; 747  : {

  01600	55		 push	 ebp
  01601	8b ec		 mov	 ebp, esp
  01603	83 ec 08	 sub	 esp, 8

; 748  :     Sl(1);

  01606	a1 00 00 00 00	 mov	 eax, DWORD PTR _stk
  0160b	2b 05 00 00 00
	00		 sub	 eax, DWORD PTR _stack
  01611	c1 f8 03	 sar	 eax, 3
  01614	83 f8 01	 cmp	 eax, 1
  01617	7d 07		 jge	 SHORT $LN1@P_shift
  01619	e8 00 00 00 00	 call	 _stakunder
  0161e	eb 74		 jmp	 SHORT $LN2@P_shift
$LN1@P_shift:

; 749  :     S1 = (S0 < 0) ? (((unsigned long) S1) >> (-S0)) :
; 750  : 		    (((unsigned long) S1) <<   S0);

  01620	8b 0d 00 00 00
	00		 mov	 ecx, DWORD PTR _stk
  01626	89 4d fc	 mov	 DWORD PTR tv86[ebp], ecx
  01629	8b 55 fc	 mov	 edx, DWORD PTR tv86[ebp]
  0162c	83 7a fc 00	 cmp	 DWORD PTR [edx-4], 0
  01630	7f 2d		 jg	 SHORT $LN4@P_shift
  01632	7c 09		 jl	 SHORT $LN6@P_shift
  01634	8b 45 fc	 mov	 eax, DWORD PTR tv86[ebp]
  01637	83 78 f8 00	 cmp	 DWORD PTR [eax-8], 0
  0163b	73 22		 jae	 SHORT $LN4@P_shift
$LN6@P_shift:
  0163d	8b 0d 00 00 00
	00		 mov	 ecx, DWORD PTR _stk
  01643	8b 51 f0	 mov	 edx, DWORD PTR [ecx-16]
  01646	a1 00 00 00 00	 mov	 eax, DWORD PTR _stk
  0164b	8b 48 f8	 mov	 ecx, DWORD PTR [eax-8]
  0164e	f7 d9		 neg	 ecx
  01650	8b 40 fc	 mov	 eax, DWORD PTR [eax-4]
  01653	83 d0 00	 adc	 eax, 0
  01656	f7 d8		 neg	 eax
  01658	d3 ea		 shr	 edx, cl
  0165a	89 55 f8	 mov	 DWORD PTR tv81[ebp], edx
  0165d	eb 16		 jmp	 SHORT $LN5@P_shift
$LN4@P_shift:
  0165f	8b 0d 00 00 00
	00		 mov	 ecx, DWORD PTR _stk
  01665	8b 51 f0	 mov	 edx, DWORD PTR [ecx-16]
  01668	a1 00 00 00 00	 mov	 eax, DWORD PTR _stk
  0166d	8a 48 f8	 mov	 cl, BYTE PTR [eax-8]
  01670	d3 e2		 shl	 edx, cl
  01672	89 55 f8	 mov	 DWORD PTR tv81[ebp], edx
$LN5@P_shift:
  01675	8b 4d f8	 mov	 ecx, DWORD PTR tv81[ebp]
  01678	33 d2		 xor	 edx, edx
  0167a	a1 00 00 00 00	 mov	 eax, DWORD PTR _stk
  0167f	89 48 f0	 mov	 DWORD PTR [eax-16], ecx
  01682	89 50 f4	 mov	 DWORD PTR [eax-12], edx

; 751  :     Pop;

  01685	8b 0d 00 00 00
	00		 mov	 ecx, DWORD PTR _stk
  0168b	83 e9 08	 sub	 ecx, 8
  0168e	89 0d 00 00 00
	00		 mov	 DWORD PTR _stk, ecx
$LN2@P_shift:

; 752  : }

  01694	8b e5		 mov	 esp, ebp
  01696	5d		 pop	 ebp
  01697	c3		 ret	 0
_P_shift ENDP
; Function compile flags: /Odtp
_P_1plus PROC

; 757  : {

  016a0	55		 push	 ebp
  016a1	8b ec		 mov	 ebp, esp

; 758  :     Sl(1);

  016a3	a1 00 00 00 00	 mov	 eax, DWORD PTR _stk
  016a8	2b 05 00 00 00
	00		 sub	 eax, DWORD PTR _stack
  016ae	c1 f8 03	 sar	 eax, 3
  016b1	83 f8 01	 cmp	 eax, 1
  016b4	7d 07		 jge	 SHORT $LN1@P_1plus
  016b6	e8 00 00 00 00	 call	 _stakunder
  016bb	eb 1e		 jmp	 SHORT $LN2@P_1plus
$LN1@P_1plus:

; 759  :     S0++;

  016bd	8b 0d 00 00 00
	00		 mov	 ecx, DWORD PTR _stk
  016c3	8b 51 f8	 mov	 edx, DWORD PTR [ecx-8]
  016c6	83 c2 01	 add	 edx, 1
  016c9	8b 41 fc	 mov	 eax, DWORD PTR [ecx-4]
  016cc	83 d0 00	 adc	 eax, 0
  016cf	8b 0d 00 00 00
	00		 mov	 ecx, DWORD PTR _stk
  016d5	89 51 f8	 mov	 DWORD PTR [ecx-8], edx
  016d8	89 41 fc	 mov	 DWORD PTR [ecx-4], eax
$LN2@P_1plus:

; 760  : }

  016db	5d		 pop	 ebp
  016dc	c3		 ret	 0
_P_1plus ENDP
; Function compile flags: /Odtp
_P_2plus PROC

; 763  : {

  016e0	55		 push	 ebp
  016e1	8b ec		 mov	 ebp, esp

; 764  :     Sl(1);

  016e3	a1 00 00 00 00	 mov	 eax, DWORD PTR _stk
  016e8	2b 05 00 00 00
	00		 sub	 eax, DWORD PTR _stack
  016ee	c1 f8 03	 sar	 eax, 3
  016f1	83 f8 01	 cmp	 eax, 1
  016f4	7d 07		 jge	 SHORT $LN1@P_2plus
  016f6	e8 00 00 00 00	 call	 _stakunder
  016fb	eb 1e		 jmp	 SHORT $LN2@P_2plus
$LN1@P_2plus:

; 765  :     S0 += 2;

  016fd	8b 0d 00 00 00
	00		 mov	 ecx, DWORD PTR _stk
  01703	8b 51 f8	 mov	 edx, DWORD PTR [ecx-8]
  01706	83 c2 02	 add	 edx, 2
  01709	8b 41 fc	 mov	 eax, DWORD PTR [ecx-4]
  0170c	83 d0 00	 adc	 eax, 0
  0170f	8b 0d 00 00 00
	00		 mov	 ecx, DWORD PTR _stk
  01715	89 51 f8	 mov	 DWORD PTR [ecx-8], edx
  01718	89 41 fc	 mov	 DWORD PTR [ecx-4], eax
$LN2@P_2plus:

; 766  : }

  0171b	5d		 pop	 ebp
  0171c	c3		 ret	 0
_P_2plus ENDP
; Function compile flags: /Odtp
_P_1minus PROC

; 769  : {

  01720	55		 push	 ebp
  01721	8b ec		 mov	 ebp, esp

; 770  :     Sl(1);

  01723	a1 00 00 00 00	 mov	 eax, DWORD PTR _stk
  01728	2b 05 00 00 00
	00		 sub	 eax, DWORD PTR _stack
  0172e	c1 f8 03	 sar	 eax, 3
  01731	83 f8 01	 cmp	 eax, 1
  01734	7d 07		 jge	 SHORT $LN1@P_1minus
  01736	e8 00 00 00 00	 call	 _stakunder
  0173b	eb 1e		 jmp	 SHORT $LN2@P_1minus
$LN1@P_1minus:

; 771  :     S0--;

  0173d	8b 0d 00 00 00
	00		 mov	 ecx, DWORD PTR _stk
  01743	8b 51 f8	 mov	 edx, DWORD PTR [ecx-8]
  01746	83 ea 01	 sub	 edx, 1
  01749	8b 41 fc	 mov	 eax, DWORD PTR [ecx-4]
  0174c	83 d8 00	 sbb	 eax, 0
  0174f	8b 0d 00 00 00
	00		 mov	 ecx, DWORD PTR _stk
  01755	89 51 f8	 mov	 DWORD PTR [ecx-8], edx
  01758	89 41 fc	 mov	 DWORD PTR [ecx-4], eax
$LN2@P_1minus:

; 772  : }

  0175b	5d		 pop	 ebp
  0175c	c3		 ret	 0
_P_1minus ENDP
; Function compile flags: /Odtp
_P_2minus PROC

; 775  : {

  01760	55		 push	 ebp
  01761	8b ec		 mov	 ebp, esp

; 776  :     Sl(1);

  01763	a1 00 00 00 00	 mov	 eax, DWORD PTR _stk
  01768	2b 05 00 00 00
	00		 sub	 eax, DWORD PTR _stack
  0176e	c1 f8 03	 sar	 eax, 3
  01771	83 f8 01	 cmp	 eax, 1
  01774	7d 07		 jge	 SHORT $LN1@P_2minus
  01776	e8 00 00 00 00	 call	 _stakunder
  0177b	eb 1e		 jmp	 SHORT $LN2@P_2minus
$LN1@P_2minus:

; 777  :     S0 -= 2;

  0177d	8b 0d 00 00 00
	00		 mov	 ecx, DWORD PTR _stk
  01783	8b 51 f8	 mov	 edx, DWORD PTR [ecx-8]
  01786	83 ea 02	 sub	 edx, 2
  01789	8b 41 fc	 mov	 eax, DWORD PTR [ecx-4]
  0178c	83 d8 00	 sbb	 eax, 0
  0178f	8b 0d 00 00 00
	00		 mov	 ecx, DWORD PTR _stk
  01795	89 51 f8	 mov	 DWORD PTR [ecx-8], edx
  01798	89 41 fc	 mov	 DWORD PTR [ecx-4], eax
$LN2@P_2minus:

; 778  : }

  0179b	5d		 pop	 ebp
  0179c	c3		 ret	 0
_P_2minus ENDP
; Function compile flags: /Odtp
_P_2times PROC

; 781  : {

  017a0	55		 push	 ebp
  017a1	8b ec		 mov	 ebp, esp

; 782  :     Sl(1);

  017a3	a1 00 00 00 00	 mov	 eax, DWORD PTR _stk
  017a8	2b 05 00 00 00
	00		 sub	 eax, DWORD PTR _stack
  017ae	c1 f8 03	 sar	 eax, 3
  017b1	83 f8 01	 cmp	 eax, 1
  017b4	7d 07		 jge	 SHORT $LN1@P_2times
  017b6	e8 00 00 00 00	 call	 _stakunder
  017bb	eb 23		 jmp	 SHORT $LN2@P_2times
$LN1@P_2times:

; 783  :     S0 *= 2;

  017bd	8b 0d 00 00 00
	00		 mov	 ecx, DWORD PTR _stk
  017c3	6a 00		 push	 0
  017c5	6a 02		 push	 2
  017c7	8b 51 fc	 mov	 edx, DWORD PTR [ecx-4]
  017ca	52		 push	 edx
  017cb	8b 41 f8	 mov	 eax, DWORD PTR [ecx-8]
  017ce	50		 push	 eax
  017cf	e8 00 00 00 00	 call	 __allmul
  017d4	8b 0d 00 00 00
	00		 mov	 ecx, DWORD PTR _stk
  017da	89 41 f8	 mov	 DWORD PTR [ecx-8], eax
  017dd	89 51 fc	 mov	 DWORD PTR [ecx-4], edx
$LN2@P_2times:

; 784  : }

  017e0	5d		 pop	 ebp
  017e1	c3		 ret	 0
_P_2times ENDP
; Function compile flags: /Odtp
_P_2div PROC

; 787  : {

  017f0	55		 push	 ebp
  017f1	8b ec		 mov	 ebp, esp

; 788  :     Sl(1);

  017f3	a1 00 00 00 00	 mov	 eax, DWORD PTR _stk
  017f8	2b 05 00 00 00
	00		 sub	 eax, DWORD PTR _stack
  017fe	c1 f8 03	 sar	 eax, 3
  01801	83 f8 01	 cmp	 eax, 1
  01804	7d 07		 jge	 SHORT $LN1@P_2div
  01806	e8 00 00 00 00	 call	 _stakunder
  0180b	eb 23		 jmp	 SHORT $LN2@P_2div
$LN1@P_2div:

; 789  :     S0 /= 2;

  0180d	8b 0d 00 00 00
	00		 mov	 ecx, DWORD PTR _stk
  01813	6a 00		 push	 0
  01815	6a 02		 push	 2
  01817	8b 51 fc	 mov	 edx, DWORD PTR [ecx-4]
  0181a	52		 push	 edx
  0181b	8b 41 f8	 mov	 eax, DWORD PTR [ecx-8]
  0181e	50		 push	 eax
  0181f	e8 00 00 00 00	 call	 __alldiv
  01824	8b 0d 00 00 00
	00		 mov	 ecx, DWORD PTR _stk
  0182a	89 41 f8	 mov	 DWORD PTR [ecx-8], eax
  0182d	89 51 fc	 mov	 DWORD PTR [ecx-4], edx
$LN2@P_2div:

; 790  : }

  01830	5d		 pop	 ebp
  01831	c3		 ret	 0
_P_2div	ENDP
; Function compile flags: /Odtp
tv70 = -8						; size = 4
tv74 = -4						; size = 4
_P_0equal PROC

; 797  : {

  01840	55		 push	 ebp
  01841	8b ec		 mov	 ebp, esp
  01843	83 ec 08	 sub	 esp, 8

; 798  :     Sl(1);

  01846	a1 00 00 00 00	 mov	 eax, DWORD PTR _stk
  0184b	2b 05 00 00 00
	00		 sub	 eax, DWORD PTR _stack
  01851	c1 f8 03	 sar	 eax, 3
  01854	83 f8 01	 cmp	 eax, 1
  01857	7d 07		 jge	 SHORT $LN1@P_0equal
  01859	e8 00 00 00 00	 call	 _stakunder
  0185e	eb 37		 jmp	 SHORT $LN2@P_0equal
$LN1@P_0equal:

; 799  :     S0 = (S0 == 0) ? Truth : Falsity;

  01860	8b 0d 00 00 00
	00		 mov	 ecx, DWORD PTR _stk
  01866	89 4d fc	 mov	 DWORD PTR tv74[ebp], ecx
  01869	8b 55 fc	 mov	 edx, DWORD PTR tv74[ebp]
  0186c	8b 45 fc	 mov	 eax, DWORD PTR tv74[ebp]
  0186f	8b 4a f8	 mov	 ecx, DWORD PTR [edx-8]
  01872	0b 48 fc	 or	 ecx, DWORD PTR [eax-4]
  01875	75 09		 jne	 SHORT $LN4@P_0equal
  01877	c7 45 f8 ff ff
	ff ff		 mov	 DWORD PTR tv70[ebp], -1
  0187e	eb 07		 jmp	 SHORT $LN5@P_0equal
$LN4@P_0equal:
  01880	c7 45 f8 00 00
	00 00		 mov	 DWORD PTR tv70[ebp], 0
$LN5@P_0equal:
  01887	8b 45 f8	 mov	 eax, DWORD PTR tv70[ebp]
  0188a	99		 cdq
  0188b	8b 0d 00 00 00
	00		 mov	 ecx, DWORD PTR _stk
  01891	89 41 f8	 mov	 DWORD PTR [ecx-8], eax
  01894	89 51 fc	 mov	 DWORD PTR [ecx-4], edx
$LN2@P_0equal:

; 800  : }

  01897	8b e5		 mov	 esp, ebp
  01899	5d		 pop	 ebp
  0189a	c3		 ret	 0
_P_0equal ENDP
; Function compile flags: /Odtp
tv70 = -8						; size = 4
tv74 = -4						; size = 4
_P_0notequal PROC

; 803  : {

  018a0	55		 push	 ebp
  018a1	8b ec		 mov	 ebp, esp
  018a3	83 ec 08	 sub	 esp, 8

; 804  :     Sl(1);

  018a6	a1 00 00 00 00	 mov	 eax, DWORD PTR _stk
  018ab	2b 05 00 00 00
	00		 sub	 eax, DWORD PTR _stack
  018b1	c1 f8 03	 sar	 eax, 3
  018b4	83 f8 01	 cmp	 eax, 1
  018b7	7d 07		 jge	 SHORT $LN1@P_0notequa
  018b9	e8 00 00 00 00	 call	 _stakunder
  018be	eb 37		 jmp	 SHORT $LN2@P_0notequa
$LN1@P_0notequa:

; 805  :     S0 = (S0 != 0) ? Truth : Falsity;

  018c0	8b 0d 00 00 00
	00		 mov	 ecx, DWORD PTR _stk
  018c6	89 4d fc	 mov	 DWORD PTR tv74[ebp], ecx
  018c9	8b 55 fc	 mov	 edx, DWORD PTR tv74[ebp]
  018cc	8b 45 fc	 mov	 eax, DWORD PTR tv74[ebp]
  018cf	8b 4a f8	 mov	 ecx, DWORD PTR [edx-8]
  018d2	0b 48 fc	 or	 ecx, DWORD PTR [eax-4]
  018d5	74 09		 je	 SHORT $LN4@P_0notequa
  018d7	c7 45 f8 ff ff
	ff ff		 mov	 DWORD PTR tv70[ebp], -1
  018de	eb 07		 jmp	 SHORT $LN5@P_0notequa
$LN4@P_0notequa:
  018e0	c7 45 f8 00 00
	00 00		 mov	 DWORD PTR tv70[ebp], 0
$LN5@P_0notequa:
  018e7	8b 45 f8	 mov	 eax, DWORD PTR tv70[ebp]
  018ea	99		 cdq
  018eb	8b 0d 00 00 00
	00		 mov	 ecx, DWORD PTR _stk
  018f1	89 41 f8	 mov	 DWORD PTR [ecx-8], eax
  018f4	89 51 fc	 mov	 DWORD PTR [ecx-4], edx
$LN2@P_0notequa:

; 806  : }

  018f7	8b e5		 mov	 esp, ebp
  018f9	5d		 pop	 ebp
  018fa	c3		 ret	 0
_P_0notequal ENDP
; Function compile flags: /Odtp
tv70 = -8						; size = 4
tv74 = -4						; size = 4
_P_0gtr	PROC

; 809  : {

  01900	55		 push	 ebp
  01901	8b ec		 mov	 ebp, esp
  01903	83 ec 08	 sub	 esp, 8

; 810  :     Sl(1);

  01906	a1 00 00 00 00	 mov	 eax, DWORD PTR _stk
  0190b	2b 05 00 00 00
	00		 sub	 eax, DWORD PTR _stack
  01911	c1 f8 03	 sar	 eax, 3
  01914	83 f8 01	 cmp	 eax, 1
  01917	7d 07		 jge	 SHORT $LN1@P_0gtr
  01919	e8 00 00 00 00	 call	 _stakunder
  0191e	eb 3d		 jmp	 SHORT $LN2@P_0gtr
$LN1@P_0gtr:

; 811  :     S0 = (S0 > 0) ? Truth : Falsity;

  01920	8b 0d 00 00 00
	00		 mov	 ecx, DWORD PTR _stk
  01926	89 4d fc	 mov	 DWORD PTR tv74[ebp], ecx
  01929	8b 55 fc	 mov	 edx, DWORD PTR tv74[ebp]
  0192c	83 7a fc 00	 cmp	 DWORD PTR [edx-4], 0
  01930	7c 14		 jl	 SHORT $LN4@P_0gtr
  01932	7f 09		 jg	 SHORT $LN6@P_0gtr
  01934	8b 45 fc	 mov	 eax, DWORD PTR tv74[ebp]
  01937	83 78 f8 00	 cmp	 DWORD PTR [eax-8], 0
  0193b	76 09		 jbe	 SHORT $LN4@P_0gtr
$LN6@P_0gtr:
  0193d	c7 45 f8 ff ff
	ff ff		 mov	 DWORD PTR tv70[ebp], -1
  01944	eb 07		 jmp	 SHORT $LN5@P_0gtr
$LN4@P_0gtr:
  01946	c7 45 f8 00 00
	00 00		 mov	 DWORD PTR tv70[ebp], 0
$LN5@P_0gtr:
  0194d	8b 45 f8	 mov	 eax, DWORD PTR tv70[ebp]
  01950	99		 cdq
  01951	8b 0d 00 00 00
	00		 mov	 ecx, DWORD PTR _stk
  01957	89 41 f8	 mov	 DWORD PTR [ecx-8], eax
  0195a	89 51 fc	 mov	 DWORD PTR [ecx-4], edx
$LN2@P_0gtr:

; 812  : }

  0195d	8b e5		 mov	 esp, ebp
  0195f	5d		 pop	 ebp
  01960	c3		 ret	 0
_P_0gtr	ENDP
; Function compile flags: /Odtp
tv70 = -8						; size = 4
tv74 = -4						; size = 4
_P_0lss	PROC

; 815  : {

  01970	55		 push	 ebp
  01971	8b ec		 mov	 ebp, esp
  01973	83 ec 08	 sub	 esp, 8

; 816  :     Sl(1);

  01976	a1 00 00 00 00	 mov	 eax, DWORD PTR _stk
  0197b	2b 05 00 00 00
	00		 sub	 eax, DWORD PTR _stack
  01981	c1 f8 03	 sar	 eax, 3
  01984	83 f8 01	 cmp	 eax, 1
  01987	7d 07		 jge	 SHORT $LN1@P_0lss
  01989	e8 00 00 00 00	 call	 _stakunder
  0198e	eb 3d		 jmp	 SHORT $LN2@P_0lss
$LN1@P_0lss:

; 817  :     S0 = (S0 < 0) ? Truth : Falsity;

  01990	8b 0d 00 00 00
	00		 mov	 ecx, DWORD PTR _stk
  01996	89 4d fc	 mov	 DWORD PTR tv74[ebp], ecx
  01999	8b 55 fc	 mov	 edx, DWORD PTR tv74[ebp]
  0199c	83 7a fc 00	 cmp	 DWORD PTR [edx-4], 0
  019a0	7f 14		 jg	 SHORT $LN4@P_0lss
  019a2	7c 09		 jl	 SHORT $LN6@P_0lss
  019a4	8b 45 fc	 mov	 eax, DWORD PTR tv74[ebp]
  019a7	83 78 f8 00	 cmp	 DWORD PTR [eax-8], 0
  019ab	73 09		 jae	 SHORT $LN4@P_0lss
$LN6@P_0lss:
  019ad	c7 45 f8 ff ff
	ff ff		 mov	 DWORD PTR tv70[ebp], -1
  019b4	eb 07		 jmp	 SHORT $LN5@P_0lss
$LN4@P_0lss:
  019b6	c7 45 f8 00 00
	00 00		 mov	 DWORD PTR tv70[ebp], 0
$LN5@P_0lss:
  019bd	8b 45 f8	 mov	 eax, DWORD PTR tv70[ebp]
  019c0	99		 cdq
  019c1	8b 0d 00 00 00
	00		 mov	 ecx, DWORD PTR _stk
  019c7	89 41 f8	 mov	 DWORD PTR [ecx-8], eax
  019ca	89 51 fc	 mov	 DWORD PTR [ecx-4], edx
$LN2@P_0lss:

; 818  : }

  019cd	8b e5		 mov	 esp, ebp
  019cf	5d		 pop	 ebp
  019d0	c3		 ret	 0
_P_0lss	ENDP
_TEXT	ENDS
_BSS	SEGMENT
_hptr	DD	01H DUP (?)
_stacktop DD	01H DUP (?)
; Function compile flags: /Odtp
_BSS	ENDS
_TEXT	SEGMENT
_P_here	PROC

; 825  : {

  019e0	55		 push	 ebp
  019e1	8b ec		 mov	 ebp, esp

; 826  :     So(1);

  019e3	a1 00 00 00 00	 mov	 eax, DWORD PTR _stk
  019e8	83 c0 08	 add	 eax, 8
  019eb	3b 05 00 00 00
	00		 cmp	 eax, DWORD PTR _stacktop
  019f1	76 07		 jbe	 SHORT $LN1@P_here
  019f3	e8 00 00 00 00	 call	 _stakover
  019f8	eb 20		 jmp	 SHORT $LN2@P_here
$LN1@P_here:

; 827  :     Push = (stackitem) hptr;

  019fa	a1 00 00 00 00	 mov	 eax, DWORD PTR _hptr
  019ff	99		 cdq
  01a00	8b 0d 00 00 00
	00		 mov	 ecx, DWORD PTR _stk
  01a06	89 01		 mov	 DWORD PTR [ecx], eax
  01a08	89 51 04	 mov	 DWORD PTR [ecx+4], edx
  01a0b	8b 15 00 00 00
	00		 mov	 edx, DWORD PTR _stk
  01a11	83 c2 08	 add	 edx, 8
  01a14	89 15 00 00 00
	00		 mov	 DWORD PTR _stk, edx
$LN2@P_here:

; 828  : }

  01a1a	5d		 pop	 ebp
  01a1b	c3		 ret	 0
_P_here	ENDP
_TEXT	ENDS
_BSS	SEGMENT
_heaptop DD	01H DUP (?)
_heapbot DD	01H DUP (?)
; Function compile flags: /Odtp
_BSS	ENDS
_TEXT	SEGMENT
_P_bang	PROC

; 831  : {

  01a20	55		 push	 ebp
  01a21	8b ec		 mov	 ebp, esp

; 832  :     Sl(2);

  01a23	a1 00 00 00 00	 mov	 eax, DWORD PTR _stk
  01a28	2b 05 00 00 00
	00		 sub	 eax, DWORD PTR _stack
  01a2e	c1 f8 03	 sar	 eax, 3
  01a31	83 f8 02	 cmp	 eax, 2
  01a34	7d 07		 jge	 SHORT $LN3@P_bang
  01a36	e8 00 00 00 00	 call	 _stakunder
  01a3b	eb 51		 jmp	 SHORT $LN4@P_bang
$LN3@P_bang:

; 833  :     Hpc(S0);

  01a3d	8b 0d 00 00 00
	00		 mov	 ecx, DWORD PTR _stk
  01a43	8b 51 f8	 mov	 edx, DWORD PTR [ecx-8]
  01a46	3b 15 00 00 00
	00		 cmp	 edx, DWORD PTR _heapbot
  01a4c	72 10		 jb	 SHORT $LN1@P_bang
  01a4e	a1 00 00 00 00	 mov	 eax, DWORD PTR _stk
  01a53	8b 48 f8	 mov	 ecx, DWORD PTR [eax-8]
  01a56	3b 0d 00 00 00
	00		 cmp	 ecx, DWORD PTR _heaptop
  01a5c	72 07		 jb	 SHORT $LN2@P_bang
$LN1@P_bang:
  01a5e	e8 00 00 00 00	 call	 _badpointer
  01a63	eb 29		 jmp	 SHORT $LN4@P_bang
$LN2@P_bang:

; 834  :     *((stackitem *) S0) = S1;

  01a65	8b 15 00 00 00
	00		 mov	 edx, DWORD PTR _stk
  01a6b	8b 42 f8	 mov	 eax, DWORD PTR [edx-8]
  01a6e	8b 0d 00 00 00
	00		 mov	 ecx, DWORD PTR _stk
  01a74	8b 51 f0	 mov	 edx, DWORD PTR [ecx-16]
  01a77	89 10		 mov	 DWORD PTR [eax], edx
  01a79	8b 49 f4	 mov	 ecx, DWORD PTR [ecx-12]
  01a7c	89 48 04	 mov	 DWORD PTR [eax+4], ecx

; 835  :     Pop2;

  01a7f	8b 15 00 00 00
	00		 mov	 edx, DWORD PTR _stk
  01a85	83 ea 10	 sub	 edx, 16			; 00000010H
  01a88	89 15 00 00 00
	00		 mov	 DWORD PTR _stk, edx
$LN4@P_bang:

; 836  : }

  01a8e	5d		 pop	 ebp
  01a8f	c3		 ret	 0
_P_bang	ENDP
; Function compile flags: /Odtp
_P_at	PROC

; 839  : {

  01a90	55		 push	 ebp
  01a91	8b ec		 mov	 ebp, esp

; 840  :     Sl(1);

  01a93	a1 00 00 00 00	 mov	 eax, DWORD PTR _stk
  01a98	2b 05 00 00 00
	00		 sub	 eax, DWORD PTR _stack
  01a9e	c1 f8 03	 sar	 eax, 3
  01aa1	83 f8 01	 cmp	 eax, 1
  01aa4	7d 07		 jge	 SHORT $LN3@P_at
  01aa6	e8 00 00 00 00	 call	 _stakunder
  01aab	eb 42		 jmp	 SHORT $LN4@P_at
$LN3@P_at:

; 841  :     Hpc(S0);

  01aad	8b 0d 00 00 00
	00		 mov	 ecx, DWORD PTR _stk
  01ab3	8b 51 f8	 mov	 edx, DWORD PTR [ecx-8]
  01ab6	3b 15 00 00 00
	00		 cmp	 edx, DWORD PTR _heapbot
  01abc	72 10		 jb	 SHORT $LN1@P_at
  01abe	a1 00 00 00 00	 mov	 eax, DWORD PTR _stk
  01ac3	8b 48 f8	 mov	 ecx, DWORD PTR [eax-8]
  01ac6	3b 0d 00 00 00
	00		 cmp	 ecx, DWORD PTR _heaptop
  01acc	72 07		 jb	 SHORT $LN2@P_at
$LN1@P_at:
  01ace	e8 00 00 00 00	 call	 _badpointer
  01ad3	eb 1a		 jmp	 SHORT $LN4@P_at
$LN2@P_at:

; 842  :     S0 = *((stackitem *) S0);

  01ad5	8b 15 00 00 00
	00		 mov	 edx, DWORD PTR _stk
  01adb	8b 42 f8	 mov	 eax, DWORD PTR [edx-8]
  01ade	8b 0d 00 00 00
	00		 mov	 ecx, DWORD PTR _stk
  01ae4	8b 10		 mov	 edx, DWORD PTR [eax]
  01ae6	89 51 f8	 mov	 DWORD PTR [ecx-8], edx
  01ae9	8b 40 04	 mov	 eax, DWORD PTR [eax+4]
  01aec	89 41 fc	 mov	 DWORD PTR [ecx-4], eax
$LN4@P_at:

; 843  : }

  01aef	5d		 pop	 ebp
  01af0	c3		 ret	 0
_P_at	ENDP
; Function compile flags: /Odtp
_P_plusbang PROC

; 846  : {

  01b00	55		 push	 ebp
  01b01	8b ec		 mov	 ebp, esp

; 847  :     Sl(2);

  01b03	a1 00 00 00 00	 mov	 eax, DWORD PTR _stk
  01b08	2b 05 00 00 00
	00		 sub	 eax, DWORD PTR _stack
  01b0e	c1 f8 03	 sar	 eax, 3
  01b11	83 f8 02	 cmp	 eax, 2
  01b14	7d 07		 jge	 SHORT $LN3@P_plusbang
  01b16	e8 00 00 00 00	 call	 _stakunder
  01b1b	eb 5f		 jmp	 SHORT $LN4@P_plusbang
$LN3@P_plusbang:

; 848  :     Hpc(S0);

  01b1d	8b 0d 00 00 00
	00		 mov	 ecx, DWORD PTR _stk
  01b23	8b 51 f8	 mov	 edx, DWORD PTR [ecx-8]
  01b26	3b 15 00 00 00
	00		 cmp	 edx, DWORD PTR _heapbot
  01b2c	72 10		 jb	 SHORT $LN1@P_plusbang
  01b2e	a1 00 00 00 00	 mov	 eax, DWORD PTR _stk
  01b33	8b 48 f8	 mov	 ecx, DWORD PTR [eax-8]
  01b36	3b 0d 00 00 00
	00		 cmp	 ecx, DWORD PTR _heaptop
  01b3c	72 07		 jb	 SHORT $LN2@P_plusbang
$LN1@P_plusbang:
  01b3e	e8 00 00 00 00	 call	 _badpointer
  01b43	eb 37		 jmp	 SHORT $LN4@P_plusbang
$LN2@P_plusbang:

; 849  :     *((stackitem *) S0) += S1;

  01b45	8b 15 00 00 00
	00		 mov	 edx, DWORD PTR _stk
  01b4b	8b 42 f8	 mov	 eax, DWORD PTR [edx-8]
  01b4e	8b 0d 00 00 00
	00		 mov	 ecx, DWORD PTR _stk
  01b54	8b 10		 mov	 edx, DWORD PTR [eax]
  01b56	03 51 f0	 add	 edx, DWORD PTR [ecx-16]
  01b59	8b 40 04	 mov	 eax, DWORD PTR [eax+4]
  01b5c	13 41 f4	 adc	 eax, DWORD PTR [ecx-12]
  01b5f	8b 0d 00 00 00
	00		 mov	 ecx, DWORD PTR _stk
  01b65	8b 49 f8	 mov	 ecx, DWORD PTR [ecx-8]
  01b68	89 11		 mov	 DWORD PTR [ecx], edx
  01b6a	89 41 04	 mov	 DWORD PTR [ecx+4], eax

; 850  :     Pop2;

  01b6d	8b 15 00 00 00
	00		 mov	 edx, DWORD PTR _stk
  01b73	83 ea 10	 sub	 edx, 16			; 00000010H
  01b76	89 15 00 00 00
	00		 mov	 DWORD PTR _stk, edx
$LN4@P_plusbang:

; 851  : }

  01b7c	5d		 pop	 ebp
  01b7d	c3		 ret	 0
_P_plusbang ENDP
; Function compile flags: /Odtp
_n$ = -8						; size = 8
_P_allot PROC

; 854  : {

  01b80	55		 push	 ebp
  01b81	8b ec		 mov	 ebp, esp
  01b83	83 ec 08	 sub	 esp, 8

; 855  :     stackitem n;
; 856  : 
; 857  :     Sl(1);

  01b86	a1 00 00 00 00	 mov	 eax, DWORD PTR _stk
  01b8b	2b 05 00 00 00
	00		 sub	 eax, DWORD PTR _stack
  01b91	c1 f8 03	 sar	 eax, 3
  01b94	83 f8 01	 cmp	 eax, 1
  01b97	7d 07		 jge	 SHORT $LN2@P_allot
  01b99	e8 00 00 00 00	 call	 _stakunder
  01b9e	eb 74		 jmp	 SHORT $LN3@P_allot
$LN2@P_allot:

; 858  :     n = (S0 + (sizeof(stackitem) - 1)) / sizeof(stackitem);

  01ba0	8b 0d 00 00 00
	00		 mov	 ecx, DWORD PTR _stk
  01ba6	8b 51 f8	 mov	 edx, DWORD PTR [ecx-8]
  01ba9	83 c2 07	 add	 edx, 7
  01bac	8b 41 fc	 mov	 eax, DWORD PTR [ecx-4]
  01baf	83 d0 00	 adc	 eax, 0
  01bb2	6a 00		 push	 0
  01bb4	6a 08		 push	 8
  01bb6	50		 push	 eax
  01bb7	52		 push	 edx
  01bb8	e8 00 00 00 00	 call	 __alldiv
  01bbd	89 45 f8	 mov	 DWORD PTR _n$[ebp], eax
  01bc0	89 55 fc	 mov	 DWORD PTR _n$[ebp+4], edx

; 859  :     Pop;

  01bc3	8b 0d 00 00 00
	00		 mov	 ecx, DWORD PTR _stk
  01bc9	83 e9 08	 sub	 ecx, 8
  01bcc	89 0d 00 00 00
	00		 mov	 DWORD PTR _stk, ecx

; 860  :     Ho(n);

  01bd2	6a 00		 push	 0
  01bd4	6a 08		 push	 8
  01bd6	8b 55 fc	 mov	 edx, DWORD PTR _n$[ebp+4]
  01bd9	52		 push	 edx
  01bda	8b 45 f8	 mov	 eax, DWORD PTR _n$[ebp]
  01bdd	50		 push	 eax
  01bde	e8 00 00 00 00	 call	 __allmul
  01be3	03 05 00 00 00
	00		 add	 eax, DWORD PTR _hptr
  01be9	3b 05 00 00 00
	00		 cmp	 eax, DWORD PTR _heaptop
  01bef	76 07		 jbe	 SHORT $LN1@P_allot
  01bf1	e8 00 00 00 00	 call	 _heapover
  01bf6	eb 1c		 jmp	 SHORT $LN3@P_allot
$LN1@P_allot:

; 861  :     hptr += n;

  01bf8	6a 00		 push	 0
  01bfa	6a 08		 push	 8
  01bfc	8b 4d fc	 mov	 ecx, DWORD PTR _n$[ebp+4]
  01bff	51		 push	 ecx
  01c00	8b 55 f8	 mov	 edx, DWORD PTR _n$[ebp]
  01c03	52		 push	 edx
  01c04	e8 00 00 00 00	 call	 __allmul
  01c09	03 05 00 00 00
	00		 add	 eax, DWORD PTR _hptr
  01c0f	a3 00 00 00 00	 mov	 DWORD PTR _hptr, eax
$LN3@P_allot:

; 862  : }

  01c14	8b e5		 mov	 esp, ebp
  01c16	5d		 pop	 ebp
  01c17	c3		 ret	 0
_P_allot ENDP
; Function compile flags: /Odtp
_P_comma PROC

; 865  : {

  01c20	55		 push	 ebp
  01c21	8b ec		 mov	 ebp, esp

; 866  :     Sl(1);

  01c23	a1 00 00 00 00	 mov	 eax, DWORD PTR _stk
  01c28	2b 05 00 00 00
	00		 sub	 eax, DWORD PTR _stack
  01c2e	c1 f8 03	 sar	 eax, 3
  01c31	83 f8 01	 cmp	 eax, 1
  01c34	7d 07		 jge	 SHORT $LN2@P_comma
  01c36	e8 00 00 00 00	 call	 _stakunder
  01c3b	eb 4c		 jmp	 SHORT $LN3@P_comma
$LN2@P_comma:

; 867  :     Ho(1);

  01c3d	8b 0d 00 00 00
	00		 mov	 ecx, DWORD PTR _hptr
  01c43	83 c1 08	 add	 ecx, 8
  01c46	3b 0d 00 00 00
	00		 cmp	 ecx, DWORD PTR _heaptop
  01c4c	76 07		 jbe	 SHORT $LN1@P_comma
  01c4e	e8 00 00 00 00	 call	 _heapover
  01c53	eb 34		 jmp	 SHORT $LN3@P_comma
$LN1@P_comma:

; 868  :     Hstore = S0;

  01c55	8b 15 00 00 00
	00		 mov	 edx, DWORD PTR _hptr
  01c5b	a1 00 00 00 00	 mov	 eax, DWORD PTR _stk
  01c60	8b 48 f8	 mov	 ecx, DWORD PTR [eax-8]
  01c63	89 0a		 mov	 DWORD PTR [edx], ecx
  01c65	8b 40 fc	 mov	 eax, DWORD PTR [eax-4]
  01c68	89 42 04	 mov	 DWORD PTR [edx+4], eax
  01c6b	8b 0d 00 00 00
	00		 mov	 ecx, DWORD PTR _hptr
  01c71	83 c1 08	 add	 ecx, 8
  01c74	89 0d 00 00 00
	00		 mov	 DWORD PTR _hptr, ecx

; 869  :     Pop;

  01c7a	8b 15 00 00 00
	00		 mov	 edx, DWORD PTR _stk
  01c80	83 ea 08	 sub	 edx, 8
  01c83	89 15 00 00 00
	00		 mov	 DWORD PTR _stk, edx
$LN3@P_comma:

; 870  : }

  01c89	5d		 pop	 ebp
  01c8a	c3		 ret	 0
_P_comma ENDP
; Function compile flags: /Odtp
_P_cbang PROC

; 873  : {

  01c90	55		 push	 ebp
  01c91	8b ec		 mov	 ebp, esp

; 874  :     Sl(2);

  01c93	a1 00 00 00 00	 mov	 eax, DWORD PTR _stk
  01c98	2b 05 00 00 00
	00		 sub	 eax, DWORD PTR _stack
  01c9e	c1 f8 03	 sar	 eax, 3
  01ca1	83 f8 02	 cmp	 eax, 2
  01ca4	7d 07		 jge	 SHORT $LN3@P_cbang
  01ca6	e8 00 00 00 00	 call	 _stakunder
  01cab	eb 49		 jmp	 SHORT $LN4@P_cbang
$LN3@P_cbang:

; 875  :     Hpc(S0);

  01cad	8b 0d 00 00 00
	00		 mov	 ecx, DWORD PTR _stk
  01cb3	8b 51 f8	 mov	 edx, DWORD PTR [ecx-8]
  01cb6	3b 15 00 00 00
	00		 cmp	 edx, DWORD PTR _heapbot
  01cbc	72 10		 jb	 SHORT $LN1@P_cbang
  01cbe	a1 00 00 00 00	 mov	 eax, DWORD PTR _stk
  01cc3	8b 48 f8	 mov	 ecx, DWORD PTR [eax-8]
  01cc6	3b 0d 00 00 00
	00		 cmp	 ecx, DWORD PTR _heaptop
  01ccc	72 07		 jb	 SHORT $LN2@P_cbang
$LN1@P_cbang:
  01cce	e8 00 00 00 00	 call	 _badpointer
  01cd3	eb 21		 jmp	 SHORT $LN4@P_cbang
$LN2@P_cbang:

; 876  :     *((unsigned char *) S0) = S1;

  01cd5	8b 15 00 00 00
	00		 mov	 edx, DWORD PTR _stk
  01cdb	8b 42 f8	 mov	 eax, DWORD PTR [edx-8]
  01cde	8b 0d 00 00 00
	00		 mov	 ecx, DWORD PTR _stk
  01ce4	8a 51 f0	 mov	 dl, BYTE PTR [ecx-16]
  01ce7	88 10		 mov	 BYTE PTR [eax], dl

; 877  :     Pop2;

  01ce9	a1 00 00 00 00	 mov	 eax, DWORD PTR _stk
  01cee	83 e8 10	 sub	 eax, 16			; 00000010H
  01cf1	a3 00 00 00 00	 mov	 DWORD PTR _stk, eax
$LN4@P_cbang:

; 878  : }

  01cf6	5d		 pop	 ebp
  01cf7	c3		 ret	 0
_P_cbang ENDP
; Function compile flags: /Odtp
_P_cat	PROC

; 881  : {

  01d00	55		 push	 ebp
  01d01	8b ec		 mov	 ebp, esp

; 882  :     Sl(1);

  01d03	a1 00 00 00 00	 mov	 eax, DWORD PTR _stk
  01d08	2b 05 00 00 00
	00		 sub	 eax, DWORD PTR _stack
  01d0e	c1 f8 03	 sar	 eax, 3
  01d11	83 f8 01	 cmp	 eax, 1
  01d14	7d 07		 jge	 SHORT $LN3@P_cat
  01d16	e8 00 00 00 00	 call	 _stakunder
  01d1b	eb 41		 jmp	 SHORT $LN4@P_cat
$LN3@P_cat:

; 883  :     Hpc(S0);

  01d1d	8b 0d 00 00 00
	00		 mov	 ecx, DWORD PTR _stk
  01d23	8b 51 f8	 mov	 edx, DWORD PTR [ecx-8]
  01d26	3b 15 00 00 00
	00		 cmp	 edx, DWORD PTR _heapbot
  01d2c	72 10		 jb	 SHORT $LN1@P_cat
  01d2e	a1 00 00 00 00	 mov	 eax, DWORD PTR _stk
  01d33	8b 48 f8	 mov	 ecx, DWORD PTR [eax-8]
  01d36	3b 0d 00 00 00
	00		 cmp	 ecx, DWORD PTR _heaptop
  01d3c	72 07		 jb	 SHORT $LN2@P_cat
$LN1@P_cat:
  01d3e	e8 00 00 00 00	 call	 _badpointer
  01d43	eb 19		 jmp	 SHORT $LN4@P_cat
$LN2@P_cat:

; 884  :     S0 = *((unsigned char *) S0);

  01d45	8b 15 00 00 00
	00		 mov	 edx, DWORD PTR _stk
  01d4b	8b 42 f8	 mov	 eax, DWORD PTR [edx-8]
  01d4e	0f b6 00	 movzx	 eax, BYTE PTR [eax]
  01d51	99		 cdq
  01d52	8b 0d 00 00 00
	00		 mov	 ecx, DWORD PTR _stk
  01d58	89 41 f8	 mov	 DWORD PTR [ecx-8], eax
  01d5b	89 51 fc	 mov	 DWORD PTR [ecx-4], edx
$LN4@P_cat:

; 885  : }

  01d5e	5d		 pop	 ebp
  01d5f	c3		 ret	 0
_P_cat	ENDP
; Function compile flags: /Odtp
_chp$ = -4						; size = 4
_P_ccomma PROC

; 888  : {

  01d60	55		 push	 ebp
  01d61	8b ec		 mov	 ebp, esp
  01d63	51		 push	 ecx

; 889  :     unsigned char *chp;
; 890  : 
; 891  :     Sl(1);

  01d64	a1 00 00 00 00	 mov	 eax, DWORD PTR _stk
  01d69	2b 05 00 00 00
	00		 sub	 eax, DWORD PTR _stack
  01d6f	c1 f8 03	 sar	 eax, 3
  01d72	83 f8 01	 cmp	 eax, 1
  01d75	7d 07		 jge	 SHORT $LN2@P_ccomma
  01d77	e8 00 00 00 00	 call	 _stakunder
  01d7c	eb 4f		 jmp	 SHORT $LN3@P_ccomma
$LN2@P_ccomma:

; 892  :     Ho(1);

  01d7e	8b 0d 00 00 00
	00		 mov	 ecx, DWORD PTR _hptr
  01d84	83 c1 08	 add	 ecx, 8
  01d87	3b 0d 00 00 00
	00		 cmp	 ecx, DWORD PTR _heaptop
  01d8d	76 07		 jbe	 SHORT $LN1@P_ccomma
  01d8f	e8 00 00 00 00	 call	 _heapover
  01d94	eb 37		 jmp	 SHORT $LN3@P_ccomma
$LN1@P_ccomma:

; 893  :     chp = ((unsigned char *) hptr);

  01d96	8b 15 00 00 00
	00		 mov	 edx, DWORD PTR _hptr
  01d9c	89 55 fc	 mov	 DWORD PTR _chp$[ebp], edx

; 894  :     *chp++ = S0;

  01d9f	a1 00 00 00 00	 mov	 eax, DWORD PTR _stk
  01da4	8a 48 f8	 mov	 cl, BYTE PTR [eax-8]
  01da7	8b 55 fc	 mov	 edx, DWORD PTR _chp$[ebp]
  01daa	88 0a		 mov	 BYTE PTR [edx], cl
  01dac	8b 45 fc	 mov	 eax, DWORD PTR _chp$[ebp]
  01daf	83 c0 01	 add	 eax, 1
  01db2	89 45 fc	 mov	 DWORD PTR _chp$[ebp], eax

; 895  :     hptr = (stackitem *) chp;

  01db5	8b 4d fc	 mov	 ecx, DWORD PTR _chp$[ebp]
  01db8	89 0d 00 00 00
	00		 mov	 DWORD PTR _hptr, ecx

; 896  :     Pop;

  01dbe	8b 15 00 00 00
	00		 mov	 edx, DWORD PTR _stk
  01dc4	83 ea 08	 sub	 edx, 8
  01dc7	89 15 00 00 00
	00		 mov	 DWORD PTR _stk, edx
$LN3@P_ccomma:

; 897  : }

  01dcd	8b e5		 mov	 esp, ebp
  01dcf	5d		 pop	 ebp
  01dd0	c3		 ret	 0
_P_ccomma ENDP
; Function compile flags: /Odtp
_chp$83212 = -12					; size = 4
_n$ = -8						; size = 8
_P_cequal PROC

; 900  : {				      /* a series of bytes. */

  01de0	55		 push	 ebp
  01de1	8b ec		 mov	 ebp, esp
  01de3	83 ec 0c	 sub	 esp, 12			; 0000000cH
  01de6	56		 push	 esi

; 901  :     stackitem n = (((stackitem) hptr) - ((stackitem) heap)) %
; 902  : 			(sizeof(stackitem));

  01de7	a1 00 00 00 00	 mov	 eax, DWORD PTR _hptr
  01dec	99		 cdq
  01ded	8b c8		 mov	 ecx, eax
  01def	8b f2		 mov	 esi, edx
  01df1	a1 00 00 00 00	 mov	 eax, DWORD PTR _heap
  01df6	99		 cdq
  01df7	2b c8		 sub	 ecx, eax
  01df9	1b f2		 sbb	 esi, edx
  01dfb	6a 00		 push	 0
  01dfd	6a 08		 push	 8
  01dff	56		 push	 esi
  01e00	51		 push	 ecx
  01e01	e8 00 00 00 00	 call	 __allrem
  01e06	89 45 f8	 mov	 DWORD PTR _n$[ebp], eax
  01e09	89 55 fc	 mov	 DWORD PTR _n$[ebp+4], edx

; 903  : 
; 904  :     if (n != 0) {

  01e0c	8b 55 f8	 mov	 edx, DWORD PTR _n$[ebp]
  01e0f	0b 55 fc	 or	 edx, DWORD PTR _n$[ebp+4]
  01e12	74 26		 je	 SHORT $LN2@P_cequal

; 905  : 	char *chp = ((char *) hptr);

  01e14	a1 00 00 00 00	 mov	 eax, DWORD PTR _hptr
  01e19	89 45 f4	 mov	 DWORD PTR _chp$83212[ebp], eax

; 906  : 
; 907  : 	chp += sizeof(stackitem) - n;

  01e1c	b9 08 00 00 00	 mov	 ecx, 8
  01e21	2b 4d f8	 sub	 ecx, DWORD PTR _n$[ebp]
  01e24	ba 00 00 00 00	 mov	 edx, 0
  01e29	1b 55 fc	 sbb	 edx, DWORD PTR _n$[ebp+4]
  01e2c	03 4d f4	 add	 ecx, DWORD PTR _chp$83212[ebp]
  01e2f	89 4d f4	 mov	 DWORD PTR _chp$83212[ebp], ecx

; 908  : 	hptr = ((stackitem *) chp);

  01e32	8b 45 f4	 mov	 eax, DWORD PTR _chp$83212[ebp]
  01e35	a3 00 00 00 00	 mov	 DWORD PTR _hptr, eax
$LN2@P_cequal:

; 909  :     }
; 910  : }

  01e3a	5e		 pop	 esi
  01e3b	8b e5		 mov	 esp, ebp
  01e3d	5d		 pop	 ebp
  01e3e	c3		 ret	 0
_P_cequal ENDP
; Function compile flags: /Odtp
_P_create PROC

; 921  : {

  01e40	55		 push	 ebp
  01e41	8b ec		 mov	 ebp, esp

; 922  :     defpend = True;		      /* Set definition pending */

  01e43	c7 05 00 00 00
	00 01 00 00 00	 mov	 DWORD PTR _defpend, 1

; 923  :     Ho(Dictwordl);

  01e4d	a1 00 00 00 00	 mov	 eax, DWORD PTR _hptr
  01e52	83 c0 10	 add	 eax, 16			; 00000010H
  01e55	3b 05 00 00 00
	00		 cmp	 eax, DWORD PTR _heaptop
  01e5b	76 07		 jbe	 SHORT $LN1@P_create
  01e5d	e8 00 00 00 00	 call	 _heapover
  01e62	eb 34		 jmp	 SHORT $LN2@P_create
$LN1@P_create:

; 924  :     createword = (dictword *) hptr;   /* Develop address of word */

  01e64	8b 0d 00 00 00
	00		 mov	 ecx, DWORD PTR _hptr
  01e6a	89 0d 00 00 00
	00		 mov	 DWORD PTR _createword, ecx

; 925  :     createword->wname = NULL;	      /* Clear pointer to name string */

  01e70	8b 15 00 00 00
	00		 mov	 edx, DWORD PTR _createword
  01e76	c7 42 04 00 00
	00 00		 mov	 DWORD PTR [edx+4], 0

; 926  :     createword->wcode = P_var;	      /* Store default code */

  01e7d	a1 00 00 00 00	 mov	 eax, DWORD PTR _createword
  01e82	c7 40 08 00 00
	00 00		 mov	 DWORD PTR [eax+8], OFFSET _P_var

; 927  :     hptr += Dictwordl;		      /* Allocate heap space for word */

  01e89	8b 0d 00 00 00
	00		 mov	 ecx, DWORD PTR _hptr
  01e8f	83 c1 10	 add	 ecx, 16			; 00000010H
  01e92	89 0d 00 00 00
	00		 mov	 DWORD PTR _hptr, ecx
$LN2@P_create:

; 928  : }

  01e98	5d		 pop	 ebp
  01e99	c3		 ret	 0
_P_create ENDP
; Function compile flags: /Odtp
_P_var	PROC

; 915  : {

  01ea0	55		 push	 ebp
  01ea1	8b ec		 mov	 ebp, esp

; 916  :     So(1);

  01ea3	a1 00 00 00 00	 mov	 eax, DWORD PTR _stk
  01ea8	83 c0 08	 add	 eax, 8
  01eab	3b 05 00 00 00
	00		 cmp	 eax, DWORD PTR _stacktop
  01eb1	76 07		 jbe	 SHORT $LN1@P_var
  01eb3	e8 00 00 00 00	 call	 _stakover
  01eb8	eb 23		 jmp	 SHORT $LN2@P_var
$LN1@P_var:

; 917  :     Push = (stackitem) (((stackitem *) curword) + Dictwordl);

  01eba	a1 00 00 00 00	 mov	 eax, DWORD PTR _curword
  01ebf	83 c0 10	 add	 eax, 16			; 00000010H
  01ec2	99		 cdq
  01ec3	8b 0d 00 00 00
	00		 mov	 ecx, DWORD PTR _stk
  01ec9	89 01		 mov	 DWORD PTR [ecx], eax
  01ecb	89 51 04	 mov	 DWORD PTR [ecx+4], edx
  01ece	8b 15 00 00 00
	00		 mov	 edx, DWORD PTR _stk
  01ed4	83 c2 08	 add	 edx, 8
  01ed7	89 15 00 00 00
	00		 mov	 DWORD PTR _stk, edx
$LN2@P_var:

; 918  : }

  01edd	5d		 pop	 ebp
  01ede	c3		 ret	 0
_P_var	ENDP
; Function compile flags: /Odtp
_P_forget PROC

; 931  : {

  01ee0	55		 push	 ebp
  01ee1	8b ec		 mov	 ebp, esp

; 932  :     forgetpend = True;		      /* Mark forget pending */

  01ee3	c7 05 00 00 00
	00 01 00 00 00	 mov	 DWORD PTR _forgetpend, 1

; 933  : }

  01eed	5d		 pop	 ebp
  01eee	c3		 ret	 0
_P_forget ENDP
; Function compile flags: /Odtp
_P_variable PROC

; 936  : {

  01ef0	55		 push	 ebp
  01ef1	8b ec		 mov	 ebp, esp

; 937  :     P_create(); 		      /* Create dictionary item */

  01ef3	e8 00 00 00 00	 call	 _P_create

; 938  :     Ho(1);

  01ef8	a1 00 00 00 00	 mov	 eax, DWORD PTR _hptr
  01efd	83 c0 08	 add	 eax, 8
  01f00	3b 05 00 00 00
	00		 cmp	 eax, DWORD PTR _heaptop
  01f06	76 07		 jbe	 SHORT $LN1@P_variable
  01f08	e8 00 00 00 00	 call	 _heapover
  01f0d	eb 22		 jmp	 SHORT $LN2@P_variable
$LN1@P_variable:

; 939  :     Hstore = 0; 		      /* Initial value = 0 */

  01f0f	8b 0d 00 00 00
	00		 mov	 ecx, DWORD PTR _hptr
  01f15	c7 01 00 00 00
	00		 mov	 DWORD PTR [ecx], 0
  01f1b	c7 41 04 00 00
	00 00		 mov	 DWORD PTR [ecx+4], 0
  01f22	8b 15 00 00 00
	00		 mov	 edx, DWORD PTR _hptr
  01f28	83 c2 08	 add	 edx, 8
  01f2b	89 15 00 00 00
	00		 mov	 DWORD PTR _hptr, edx
$LN2@P_variable:

; 940  : }

  01f31	5d		 pop	 ebp
  01f32	c3		 ret	 0
_P_variable ENDP
; Function compile flags: /Odtp
_P_constant PROC

; 949  : {

  01f40	55		 push	 ebp
  01f41	8b ec		 mov	 ebp, esp

; 950  :     Sl(1);

  01f43	a1 00 00 00 00	 mov	 eax, DWORD PTR _stk
  01f48	2b 05 00 00 00
	00		 sub	 eax, DWORD PTR _stack
  01f4e	c1 f8 03	 sar	 eax, 3
  01f51	83 f8 01	 cmp	 eax, 1
  01f54	7d 07		 jge	 SHORT $LN2@P_constant
  01f56	e8 00 00 00 00	 call	 _stakunder
  01f5b	eb 5c		 jmp	 SHORT $LN3@P_constant
$LN2@P_constant:

; 951  :     P_create(); 		      /* Create dictionary item */

  01f5d	e8 00 00 00 00	 call	 _P_create

; 952  :     createword->wcode = P_con;	      /* Set code to constant push */

  01f62	8b 0d 00 00 00
	00		 mov	 ecx, DWORD PTR _createword
  01f68	c7 41 08 00 00
	00 00		 mov	 DWORD PTR [ecx+8], OFFSET _P_con

; 953  :     Ho(1);

  01f6f	8b 15 00 00 00
	00		 mov	 edx, DWORD PTR _hptr
  01f75	83 c2 08	 add	 edx, 8
  01f78	3b 15 00 00 00
	00		 cmp	 edx, DWORD PTR _heaptop
  01f7e	76 07		 jbe	 SHORT $LN1@P_constant
  01f80	e8 00 00 00 00	 call	 _heapover
  01f85	eb 32		 jmp	 SHORT $LN3@P_constant
$LN1@P_constant:

; 954  :     Hstore = S0;		      /* Store constant value in body */

  01f87	a1 00 00 00 00	 mov	 eax, DWORD PTR _hptr
  01f8c	8b 0d 00 00 00
	00		 mov	 ecx, DWORD PTR _stk
  01f92	8b 51 f8	 mov	 edx, DWORD PTR [ecx-8]
  01f95	89 10		 mov	 DWORD PTR [eax], edx
  01f97	8b 49 fc	 mov	 ecx, DWORD PTR [ecx-4]
  01f9a	89 48 04	 mov	 DWORD PTR [eax+4], ecx
  01f9d	8b 15 00 00 00
	00		 mov	 edx, DWORD PTR _hptr
  01fa3	83 c2 08	 add	 edx, 8
  01fa6	89 15 00 00 00
	00		 mov	 DWORD PTR _hptr, edx

; 955  :     Pop;

  01fac	a1 00 00 00 00	 mov	 eax, DWORD PTR _stk
  01fb1	83 e8 08	 sub	 eax, 8
  01fb4	a3 00 00 00 00	 mov	 DWORD PTR _stk, eax
$LN3@P_constant:

; 956  : }

  01fb9	5d		 pop	 ebp
  01fba	c3		 ret	 0
_P_constant ENDP
; Function compile flags: /Odtp
_P_con	PROC

; 943  : {

  01fc0	55		 push	 ebp
  01fc1	8b ec		 mov	 ebp, esp

; 944  :     So(1);

  01fc3	a1 00 00 00 00	 mov	 eax, DWORD PTR _stk
  01fc8	83 c0 08	 add	 eax, 8
  01fcb	3b 05 00 00 00
	00		 cmp	 eax, DWORD PTR _stacktop
  01fd1	76 07		 jbe	 SHORT $LN1@P_con
  01fd3	e8 00 00 00 00	 call	 _stakover
  01fd8	eb 24		 jmp	 SHORT $LN2@P_con
$LN1@P_con:

; 945  :     Push = *(((stackitem *) curword) + Dictwordl);

  01fda	8b 0d 00 00 00
	00		 mov	 ecx, DWORD PTR _stk
  01fe0	8b 15 00 00 00
	00		 mov	 edx, DWORD PTR _curword
  01fe6	8b 42 10	 mov	 eax, DWORD PTR [edx+16]
  01fe9	89 01		 mov	 DWORD PTR [ecx], eax
  01feb	8b 52 14	 mov	 edx, DWORD PTR [edx+20]
  01fee	89 51 04	 mov	 DWORD PTR [ecx+4], edx
  01ff1	a1 00 00 00 00	 mov	 eax, DWORD PTR _stk
  01ff6	83 c0 08	 add	 eax, 8
  01ff9	a3 00 00 00 00	 mov	 DWORD PTR _stk, eax
$LN2@P_con:

; 946  : }

  01ffe	5d		 pop	 ebp
  01fff	c3		 ret	 0
_P_con	ENDP
; Function compile flags: /Odtp
tv166 = -28						; size = 4
tv153 = -24						; size = 4
tv147 = -20						; size = 4
_isp$ = -16						; size = 4
_asize$ = -12						; size = 4
_nsubs$ = -8						; size = 4
_i$ = -4						; size = 4
_P_array PROC

; 996  : {				      /* sub1 sub2 ... subn n esize -- array */

  02000	55		 push	 ebp
  02001	8b ec		 mov	 ebp, esp
  02003	83 ec 1c	 sub	 esp, 28			; 0000001cH
  02006	56		 push	 esi

; 997  :     int i, nsubs, asize = 1;

  02007	c7 45 f4 01 00
	00 00		 mov	 DWORD PTR _asize$[ebp], 1

; 998  :     stackitem *isp;
; 999  : 
; 1000 :     Sl(2);

  0200e	a1 00 00 00 00	 mov	 eax, DWORD PTR _stk
  02013	2b 05 00 00 00
	00		 sub	 eax, DWORD PTR _stack
  02019	c1 f8 03	 sar	 eax, 3
  0201c	83 f8 02	 cmp	 eax, 2
  0201f	7d 0a		 jge	 SHORT $LN14@P_array
  02021	e8 00 00 00 00	 call	 _stakunder
  02026	e9 1c 02 00 00	 jmp	 $LN15@P_array
$LN14@P_array:

; 1001 : #ifndef NOMEMCHECK
; 1002 :     if (S0 <= 0)

  0202b	8b 0d 00 00 00
	00		 mov	 ecx, DWORD PTR _stk
  02031	89 4d ec	 mov	 DWORD PTR tv147[ebp], ecx
  02034	8b 55 ec	 mov	 edx, DWORD PTR tv147[ebp]
  02037	83 7a fc 00	 cmp	 DWORD PTR [edx-4], 0
  0203b	7f 18		 jg	 SHORT $LN13@P_array
  0203d	7c 09		 jl	 SHORT $LN17@P_array
  0203f	8b 45 ec	 mov	 eax, DWORD PTR tv147[ebp]
  02042	83 78 f8 00	 cmp	 DWORD PTR [eax-8], 0
  02046	77 0d		 ja	 SHORT $LN13@P_array
$LN17@P_array:

; 1003 :         trouble("Bad array element size");

  02048	68 00 00 00 00	 push	 OFFSET $SG83292
  0204d	e8 00 00 00 00	 call	 _trouble
  02052	83 c4 04	 add	 esp, 4
$LN13@P_array:

; 1004 :     if (S1 <= 0)

  02055	8b 0d 00 00 00
	00		 mov	 ecx, DWORD PTR _stk
  0205b	89 4d e8	 mov	 DWORD PTR tv153[ebp], ecx
  0205e	8b 55 e8	 mov	 edx, DWORD PTR tv153[ebp]
  02061	83 7a f4 00	 cmp	 DWORD PTR [edx-12], 0
  02065	7f 18		 jg	 SHORT $LN12@P_array
  02067	7c 09		 jl	 SHORT $LN18@P_array
  02069	8b 45 e8	 mov	 eax, DWORD PTR tv153[ebp]
  0206c	83 78 f0 00	 cmp	 DWORD PTR [eax-16], 0
  02070	77 0d		 ja	 SHORT $LN12@P_array
$LN18@P_array:

; 1005 :         trouble("Bad array subscript count");

  02072	68 00 00 00 00	 push	 OFFSET $SG83294
  02077	e8 00 00 00 00	 call	 _trouble
  0207c	83 c4 04	 add	 esp, 4
$LN12@P_array:

; 1006 : #endif /* NOMEMCHECK */
; 1007 : 
; 1008 :     nsubs = S1; 		      /* Number of subscripts */

  0207f	8b 0d 00 00 00
	00		 mov	 ecx, DWORD PTR _stk
  02085	8b 51 f0	 mov	 edx, DWORD PTR [ecx-16]
  02088	89 55 f8	 mov	 DWORD PTR _nsubs$[ebp], edx

; 1009 :     Sl(nsubs + 2);		      /* Verify that dimensions are present */

  0208b	a1 00 00 00 00	 mov	 eax, DWORD PTR _stk
  02090	2b 05 00 00 00
	00		 sub	 eax, DWORD PTR _stack
  02096	c1 f8 03	 sar	 eax, 3
  02099	8b 4d f8	 mov	 ecx, DWORD PTR _nsubs$[ebp]
  0209c	83 c1 02	 add	 ecx, 2
  0209f	3b c1		 cmp	 eax, ecx
  020a1	7d 0a		 jge	 SHORT $LN11@P_array
  020a3	e8 00 00 00 00	 call	 _stakunder
  020a8	e9 9a 01 00 00	 jmp	 $LN15@P_array
$LN11@P_array:

; 1010 : 
; 1011 :     /* Calculate size of array as the product of the subscripts */
; 1012 : 
; 1013 :     asize = S0; 		      /* Fundamental element size */

  020ad	8b 15 00 00 00
	00		 mov	 edx, DWORD PTR _stk
  020b3	8b 42 f8	 mov	 eax, DWORD PTR [edx-8]
  020b6	89 45 f4	 mov	 DWORD PTR _asize$[ebp], eax

; 1014 :     isp = &S2;

  020b9	8b 0d 00 00 00
	00		 mov	 ecx, DWORD PTR _stk
  020bf	83 e9 18	 sub	 ecx, 24			; 00000018H
  020c2	89 4d f0	 mov	 DWORD PTR _isp$[ebp], ecx

; 1015 :     for (i = 0; i < nsubs; i++) {

  020c5	c7 45 fc 00 00
	00 00		 mov	 DWORD PTR _i$[ebp], 0
  020cc	eb 09		 jmp	 SHORT $LN10@P_array
$LN9@P_array:
  020ce	8b 55 fc	 mov	 edx, DWORD PTR _i$[ebp]
  020d1	83 c2 01	 add	 edx, 1
  020d4	89 55 fc	 mov	 DWORD PTR _i$[ebp], edx
$LN10@P_array:
  020d7	8b 45 fc	 mov	 eax, DWORD PTR _i$[ebp]
  020da	3b 45 f8	 cmp	 eax, DWORD PTR _nsubs$[ebp]
  020dd	7d 49		 jge	 SHORT $LN8@P_array

; 1016 : #ifndef NOMEMCHECK
; 1017 : 	if (*isp <= 0)

  020df	8b 4d f0	 mov	 ecx, DWORD PTR _isp$[ebp]
  020e2	89 4d e4	 mov	 DWORD PTR tv166[ebp], ecx
  020e5	8b 55 e4	 mov	 edx, DWORD PTR tv166[ebp]
  020e8	83 7a 04 00	 cmp	 DWORD PTR [edx+4], 0
  020ec	7f 17		 jg	 SHORT $LN7@P_array
  020ee	7c 08		 jl	 SHORT $LN19@P_array
  020f0	8b 45 e4	 mov	 eax, DWORD PTR tv166[ebp]
  020f3	83 38 00	 cmp	 DWORD PTR [eax], 0
  020f6	77 0d		 ja	 SHORT $LN7@P_array
$LN19@P_array:

; 1018 :             trouble("Bad array dimension");

  020f8	68 00 00 00 00	 push	 OFFSET $SG83300
  020fd	e8 00 00 00 00	 call	 _trouble
  02102	83 c4 04	 add	 esp, 4
$LN7@P_array:

; 1019 : #endif /* NOMEMCHECK */
; 1020 : 	asize *= *isp--;

  02105	8b 45 f4	 mov	 eax, DWORD PTR _asize$[ebp]
  02108	99		 cdq
  02109	8b 4d f0	 mov	 ecx, DWORD PTR _isp$[ebp]
  0210c	8b 71 04	 mov	 esi, DWORD PTR [ecx+4]
  0210f	56		 push	 esi
  02110	8b 09		 mov	 ecx, DWORD PTR [ecx]
  02112	51		 push	 ecx
  02113	52		 push	 edx
  02114	50		 push	 eax
  02115	e8 00 00 00 00	 call	 __allmul
  0211a	89 45 f4	 mov	 DWORD PTR _asize$[ebp], eax
  0211d	8b 55 f0	 mov	 edx, DWORD PTR _isp$[ebp]
  02120	83 ea 08	 sub	 edx, 8
  02123	89 55 f0	 mov	 DWORD PTR _isp$[ebp], edx

; 1021 :     }

  02126	eb a6		 jmp	 SHORT $LN9@P_array
$LN8@P_array:

; 1022 : 
; 1023 :     asize = (asize + (sizeof(stackitem) - 1)) / sizeof(stackitem);

  02128	8b 45 f4	 mov	 eax, DWORD PTR _asize$[ebp]
  0212b	83 c0 07	 add	 eax, 7
  0212e	c1 e8 03	 shr	 eax, 3
  02131	89 45 f4	 mov	 DWORD PTR _asize$[ebp], eax

; 1024 :     Ho(asize + nsubs + 2);	      /* Reserve space for array and header */

  02134	8b 4d f4	 mov	 ecx, DWORD PTR _asize$[ebp]
  02137	03 4d f8	 add	 ecx, DWORD PTR _nsubs$[ebp]
  0213a	8b 15 00 00 00
	00		 mov	 edx, DWORD PTR _hptr
  02140	8d 44 ca 10	 lea	 eax, DWORD PTR [edx+ecx*8+16]
  02144	3b 05 00 00 00
	00		 cmp	 eax, DWORD PTR _heaptop
  0214a	76 0a		 jbe	 SHORT $LN6@P_array
  0214c	e8 00 00 00 00	 call	 _heapover
  02151	e9 f1 00 00 00	 jmp	 $LN15@P_array
$LN6@P_array:

; 1025 :     P_create(); 		      /* Create variable */

  02156	e8 00 00 00 00	 call	 _P_create

; 1026 :     createword->wcode = P_arraysub;   /* Set method to subscript calculate */

  0215b	8b 0d 00 00 00
	00		 mov	 ecx, DWORD PTR _createword
  02161	c7 41 08 00 00
	00 00		 mov	 DWORD PTR [ecx+8], OFFSET _P_arraysub

; 1027 :     Hstore = nsubs;		      /* Header <- Number of subscripts */

  02168	8b 45 f8	 mov	 eax, DWORD PTR _nsubs$[ebp]
  0216b	99		 cdq
  0216c	8b 0d 00 00 00
	00		 mov	 ecx, DWORD PTR _hptr
  02172	89 01		 mov	 DWORD PTR [ecx], eax
  02174	89 51 04	 mov	 DWORD PTR [ecx+4], edx
  02177	8b 15 00 00 00
	00		 mov	 edx, DWORD PTR _hptr
  0217d	83 c2 08	 add	 edx, 8
  02180	89 15 00 00 00
	00		 mov	 DWORD PTR _hptr, edx

; 1028 :     Hstore = S0;		      /* Header <- Fundamental element size */

  02186	a1 00 00 00 00	 mov	 eax, DWORD PTR _hptr
  0218b	8b 0d 00 00 00
	00		 mov	 ecx, DWORD PTR _stk
  02191	8b 51 f8	 mov	 edx, DWORD PTR [ecx-8]
  02194	89 10		 mov	 DWORD PTR [eax], edx
  02196	8b 49 fc	 mov	 ecx, DWORD PTR [ecx-4]
  02199	89 48 04	 mov	 DWORD PTR [eax+4], ecx
  0219c	8b 15 00 00 00
	00		 mov	 edx, DWORD PTR _hptr
  021a2	83 c2 08	 add	 edx, 8
  021a5	89 15 00 00 00
	00		 mov	 DWORD PTR _hptr, edx

; 1029 :     isp = &S2;

  021ab	a1 00 00 00 00	 mov	 eax, DWORD PTR _stk
  021b0	83 e8 18	 sub	 eax, 24			; 00000018H
  021b3	89 45 f0	 mov	 DWORD PTR _isp$[ebp], eax

; 1030 :     for (i = 0; i < nsubs; i++) {     /* Header <- Store subscripts */

  021b6	c7 45 fc 00 00
	00 00		 mov	 DWORD PTR _i$[ebp], 0
  021bd	eb 09		 jmp	 SHORT $LN5@P_array
$LN4@P_array:
  021bf	8b 4d fc	 mov	 ecx, DWORD PTR _i$[ebp]
  021c2	83 c1 01	 add	 ecx, 1
  021c5	89 4d fc	 mov	 DWORD PTR _i$[ebp], ecx
$LN5@P_array:
  021c8	8b 55 fc	 mov	 edx, DWORD PTR _i$[ebp]
  021cb	3b 55 f8	 cmp	 edx, DWORD PTR _nsubs$[ebp]
  021ce	7d 2c		 jge	 SHORT $LN2@P_array

; 1031 : 	Hstore = *isp--;

  021d0	a1 00 00 00 00	 mov	 eax, DWORD PTR _hptr
  021d5	8b 4d f0	 mov	 ecx, DWORD PTR _isp$[ebp]
  021d8	8b 11		 mov	 edx, DWORD PTR [ecx]
  021da	89 10		 mov	 DWORD PTR [eax], edx
  021dc	8b 49 04	 mov	 ecx, DWORD PTR [ecx+4]
  021df	89 48 04	 mov	 DWORD PTR [eax+4], ecx
  021e2	8b 15 00 00 00
	00		 mov	 edx, DWORD PTR _hptr
  021e8	83 c2 08	 add	 edx, 8
  021eb	89 15 00 00 00
	00		 mov	 DWORD PTR _hptr, edx
  021f1	8b 45 f0	 mov	 eax, DWORD PTR _isp$[ebp]
  021f4	83 e8 08	 sub	 eax, 8
  021f7	89 45 f0	 mov	 DWORD PTR _isp$[ebp], eax

; 1032 :     }

  021fa	eb c3		 jmp	 SHORT $LN4@P_array
$LN2@P_array:

; 1033 :     while (asize-- > 0) 	      /* Clear the array to zero */

  021fc	8b 4d f4	 mov	 ecx, DWORD PTR _asize$[ebp]
  021ff	8b 55 f4	 mov	 edx, DWORD PTR _asize$[ebp]
  02202	83 ea 01	 sub	 edx, 1
  02205	89 55 f4	 mov	 DWORD PTR _asize$[ebp], edx
  02208	85 c9		 test	 ecx, ecx
  0220a	7e 23		 jle	 SHORT $LN1@P_array

; 1034 : 	Hstore = 0;

  0220c	a1 00 00 00 00	 mov	 eax, DWORD PTR _hptr
  02211	c7 00 00 00 00
	00		 mov	 DWORD PTR [eax], 0
  02217	c7 40 04 00 00
	00 00		 mov	 DWORD PTR [eax+4], 0
  0221e	8b 0d 00 00 00
	00		 mov	 ecx, DWORD PTR _hptr
  02224	83 c1 08	 add	 ecx, 8
  02227	89 0d 00 00 00
	00		 mov	 DWORD PTR _hptr, ecx
  0222d	eb cd		 jmp	 SHORT $LN2@P_array
$LN1@P_array:

; 1035 :     Npop(nsubs + 2);

  0222f	8b 55 f8	 mov	 edx, DWORD PTR _nsubs$[ebp]
  02232	8d 04 d5 10 00
	00 00		 lea	 eax, DWORD PTR [edx*8+16]
  02239	8b 0d 00 00 00
	00		 mov	 ecx, DWORD PTR _stk
  0223f	2b c8		 sub	 ecx, eax
  02241	89 0d 00 00 00
	00		 mov	 DWORD PTR _stk, ecx
$LN15@P_array:

; 1036 : }

  02247	5e		 pop	 esi
  02248	8b e5		 mov	 esp, ebp
  0224a	5d		 pop	 ebp
  0224b	c3		 ret	 0
_P_array ENDP
; Function compile flags: /Odtp
tv157 = -40						; size = 4
tv156 = -36						; size = 4
_subn$83271 = -32					; size = 8
_array$ = -24						; size = 4
_isp$ = -20						; size = 4
_offset$ = -16						; size = 4
_nsubs$ = -12						; size = 4
_i$ = -8						; size = 4
_esize$ = -4						; size = 4
_P_arraysub PROC

; 962  : {				      /* sub1 sub2 ... subn -- addr */

  02250	55		 push	 ebp
  02251	8b ec		 mov	 ebp, esp
  02253	83 ec 28	 sub	 esp, 40			; 00000028H
  02256	56		 push	 esi

; 963  :     int i, offset, esize, nsubs;
; 964  :     stackitem *array;
; 965  :     stackitem *isp;
; 966  : 
; 967  :     Sl(1);

  02257	a1 00 00 00 00	 mov	 eax, DWORD PTR _stk
  0225c	2b 05 00 00 00
	00		 sub	 eax, DWORD PTR _stack
  02262	c1 f8 03	 sar	 eax, 3
  02265	83 f8 01	 cmp	 eax, 1
  02268	7d 0a		 jge	 SHORT $LN11@P_arraysub
  0226a	e8 00 00 00 00	 call	 _stakunder
  0226f	e9 6f 01 00 00	 jmp	 $LN12@P_arraysub
$LN11@P_arraysub:

; 968  :     array = (((stackitem *) curword) + Dictwordl);

  02274	8b 0d 00 00 00
	00		 mov	 ecx, DWORD PTR _curword
  0227a	83 c1 10	 add	 ecx, 16			; 00000010H
  0227d	89 4d e8	 mov	 DWORD PTR _array$[ebp], ecx

; 969  :     Hpc(array);

  02280	8b 55 e8	 mov	 edx, DWORD PTR _array$[ebp]
  02283	3b 15 00 00 00
	00		 cmp	 edx, DWORD PTR _heapbot
  02289	72 0b		 jb	 SHORT $LN9@P_arraysub
  0228b	8b 45 e8	 mov	 eax, DWORD PTR _array$[ebp]
  0228e	3b 05 00 00 00
	00		 cmp	 eax, DWORD PTR _heaptop
  02294	72 0a		 jb	 SHORT $LN10@P_arraysub
$LN9@P_arraysub:
  02296	e8 00 00 00 00	 call	 _badpointer
  0229b	e9 43 01 00 00	 jmp	 $LN12@P_arraysub
$LN10@P_arraysub:

; 970  :     nsubs = *array++;		      /* Load number of subscripts */

  022a0	8b 4d e8	 mov	 ecx, DWORD PTR _array$[ebp]
  022a3	8b 11		 mov	 edx, DWORD PTR [ecx]
  022a5	89 55 f4	 mov	 DWORD PTR _nsubs$[ebp], edx
  022a8	8b 45 e8	 mov	 eax, DWORD PTR _array$[ebp]
  022ab	83 c0 08	 add	 eax, 8
  022ae	89 45 e8	 mov	 DWORD PTR _array$[ebp], eax

; 971  :     esize = *array++;		      /* Load element size */

  022b1	8b 4d e8	 mov	 ecx, DWORD PTR _array$[ebp]
  022b4	8b 11		 mov	 edx, DWORD PTR [ecx]
  022b6	89 55 fc	 mov	 DWORD PTR _esize$[ebp], edx
  022b9	8b 45 e8	 mov	 eax, DWORD PTR _array$[ebp]
  022bc	83 c0 08	 add	 eax, 8
  022bf	89 45 e8	 mov	 DWORD PTR _array$[ebp], eax

; 972  : #ifndef NOMEMCHECK
; 973  :     isp = &S0;

  022c2	8b 0d 00 00 00
	00		 mov	 ecx, DWORD PTR _stk
  022c8	83 e9 08	 sub	 ecx, 8
  022cb	89 4d ec	 mov	 DWORD PTR _isp$[ebp], ecx

; 974  :     for (i = 0; i < nsubs; i++) {

  022ce	c7 45 f8 00 00
	00 00		 mov	 DWORD PTR _i$[ebp], 0
  022d5	eb 09		 jmp	 SHORT $LN8@P_arraysub
$LN7@P_arraysub:
  022d7	8b 55 f8	 mov	 edx, DWORD PTR _i$[ebp]
  022da	83 c2 01	 add	 edx, 1
  022dd	89 55 f8	 mov	 DWORD PTR _i$[ebp], edx
$LN8@P_arraysub:
  022e0	8b 45 f8	 mov	 eax, DWORD PTR _i$[ebp]
  022e3	3b 45 f4	 cmp	 eax, DWORD PTR _nsubs$[ebp]
  022e6	7d 5f		 jge	 SHORT $LN6@P_arraysub

; 975  : 	stackitem subn = *isp--;

  022e8	8b 4d ec	 mov	 ecx, DWORD PTR _isp$[ebp]
  022eb	8b 11		 mov	 edx, DWORD PTR [ecx]
  022ed	89 55 e0	 mov	 DWORD PTR _subn$83271[ebp], edx
  022f0	8b 41 04	 mov	 eax, DWORD PTR [ecx+4]
  022f3	89 45 e4	 mov	 DWORD PTR _subn$83271[ebp+4], eax
  022f6	8b 4d ec	 mov	 ecx, DWORD PTR _isp$[ebp]
  022f9	83 e9 08	 sub	 ecx, 8
  022fc	89 4d ec	 mov	 DWORD PTR _isp$[ebp], ecx

; 976  : 
; 977  : 	if (subn < 0 || subn >= array[i])

  022ff	83 7d e4 00	 cmp	 DWORD PTR _subn$83271[ebp+4], 0
  02303	7c 33		 jl	 SHORT $LN4@P_arraysub
  02305	7f 06		 jg	 SHORT $LN14@P_arraysub
  02307	83 7d e0 00	 cmp	 DWORD PTR _subn$83271[ebp], 0
  0230b	72 2b		 jb	 SHORT $LN4@P_arraysub
$LN14@P_arraysub:
  0230d	8b 55 f8	 mov	 edx, DWORD PTR _i$[ebp]
  02310	8b 45 e8	 mov	 eax, DWORD PTR _array$[ebp]
  02313	89 45 dc	 mov	 DWORD PTR tv156[ebp], eax
  02316	89 55 d8	 mov	 DWORD PTR tv157[ebp], edx
  02319	8b 4d d8	 mov	 ecx, DWORD PTR tv157[ebp]
  0231c	8b 55 dc	 mov	 edx, DWORD PTR tv156[ebp]
  0231f	8b 45 e4	 mov	 eax, DWORD PTR _subn$83271[ebp+4]
  02322	3b 44 ca 04	 cmp	 eax, DWORD PTR [edx+ecx*8+4]
  02326	7c 1d		 jl	 SHORT $LN5@P_arraysub
  02328	7f 0e		 jg	 SHORT $LN4@P_arraysub
  0232a	8b 4d d8	 mov	 ecx, DWORD PTR tv157[ebp]
  0232d	8b 55 dc	 mov	 edx, DWORD PTR tv156[ebp]
  02330	8b 45 e0	 mov	 eax, DWORD PTR _subn$83271[ebp]
  02333	3b 04 ca	 cmp	 eax, DWORD PTR [edx+ecx*8]
  02336	72 0d		 jb	 SHORT $LN5@P_arraysub
$LN4@P_arraysub:

; 978  :             trouble("Subscript out of range");

  02338	68 00 00 00 00	 push	 OFFSET $SG83274
  0233d	e8 00 00 00 00	 call	 _trouble
  02342	83 c4 04	 add	 esp, 4
$LN5@P_arraysub:

; 979  :     }

  02345	eb 90		 jmp	 SHORT $LN7@P_arraysub
$LN6@P_arraysub:

; 980  : #endif /* NOMEMCHECK */
; 981  :     isp = &S0;

  02347	8b 0d 00 00 00
	00		 mov	 ecx, DWORD PTR _stk
  0234d	83 e9 08	 sub	 ecx, 8
  02350	89 4d ec	 mov	 DWORD PTR _isp$[ebp], ecx

; 982  :     offset = *isp;		      /* Load initial offset */

  02353	8b 55 ec	 mov	 edx, DWORD PTR _isp$[ebp]
  02356	8b 02		 mov	 eax, DWORD PTR [edx]
  02358	89 45 f0	 mov	 DWORD PTR _offset$[ebp], eax

; 983  :     for (i = 1; i < nsubs; i++)

  0235b	c7 45 f8 01 00
	00 00		 mov	 DWORD PTR _i$[ebp], 1
  02362	eb 09		 jmp	 SHORT $LN3@P_arraysub
$LN2@P_arraysub:
  02364	8b 4d f8	 mov	 ecx, DWORD PTR _i$[ebp]
  02367	83 c1 01	 add	 ecx, 1
  0236a	89 4d f8	 mov	 DWORD PTR _i$[ebp], ecx
$LN3@P_arraysub:
  0236d	8b 55 f8	 mov	 edx, DWORD PTR _i$[ebp]
  02370	3b 55 f4	 cmp	 edx, DWORD PTR _nsubs$[ebp]
  02373	7d 34		 jge	 SHORT $LN1@P_arraysub

; 984  : 	offset = (offset * (*(++array))) + *(--isp);

  02375	8b 45 e8	 mov	 eax, DWORD PTR _array$[ebp]
  02378	83 c0 08	 add	 eax, 8
  0237b	89 45 e8	 mov	 DWORD PTR _array$[ebp], eax
  0237e	8b 4d ec	 mov	 ecx, DWORD PTR _isp$[ebp]
  02381	83 e9 08	 sub	 ecx, 8
  02384	89 4d ec	 mov	 DWORD PTR _isp$[ebp], ecx
  02387	8b 45 f0	 mov	 eax, DWORD PTR _offset$[ebp]
  0238a	99		 cdq
  0238b	8b 4d e8	 mov	 ecx, DWORD PTR _array$[ebp]
  0238e	8b 71 04	 mov	 esi, DWORD PTR [ecx+4]
  02391	56		 push	 esi
  02392	8b 09		 mov	 ecx, DWORD PTR [ecx]
  02394	51		 push	 ecx
  02395	52		 push	 edx
  02396	50		 push	 eax
  02397	e8 00 00 00 00	 call	 __allmul
  0239c	8b 4d ec	 mov	 ecx, DWORD PTR _isp$[ebp]
  0239f	03 01		 add	 eax, DWORD PTR [ecx]
  023a1	13 51 04	 adc	 edx, DWORD PTR [ecx+4]
  023a4	89 45 f0	 mov	 DWORD PTR _offset$[ebp], eax
  023a7	eb bb		 jmp	 SHORT $LN2@P_arraysub
$LN1@P_arraysub:

; 985  :     Npop(nsubs - 1);

  023a9	8b 55 f4	 mov	 edx, DWORD PTR _nsubs$[ebp]
  023ac	8d 04 d5 f8 ff
	ff ff		 lea	 eax, DWORD PTR [edx*8-8]
  023b3	8b 0d 00 00 00
	00		 mov	 ecx, DWORD PTR _stk
  023b9	2b c8		 sub	 ecx, eax
  023bb	89 0d 00 00 00
	00		 mov	 DWORD PTR _stk, ecx

; 986  :     /* Calculate subscripted address.  We start at the current word,
; 987  :        advance to the body, skip two more words for the subscript count
; 988  :        and the fundamental element size, then skip the subscript bounds
; 989  :        words (as many as there are subscripts).  Then, finally, we
; 990  :        can add the calculated offset into the array. */
; 991  :     S0 = (stackitem) (((char *) (((stackitem *) curword) +
; 992  : 	    Dictwordl + 2 + nsubs)) + (esize * offset));

  023c1	8b 55 f4	 mov	 edx, DWORD PTR _nsubs$[ebp]
  023c4	a1 00 00 00 00	 mov	 eax, DWORD PTR _curword
  023c9	8d 44 d0 20	 lea	 eax, DWORD PTR [eax+edx*8+32]
  023cd	8b 4d fc	 mov	 ecx, DWORD PTR _esize$[ebp]
  023d0	0f af 4d f0	 imul	 ecx, DWORD PTR _offset$[ebp]
  023d4	03 c1		 add	 eax, ecx
  023d6	99		 cdq
  023d7	8b 0d 00 00 00
	00		 mov	 ecx, DWORD PTR _stk
  023dd	89 41 f8	 mov	 DWORD PTR [ecx-8], eax
  023e0	89 51 fc	 mov	 DWORD PTR [ecx-4], edx
$LN12@P_arraysub:

; 993  : }

  023e3	5e		 pop	 esi
  023e4	8b e5		 mov	 esp, ebp
  023e6	5d		 pop	 ebp
  023e7	c3		 ret	 0
_P_arraysub ENDP
_TEXT	ENDS
EXTRN	_printf:PROC
; Function compile flags: /Odtp
_TEXT	SEGMENT
_P_strlit PROC

; 1044 : {

  023f0	55		 push	 ebp
  023f1	8b ec		 mov	 ebp, esp

; 1045 :     So(1);

  023f3	a1 00 00 00 00	 mov	 eax, DWORD PTR _stk
  023f8	83 c0 08	 add	 eax, 8
  023fb	3b 05 00 00 00
	00		 cmp	 eax, DWORD PTR _stacktop
  02401	76 07		 jbe	 SHORT $LN2@P_strlit
  02403	e8 00 00 00 00	 call	 _stakover
  02408	eb 5f		 jmp	 SHORT $LN3@P_strlit
$LN2@P_strlit:

; 1046 :     Push = (stackitem) (((char *) ip) + 1);

  0240a	a1 00 00 00 00	 mov	 eax, DWORD PTR _ip
  0240f	83 c0 01	 add	 eax, 1
  02412	99		 cdq
  02413	8b 0d 00 00 00
	00		 mov	 ecx, DWORD PTR _stk
  02419	89 01		 mov	 DWORD PTR [ecx], eax
  0241b	89 51 04	 mov	 DWORD PTR [ecx+4], edx
  0241e	8b 15 00 00 00
	00		 mov	 edx, DWORD PTR _stk
  02424	83 c2 08	 add	 edx, 8
  02427	89 15 00 00 00
	00		 mov	 DWORD PTR _stk, edx

; 1047 : #ifdef TRACE
; 1048 :     if (atl_trace) {

  0242d	a1 00 00 00 00	 mov	 eax, DWORD PTR _atl_trace
  02432	0b 05 04 00 00
	00		 or	 eax, DWORD PTR _atl_trace+4
  02438	74 17		 je	 SHORT $LN1@P_strlit

; 1049 :         V printf("\"%s\" ", (((char *) ip) + 1));

  0243a	8b 0d 00 00 00
	00		 mov	 ecx, DWORD PTR _ip
  02440	83 c1 01	 add	 ecx, 1
  02443	51		 push	 ecx
  02444	68 00 00 00 00	 push	 OFFSET $SG83318
  02449	e8 00 00 00 00	 call	 _printf
  0244e	83 c4 08	 add	 esp, 8
$LN1@P_strlit:

; 1050 :     }
; 1051 : #endif /* TRACE */
; 1052 :     Skipstring; 		      /* Advance IP past it */

  02451	8b 15 00 00 00
	00		 mov	 edx, DWORD PTR _ip
  02457	0f be 02	 movsx	 eax, BYTE PTR [edx]
  0245a	8b 0d 00 00 00
	00		 mov	 ecx, DWORD PTR _ip
  02460	8d 14 81	 lea	 edx, DWORD PTR [ecx+eax*4]
  02463	89 15 00 00 00
	00		 mov	 DWORD PTR _ip, edx
$LN3@P_strlit:

; 1053 : }

  02469	5d		 pop	 ebp
  0246a	c3		 ret	 0
_P_strlit ENDP
; Function compile flags: /Odtp
_P_string PROC

; 1056 : {

  02470	55		 push	 ebp
  02471	8b ec		 mov	 ebp, esp

; 1057 :     Sl(1);

  02473	a1 00 00 00 00	 mov	 eax, DWORD PTR _stk
  02478	2b 05 00 00 00
	00		 sub	 eax, DWORD PTR _stack
  0247e	c1 f8 03	 sar	 eax, 3
  02481	83 f8 01	 cmp	 eax, 1
  02484	7d 0a		 jge	 SHORT $LN2@P_string
  02486	e8 00 00 00 00	 call	 _stakunder
  0248b	e9 84 00 00 00	 jmp	 $LN3@P_string
$LN2@P_string:

; 1058 :     Ho((S0 + 1 + sizeof(stackitem)) / sizeof(stackitem));

  02490	8b 0d 00 00 00
	00		 mov	 ecx, DWORD PTR _stk
  02496	8b 51 f8	 mov	 edx, DWORD PTR [ecx-8]
  02499	83 c2 09	 add	 edx, 9
  0249c	8b 41 fc	 mov	 eax, DWORD PTR [ecx-4]
  0249f	83 d0 00	 adc	 eax, 0
  024a2	6a 00		 push	 0
  024a4	6a 08		 push	 8
  024a6	50		 push	 eax
  024a7	52		 push	 edx
  024a8	e8 00 00 00 00	 call	 __alldiv
  024ad	6a 00		 push	 0
  024af	6a 08		 push	 8
  024b1	52		 push	 edx
  024b2	50		 push	 eax
  024b3	e8 00 00 00 00	 call	 __allmul
  024b8	03 05 00 00 00
	00		 add	 eax, DWORD PTR _hptr
  024be	3b 05 00 00 00
	00		 cmp	 eax, DWORD PTR _heaptop
  024c4	76 07		 jbe	 SHORT $LN1@P_string
  024c6	e8 00 00 00 00	 call	 _heapover
  024cb	eb 47		 jmp	 SHORT $LN3@P_string
$LN1@P_string:

; 1059 :     P_create(); 		      /* Create variable */

  024cd	e8 00 00 00 00	 call	 _P_create

; 1060 :     /* Allocate storage for string */
; 1061 :     hptr += (S0 + 1 + sizeof(stackitem)) / sizeof(stackitem);

  024d2	8b 0d 00 00 00
	00		 mov	 ecx, DWORD PTR _stk
  024d8	8b 51 f8	 mov	 edx, DWORD PTR [ecx-8]
  024db	83 c2 09	 add	 edx, 9
  024de	8b 41 fc	 mov	 eax, DWORD PTR [ecx-4]
  024e1	83 d0 00	 adc	 eax, 0
  024e4	6a 00		 push	 0
  024e6	6a 08		 push	 8
  024e8	50		 push	 eax
  024e9	52		 push	 edx
  024ea	e8 00 00 00 00	 call	 __alldiv
  024ef	6a 00		 push	 0
  024f1	6a 08		 push	 8
  024f3	52		 push	 edx
  024f4	50		 push	 eax
  024f5	e8 00 00 00 00	 call	 __allmul
  024fa	03 05 00 00 00
	00		 add	 eax, DWORD PTR _hptr
  02500	a3 00 00 00 00	 mov	 DWORD PTR _hptr, eax

; 1062 :     Pop;

  02505	8b 0d 00 00 00
	00		 mov	 ecx, DWORD PTR _stk
  0250b	83 e9 08	 sub	 ecx, 8
  0250e	89 0d 00 00 00
	00		 mov	 DWORD PTR _stk, ecx
$LN3@P_string:

; 1063 : }

  02514	5d		 pop	 ebp
  02515	c3		 ret	 0
_P_string ENDP
_TEXT	ENDS
EXTRN	_strcpy:PROC
; Function compile flags: /Odtp
_TEXT	SEGMENT
_P_strcpy PROC

; 1066 : {

  02520	55		 push	 ebp
  02521	8b ec		 mov	 ebp, esp

; 1067 :     Sl(2);

  02523	a1 00 00 00 00	 mov	 eax, DWORD PTR _stk
  02528	2b 05 00 00 00
	00		 sub	 eax, DWORD PTR _stack
  0252e	c1 f8 03	 sar	 eax, 3
  02531	83 f8 02	 cmp	 eax, 2
  02534	7d 07		 jge	 SHORT $LN5@P_strcpy
  02536	e8 00 00 00 00	 call	 _stakunder
  0253b	eb 7b		 jmp	 SHORT $LN6@P_strcpy
$LN5@P_strcpy:

; 1068 :     Hpc(S0);

  0253d	8b 0d 00 00 00
	00		 mov	 ecx, DWORD PTR _stk
  02543	8b 51 f8	 mov	 edx, DWORD PTR [ecx-8]
  02546	3b 15 00 00 00
	00		 cmp	 edx, DWORD PTR _heapbot
  0254c	72 10		 jb	 SHORT $LN3@P_strcpy
  0254e	a1 00 00 00 00	 mov	 eax, DWORD PTR _stk
  02553	8b 48 f8	 mov	 ecx, DWORD PTR [eax-8]
  02556	3b 0d 00 00 00
	00		 cmp	 ecx, DWORD PTR _heaptop
  0255c	72 07		 jb	 SHORT $LN4@P_strcpy
$LN3@P_strcpy:
  0255e	e8 00 00 00 00	 call	 _badpointer
  02563	eb 53		 jmp	 SHORT $LN6@P_strcpy
$LN4@P_strcpy:

; 1069 :     Hpc(S1);

  02565	8b 15 00 00 00
	00		 mov	 edx, DWORD PTR _stk
  0256b	8b 42 f0	 mov	 eax, DWORD PTR [edx-16]
  0256e	3b 05 00 00 00
	00		 cmp	 eax, DWORD PTR _heapbot
  02574	72 11		 jb	 SHORT $LN1@P_strcpy
  02576	8b 0d 00 00 00
	00		 mov	 ecx, DWORD PTR _stk
  0257c	8b 51 f0	 mov	 edx, DWORD PTR [ecx-16]
  0257f	3b 15 00 00 00
	00		 cmp	 edx, DWORD PTR _heaptop
  02585	72 07		 jb	 SHORT $LN2@P_strcpy
$LN1@P_strcpy:
  02587	e8 00 00 00 00	 call	 _badpointer
  0258c	eb 2a		 jmp	 SHORT $LN6@P_strcpy
$LN2@P_strcpy:

; 1070 :     V strcpy((char *) S0, (char *) S1);

  0258e	a1 00 00 00 00	 mov	 eax, DWORD PTR _stk
  02593	8b 48 f0	 mov	 ecx, DWORD PTR [eax-16]
  02596	51		 push	 ecx
  02597	8b 15 00 00 00
	00		 mov	 edx, DWORD PTR _stk
  0259d	8b 42 f8	 mov	 eax, DWORD PTR [edx-8]
  025a0	50		 push	 eax
  025a1	e8 00 00 00 00	 call	 _strcpy
  025a6	83 c4 08	 add	 esp, 8

; 1071 :     Pop2;

  025a9	8b 0d 00 00 00
	00		 mov	 ecx, DWORD PTR _stk
  025af	83 e9 10	 sub	 ecx, 16			; 00000010H
  025b2	89 0d 00 00 00
	00		 mov	 DWORD PTR _stk, ecx
$LN6@P_strcpy:

; 1072 : }

  025b8	5d		 pop	 ebp
  025b9	c3		 ret	 0
_P_strcpy ENDP
_TEXT	ENDS
EXTRN	_strcat:PROC
; Function compile flags: /Odtp
_TEXT	SEGMENT
_P_strcat PROC

; 1075 : {

  025c0	55		 push	 ebp
  025c1	8b ec		 mov	 ebp, esp

; 1076 :     Sl(2);

  025c3	a1 00 00 00 00	 mov	 eax, DWORD PTR _stk
  025c8	2b 05 00 00 00
	00		 sub	 eax, DWORD PTR _stack
  025ce	c1 f8 03	 sar	 eax, 3
  025d1	83 f8 02	 cmp	 eax, 2
  025d4	7d 07		 jge	 SHORT $LN5@P_strcat
  025d6	e8 00 00 00 00	 call	 _stakunder
  025db	eb 7b		 jmp	 SHORT $LN6@P_strcat
$LN5@P_strcat:

; 1077 :     Hpc(S0);

  025dd	8b 0d 00 00 00
	00		 mov	 ecx, DWORD PTR _stk
  025e3	8b 51 f8	 mov	 edx, DWORD PTR [ecx-8]
  025e6	3b 15 00 00 00
	00		 cmp	 edx, DWORD PTR _heapbot
  025ec	72 10		 jb	 SHORT $LN3@P_strcat
  025ee	a1 00 00 00 00	 mov	 eax, DWORD PTR _stk
  025f3	8b 48 f8	 mov	 ecx, DWORD PTR [eax-8]
  025f6	3b 0d 00 00 00
	00		 cmp	 ecx, DWORD PTR _heaptop
  025fc	72 07		 jb	 SHORT $LN4@P_strcat
$LN3@P_strcat:
  025fe	e8 00 00 00 00	 call	 _badpointer
  02603	eb 53		 jmp	 SHORT $LN6@P_strcat
$LN4@P_strcat:

; 1078 :     Hpc(S1);

  02605	8b 15 00 00 00
	00		 mov	 edx, DWORD PTR _stk
  0260b	8b 42 f0	 mov	 eax, DWORD PTR [edx-16]
  0260e	3b 05 00 00 00
	00		 cmp	 eax, DWORD PTR _heapbot
  02614	72 11		 jb	 SHORT $LN1@P_strcat
  02616	8b 0d 00 00 00
	00		 mov	 ecx, DWORD PTR _stk
  0261c	8b 51 f0	 mov	 edx, DWORD PTR [ecx-16]
  0261f	3b 15 00 00 00
	00		 cmp	 edx, DWORD PTR _heaptop
  02625	72 07		 jb	 SHORT $LN2@P_strcat
$LN1@P_strcat:
  02627	e8 00 00 00 00	 call	 _badpointer
  0262c	eb 2a		 jmp	 SHORT $LN6@P_strcat
$LN2@P_strcat:

; 1079 :     V strcat((char *) S0, (char *) S1);

  0262e	a1 00 00 00 00	 mov	 eax, DWORD PTR _stk
  02633	8b 48 f0	 mov	 ecx, DWORD PTR [eax-16]
  02636	51		 push	 ecx
  02637	8b 15 00 00 00
	00		 mov	 edx, DWORD PTR _stk
  0263d	8b 42 f8	 mov	 eax, DWORD PTR [edx-8]
  02640	50		 push	 eax
  02641	e8 00 00 00 00	 call	 _strcat
  02646	83 c4 08	 add	 esp, 8

; 1080 :     Pop2;

  02649	8b 0d 00 00 00
	00		 mov	 ecx, DWORD PTR _stk
  0264f	83 e9 10	 sub	 ecx, 16			; 00000010H
  02652	89 0d 00 00 00
	00		 mov	 DWORD PTR _stk, ecx
$LN6@P_strcat:

; 1081 : }

  02658	5d		 pop	 ebp
  02659	c3		 ret	 0
_P_strcat ENDP
; Function compile flags: /Odtp
_P_strlen PROC

; 1084 : {

  02660	55		 push	 ebp
  02661	8b ec		 mov	 ebp, esp

; 1085 :     Sl(1);

  02663	a1 00 00 00 00	 mov	 eax, DWORD PTR _stk
  02668	2b 05 00 00 00
	00		 sub	 eax, DWORD PTR _stack
  0266e	c1 f8 03	 sar	 eax, 3
  02671	83 f8 01	 cmp	 eax, 1
  02674	7d 07		 jge	 SHORT $LN3@P_strlen
  02676	e8 00 00 00 00	 call	 _stakunder
  0267b	eb 48		 jmp	 SHORT $LN4@P_strlen
$LN3@P_strlen:

; 1086 :     Hpc(S0);

  0267d	8b 0d 00 00 00
	00		 mov	 ecx, DWORD PTR _stk
  02683	8b 51 f8	 mov	 edx, DWORD PTR [ecx-8]
  02686	3b 15 00 00 00
	00		 cmp	 edx, DWORD PTR _heapbot
  0268c	72 10		 jb	 SHORT $LN1@P_strlen
  0268e	a1 00 00 00 00	 mov	 eax, DWORD PTR _stk
  02693	8b 48 f8	 mov	 ecx, DWORD PTR [eax-8]
  02696	3b 0d 00 00 00
	00		 cmp	 ecx, DWORD PTR _heaptop
  0269c	72 07		 jb	 SHORT $LN2@P_strlen
$LN1@P_strlen:
  0269e	e8 00 00 00 00	 call	 _badpointer
  026a3	eb 20		 jmp	 SHORT $LN4@P_strlen
$LN2@P_strlen:

; 1087 :     S0 = strlen((char *) S0);

  026a5	8b 15 00 00 00
	00		 mov	 edx, DWORD PTR _stk
  026ab	8b 42 f8	 mov	 eax, DWORD PTR [edx-8]
  026ae	50		 push	 eax
  026af	e8 00 00 00 00	 call	 _strlen
  026b4	83 c4 04	 add	 esp, 4
  026b7	33 c9		 xor	 ecx, ecx
  026b9	8b 15 00 00 00
	00		 mov	 edx, DWORD PTR _stk
  026bf	89 42 f8	 mov	 DWORD PTR [edx-8], eax
  026c2	89 4a fc	 mov	 DWORD PTR [edx-4], ecx
$LN4@P_strlen:

; 1088 : }

  026c5	5d		 pop	 ebp
  026c6	c3		 ret	 0
_P_strlen ENDP
_TEXT	ENDS
EXTRN	_strcmp:PROC
; Function compile flags: /Odtp
_TEXT	SEGMENT
tv90 = -8						; size = 4
_i$ = -4						; size = 4
_P_strcmp PROC

; 1091 : {

  026d0	55		 push	 ebp
  026d1	8b ec		 mov	 ebp, esp
  026d3	83 ec 08	 sub	 esp, 8

; 1092 :     int i;
; 1093 : 
; 1094 :     Sl(2);

  026d6	a1 00 00 00 00	 mov	 eax, DWORD PTR _stk
  026db	2b 05 00 00 00
	00		 sub	 eax, DWORD PTR _stack
  026e1	c1 f8 03	 sar	 eax, 3
  026e4	83 f8 02	 cmp	 eax, 2
  026e7	7d 0a		 jge	 SHORT $LN5@P_strcmp
  026e9	e8 00 00 00 00	 call	 _stakunder
  026ee	e9 b0 00 00 00	 jmp	 $LN6@P_strcmp
$LN5@P_strcmp:

; 1095 :     Hpc(S0);

  026f3	8b 0d 00 00 00
	00		 mov	 ecx, DWORD PTR _stk
  026f9	8b 51 f8	 mov	 edx, DWORD PTR [ecx-8]
  026fc	3b 15 00 00 00
	00		 cmp	 edx, DWORD PTR _heapbot
  02702	72 10		 jb	 SHORT $LN3@P_strcmp
  02704	a1 00 00 00 00	 mov	 eax, DWORD PTR _stk
  02709	8b 48 f8	 mov	 ecx, DWORD PTR [eax-8]
  0270c	3b 0d 00 00 00
	00		 cmp	 ecx, DWORD PTR _heaptop
  02712	72 0a		 jb	 SHORT $LN4@P_strcmp
$LN3@P_strcmp:
  02714	e8 00 00 00 00	 call	 _badpointer
  02719	e9 85 00 00 00	 jmp	 $LN6@P_strcmp
$LN4@P_strcmp:

; 1096 :     Hpc(S1);

  0271e	8b 15 00 00 00
	00		 mov	 edx, DWORD PTR _stk
  02724	8b 42 f0	 mov	 eax, DWORD PTR [edx-16]
  02727	3b 05 00 00 00
	00		 cmp	 eax, DWORD PTR _heapbot
  0272d	72 11		 jb	 SHORT $LN1@P_strcmp
  0272f	8b 0d 00 00 00
	00		 mov	 ecx, DWORD PTR _stk
  02735	8b 51 f0	 mov	 edx, DWORD PTR [ecx-16]
  02738	3b 15 00 00 00
	00		 cmp	 edx, DWORD PTR _heaptop
  0273e	72 07		 jb	 SHORT $LN2@P_strcmp
$LN1@P_strcmp:
  02740	e8 00 00 00 00	 call	 _badpointer
  02745	eb 5c		 jmp	 SHORT $LN6@P_strcmp
$LN2@P_strcmp:

; 1097 :     i = strcmp((char *) S1, (char *) S0);

  02747	a1 00 00 00 00	 mov	 eax, DWORD PTR _stk
  0274c	8b 48 f8	 mov	 ecx, DWORD PTR [eax-8]
  0274f	51		 push	 ecx
  02750	8b 15 00 00 00
	00		 mov	 edx, DWORD PTR _stk
  02756	8b 42 f0	 mov	 eax, DWORD PTR [edx-16]
  02759	50		 push	 eax
  0275a	e8 00 00 00 00	 call	 _strcmp
  0275f	83 c4 08	 add	 esp, 8
  02762	89 45 fc	 mov	 DWORD PTR _i$[ebp], eax

; 1098 :     S1 = (i == 0) ? 0L : ((i > 0) ? 1L : -1L);

  02765	83 7d fc 00	 cmp	 DWORD PTR _i$[ebp], 0
  02769	75 09		 jne	 SHORT $LN8@P_strcmp
  0276b	c7 45 f8 00 00
	00 00		 mov	 DWORD PTR tv90[ebp], 0
  02772	eb 10		 jmp	 SHORT $LN9@P_strcmp
$LN8@P_strcmp:
  02774	33 c9		 xor	 ecx, ecx
  02776	83 7d fc 00	 cmp	 DWORD PTR _i$[ebp], 0
  0277a	0f 9f c1	 setg	 cl
  0277d	8d 4c 09 ff	 lea	 ecx, DWORD PTR [ecx+ecx-1]
  02781	89 4d f8	 mov	 DWORD PTR tv90[ebp], ecx
$LN9@P_strcmp:
  02784	8b 45 f8	 mov	 eax, DWORD PTR tv90[ebp]
  02787	99		 cdq
  02788	8b 0d 00 00 00
	00		 mov	 ecx, DWORD PTR _stk
  0278e	89 41 f0	 mov	 DWORD PTR [ecx-16], eax
  02791	89 51 f4	 mov	 DWORD PTR [ecx-12], edx

; 1099 :     Pop;

  02794	8b 15 00 00 00
	00		 mov	 edx, DWORD PTR _stk
  0279a	83 ea 08	 sub	 edx, 8
  0279d	89 15 00 00 00
	00		 mov	 DWORD PTR _stk, edx
$LN6@P_strcmp:

; 1100 : }

  027a3	8b e5		 mov	 esp, ebp
  027a5	5d		 pop	 ebp
  027a6	c3		 ret	 0
_P_strcmp ENDP
; Function compile flags: /Odtp
_P_strchar PROC

; 1103 : {

  027b0	55		 push	 ebp
  027b1	8b ec		 mov	 ebp, esp

; 1104 :     Sl(2);

  027b3	a1 00 00 00 00	 mov	 eax, DWORD PTR _stk
  027b8	2b 05 00 00 00
	00		 sub	 eax, DWORD PTR _stack
  027be	c1 f8 03	 sar	 eax, 3
  027c1	83 f8 02	 cmp	 eax, 2
  027c4	7d 0a		 jge	 SHORT $LN5@P_strchar
  027c6	e8 00 00 00 00	 call	 _stakunder
  027cb	e9 8a 00 00 00	 jmp	 $LN6@P_strchar
$LN5@P_strchar:

; 1105 :     Hpc(S0);

  027d0	8b 0d 00 00 00
	00		 mov	 ecx, DWORD PTR _stk
  027d6	8b 51 f8	 mov	 edx, DWORD PTR [ecx-8]
  027d9	3b 15 00 00 00
	00		 cmp	 edx, DWORD PTR _heapbot
  027df	72 10		 jb	 SHORT $LN3@P_strchar
  027e1	a1 00 00 00 00	 mov	 eax, DWORD PTR _stk
  027e6	8b 48 f8	 mov	 ecx, DWORD PTR [eax-8]
  027e9	3b 0d 00 00 00
	00		 cmp	 ecx, DWORD PTR _heaptop
  027ef	72 07		 jb	 SHORT $LN4@P_strchar
$LN3@P_strchar:
  027f1	e8 00 00 00 00	 call	 _badpointer
  027f6	eb 62		 jmp	 SHORT $LN6@P_strchar
$LN4@P_strchar:

; 1106 :     Hpc(S1);

  027f8	8b 15 00 00 00
	00		 mov	 edx, DWORD PTR _stk
  027fe	8b 42 f0	 mov	 eax, DWORD PTR [edx-16]
  02801	3b 05 00 00 00
	00		 cmp	 eax, DWORD PTR _heapbot
  02807	72 11		 jb	 SHORT $LN1@P_strchar
  02809	8b 0d 00 00 00
	00		 mov	 ecx, DWORD PTR _stk
  0280f	8b 51 f0	 mov	 edx, DWORD PTR [ecx-16]
  02812	3b 15 00 00 00
	00		 cmp	 edx, DWORD PTR _heaptop
  02818	72 07		 jb	 SHORT $LN2@P_strchar
$LN1@P_strchar:
  0281a	e8 00 00 00 00	 call	 _badpointer
  0281f	eb 39		 jmp	 SHORT $LN6@P_strchar
$LN2@P_strchar:

; 1107 :     S1 = (stackitem) strchr((char *) S1, *((char *) S0));

  02821	a1 00 00 00 00	 mov	 eax, DWORD PTR _stk
  02826	8b 48 f8	 mov	 ecx, DWORD PTR [eax-8]
  02829	0f be 11	 movsx	 edx, BYTE PTR [ecx]
  0282c	52		 push	 edx
  0282d	a1 00 00 00 00	 mov	 eax, DWORD PTR _stk
  02832	8b 48 f0	 mov	 ecx, DWORD PTR [eax-16]
  02835	51		 push	 ecx
  02836	e8 00 00 00 00	 call	 _strchr
  0283b	83 c4 08	 add	 esp, 8
  0283e	99		 cdq
  0283f	8b 0d 00 00 00
	00		 mov	 ecx, DWORD PTR _stk
  02845	89 41 f0	 mov	 DWORD PTR [ecx-16], eax
  02848	89 51 f4	 mov	 DWORD PTR [ecx-12], edx

; 1108 :     Pop;

  0284b	8b 15 00 00 00
	00		 mov	 edx, DWORD PTR _stk
  02851	83 ea 08	 sub	 edx, 8
  02854	89 15 00 00 00
	00		 mov	 DWORD PTR _stk, edx
$LN6@P_strchar:

; 1109 : }

  0285a	5d		 pop	 ebp
  0285b	c3		 ret	 0
_P_strchar ENDP
; Function compile flags: /Odtp
_sl$ = -24						; size = 4
_ss$ = -20						; size = 4
_se$ = -16						; size = 4
_ds$ = -12						; size = 4
_sn$ = -8						; size = 4
_sp$ = -4						; size = 4
_P_substr PROC

; 1112 : {				      /* source start length/-1 dest -- */

  02860	55		 push	 ebp
  02861	8b ec		 mov	 ebp, esp
  02863	83 ec 18	 sub	 esp, 24			; 00000018H

; 1113 :     long sl, sn;
; 1114 :     char *ss, *sp, *se, *ds;
; 1115 : 
; 1116 :     Sl(4);

  02866	a1 00 00 00 00	 mov	 eax, DWORD PTR _stk
  0286b	2b 05 00 00 00
	00		 sub	 eax, DWORD PTR _stack
  02871	c1 f8 03	 sar	 eax, 3
  02874	83 f8 04	 cmp	 eax, 4
  02877	7d 0a		 jge	 SHORT $LN8@P_substr
  02879	e8 00 00 00 00	 call	 _stakunder
  0287e	e9 09 01 00 00	 jmp	 $LN9@P_substr
$LN8@P_substr:

; 1117 :     Hpc(S0);

  02883	8b 0d 00 00 00
	00		 mov	 ecx, DWORD PTR _stk
  02889	8b 51 f8	 mov	 edx, DWORD PTR [ecx-8]
  0288c	3b 15 00 00 00
	00		 cmp	 edx, DWORD PTR _heapbot
  02892	72 10		 jb	 SHORT $LN6@P_substr
  02894	a1 00 00 00 00	 mov	 eax, DWORD PTR _stk
  02899	8b 48 f8	 mov	 ecx, DWORD PTR [eax-8]
  0289c	3b 0d 00 00 00
	00		 cmp	 ecx, DWORD PTR _heaptop
  028a2	72 0a		 jb	 SHORT $LN7@P_substr
$LN6@P_substr:
  028a4	e8 00 00 00 00	 call	 _badpointer
  028a9	e9 de 00 00 00	 jmp	 $LN9@P_substr
$LN7@P_substr:

; 1118 :     Hpc(S3);

  028ae	8b 15 00 00 00
	00		 mov	 edx, DWORD PTR _stk
  028b4	8b 42 e0	 mov	 eax, DWORD PTR [edx-32]
  028b7	3b 05 00 00 00
	00		 cmp	 eax, DWORD PTR _heapbot
  028bd	72 11		 jb	 SHORT $LN4@P_substr
  028bf	8b 0d 00 00 00
	00		 mov	 ecx, DWORD PTR _stk
  028c5	8b 51 e0	 mov	 edx, DWORD PTR [ecx-32]
  028c8	3b 15 00 00 00
	00		 cmp	 edx, DWORD PTR _heaptop
  028ce	72 0a		 jb	 SHORT $LN5@P_substr
$LN4@P_substr:
  028d0	e8 00 00 00 00	 call	 _badpointer
  028d5	e9 b2 00 00 00	 jmp	 $LN9@P_substr
$LN5@P_substr:

; 1119 :     sl = strlen(ss = ((char *) S3));

  028da	a1 00 00 00 00	 mov	 eax, DWORD PTR _stk
  028df	8b 48 e0	 mov	 ecx, DWORD PTR [eax-32]
  028e2	89 4d ec	 mov	 DWORD PTR _ss$[ebp], ecx
  028e5	8b 55 ec	 mov	 edx, DWORD PTR _ss$[ebp]
  028e8	52		 push	 edx
  028e9	e8 00 00 00 00	 call	 _strlen
  028ee	83 c4 04	 add	 esp, 4
  028f1	89 45 e8	 mov	 DWORD PTR _sl$[ebp], eax

; 1120 :     se = ss + sl;

  028f4	8b 45 ec	 mov	 eax, DWORD PTR _ss$[ebp]
  028f7	03 45 e8	 add	 eax, DWORD PTR _sl$[ebp]
  028fa	89 45 f0	 mov	 DWORD PTR _se$[ebp], eax

; 1121 :     sp = ((char *) S3) + S2;

  028fd	8b 0d 00 00 00
	00		 mov	 ecx, DWORD PTR _stk
  02903	8b 51 e0	 mov	 edx, DWORD PTR [ecx-32]
  02906	a1 00 00 00 00	 mov	 eax, DWORD PTR _stk
  0290b	8b 48 e8	 mov	 ecx, DWORD PTR [eax-24]
  0290e	03 d1		 add	 edx, ecx
  02910	89 55 fc	 mov	 DWORD PTR _sp$[ebp], edx

; 1122 :     if ((sn = S1) < 0)

  02913	8b 15 00 00 00
	00		 mov	 edx, DWORD PTR _stk
  02919	8b 42 f0	 mov	 eax, DWORD PTR [edx-16]
  0291c	89 45 f8	 mov	 DWORD PTR _sn$[ebp], eax
  0291f	83 7d f8 00	 cmp	 DWORD PTR _sn$[ebp], 0
  02923	7d 07		 jge	 SHORT $LN3@P_substr

; 1123 : 	sn = 999999L;

  02925	c7 45 f8 3f 42
	0f 00		 mov	 DWORD PTR _sn$[ebp], 999999 ; 000f423fH
$LN3@P_substr:

; 1124 :     ds = (char *) S0;

  0292c	8b 0d 00 00 00
	00		 mov	 ecx, DWORD PTR _stk
  02932	8b 51 f8	 mov	 edx, DWORD PTR [ecx-8]
  02935	89 55 f4	 mov	 DWORD PTR _ds$[ebp], edx
$LN2@P_substr:

; 1125 :     while (sn-- && (sp < se))

  02938	8b 45 f8	 mov	 eax, DWORD PTR _sn$[ebp]
  0293b	8b 4d f8	 mov	 ecx, DWORD PTR _sn$[ebp]
  0293e	83 e9 01	 sub	 ecx, 1
  02941	89 4d f8	 mov	 DWORD PTR _sn$[ebp], ecx
  02944	85 c0		 test	 eax, eax
  02946	74 26		 je	 SHORT $LN1@P_substr
  02948	8b 55 fc	 mov	 edx, DWORD PTR _sp$[ebp]
  0294b	3b 55 f0	 cmp	 edx, DWORD PTR _se$[ebp]
  0294e	73 1e		 jae	 SHORT $LN1@P_substr

; 1126 : 	*ds++ = *sp++;

  02950	8b 45 f4	 mov	 eax, DWORD PTR _ds$[ebp]
  02953	8b 4d fc	 mov	 ecx, DWORD PTR _sp$[ebp]
  02956	8a 11		 mov	 dl, BYTE PTR [ecx]
  02958	88 10		 mov	 BYTE PTR [eax], dl
  0295a	8b 45 f4	 mov	 eax, DWORD PTR _ds$[ebp]
  0295d	83 c0 01	 add	 eax, 1
  02960	89 45 f4	 mov	 DWORD PTR _ds$[ebp], eax
  02963	8b 4d fc	 mov	 ecx, DWORD PTR _sp$[ebp]
  02966	83 c1 01	 add	 ecx, 1
  02969	89 4d fc	 mov	 DWORD PTR _sp$[ebp], ecx
  0296c	eb ca		 jmp	 SHORT $LN2@P_substr
$LN1@P_substr:

; 1127 :     *ds++ = EOS;

  0296e	8b 55 f4	 mov	 edx, DWORD PTR _ds$[ebp]
  02971	c6 02 00	 mov	 BYTE PTR [edx], 0
  02974	8b 45 f4	 mov	 eax, DWORD PTR _ds$[ebp]
  02977	83 c0 01	 add	 eax, 1
  0297a	89 45 f4	 mov	 DWORD PTR _ds$[ebp], eax

; 1128 :     Npop(4);

  0297d	8b 0d 00 00 00
	00		 mov	 ecx, DWORD PTR _stk
  02983	83 e9 20	 sub	 ecx, 32			; 00000020H
  02986	89 0d 00 00 00
	00		 mov	 DWORD PTR _stk, ecx
$LN9@P_substr:

; 1129 : }

  0298c	8b e5		 mov	 esp, ebp
  0298e	5d		 pop	 ebp
  0298f	c3		 ret	 0
_P_substr ENDP
_TEXT	ENDS
EXTRN	_sprintf:PROC
; Function compile flags: /Odtp
_TEXT	SEGMENT
_P_strform PROC

; 1132 : {                                     /* value "%ld" str -- */

  02990	55		 push	 ebp
  02991	8b ec		 mov	 ebp, esp

; 1133 :     Sl(2);

  02993	a1 00 00 00 00	 mov	 eax, DWORD PTR _stk
  02998	2b 05 00 00 00
	00		 sub	 eax, DWORD PTR _stack
  0299e	c1 f8 03	 sar	 eax, 3
  029a1	83 f8 02	 cmp	 eax, 2
  029a4	7d 0a		 jge	 SHORT $LN5@P_strform
  029a6	e8 00 00 00 00	 call	 _stakunder
  029ab	e9 88 00 00 00	 jmp	 $LN6@P_strform
$LN5@P_strform:

; 1134 :     Hpc(S0);

  029b0	8b 0d 00 00 00
	00		 mov	 ecx, DWORD PTR _stk
  029b6	8b 51 f8	 mov	 edx, DWORD PTR [ecx-8]
  029b9	3b 15 00 00 00
	00		 cmp	 edx, DWORD PTR _heapbot
  029bf	72 10		 jb	 SHORT $LN3@P_strform
  029c1	a1 00 00 00 00	 mov	 eax, DWORD PTR _stk
  029c6	8b 48 f8	 mov	 ecx, DWORD PTR [eax-8]
  029c9	3b 0d 00 00 00
	00		 cmp	 ecx, DWORD PTR _heaptop
  029cf	72 07		 jb	 SHORT $LN4@P_strform
$LN3@P_strform:
  029d1	e8 00 00 00 00	 call	 _badpointer
  029d6	eb 60		 jmp	 SHORT $LN6@P_strform
$LN4@P_strform:

; 1135 :     Hpc(S1);

  029d8	8b 15 00 00 00
	00		 mov	 edx, DWORD PTR _stk
  029de	8b 42 f0	 mov	 eax, DWORD PTR [edx-16]
  029e1	3b 05 00 00 00
	00		 cmp	 eax, DWORD PTR _heapbot
  029e7	72 11		 jb	 SHORT $LN1@P_strform
  029e9	8b 0d 00 00 00
	00		 mov	 ecx, DWORD PTR _stk
  029ef	8b 51 f0	 mov	 edx, DWORD PTR [ecx-16]
  029f2	3b 15 00 00 00
	00		 cmp	 edx, DWORD PTR _heaptop
  029f8	72 07		 jb	 SHORT $LN2@P_strform
$LN1@P_strform:
  029fa	e8 00 00 00 00	 call	 _badpointer
  029ff	eb 37		 jmp	 SHORT $LN6@P_strform
$LN2@P_strform:

; 1136 :     V sprintf((char *) S0, (char *) S1, S2);

  02a01	a1 00 00 00 00	 mov	 eax, DWORD PTR _stk
  02a06	8b 48 ec	 mov	 ecx, DWORD PTR [eax-20]
  02a09	51		 push	 ecx
  02a0a	8b 50 e8	 mov	 edx, DWORD PTR [eax-24]
  02a0d	52		 push	 edx
  02a0e	a1 00 00 00 00	 mov	 eax, DWORD PTR _stk
  02a13	8b 48 f0	 mov	 ecx, DWORD PTR [eax-16]
  02a16	51		 push	 ecx
  02a17	8b 15 00 00 00
	00		 mov	 edx, DWORD PTR _stk
  02a1d	8b 42 f8	 mov	 eax, DWORD PTR [edx-8]
  02a20	50		 push	 eax
  02a21	e8 00 00 00 00	 call	 _sprintf
  02a26	83 c4 10	 add	 esp, 16			; 00000010H

; 1137 :     Npop(3);

  02a29	8b 0d 00 00 00
	00		 mov	 ecx, DWORD PTR _stk
  02a2f	83 e9 18	 sub	 ecx, 24			; 00000018H
  02a32	89 0d 00 00 00
	00		 mov	 DWORD PTR _stk, ecx
$LN6@P_strform:

; 1138 : }

  02a38	5d		 pop	 ebp
  02a39	c3		 ret	 0
_P_strform ENDP
_TEXT	ENDS
EXTRN	__fltused:DWORD
; Function compile flags: /Odtp
_TEXT	SEGMENT
_P_fstrform PROC

; 1142 : {                                     /* rvalue "%6.2f" str -- */

  02a40	55		 push	 ebp
  02a41	8b ec		 mov	 ebp, esp

; 1143 :     Sl(2 + Realsize);

  02a43	a1 00 00 00 00	 mov	 eax, DWORD PTR _stk
  02a48	2b 05 00 00 00
	00		 sub	 eax, DWORD PTR _stack
  02a4e	c1 f8 03	 sar	 eax, 3
  02a51	83 f8 03	 cmp	 eax, 3
  02a54	73 0a		 jae	 SHORT $LN5@P_fstrform
  02a56	e8 00 00 00 00	 call	 _stakunder
  02a5b	e9 89 00 00 00	 jmp	 $LN6@P_fstrform
$LN5@P_fstrform:

; 1144 :     Hpc(S0);

  02a60	8b 0d 00 00 00
	00		 mov	 ecx, DWORD PTR _stk
  02a66	8b 51 f8	 mov	 edx, DWORD PTR [ecx-8]
  02a69	3b 15 00 00 00
	00		 cmp	 edx, DWORD PTR _heapbot
  02a6f	72 10		 jb	 SHORT $LN3@P_fstrform
  02a71	a1 00 00 00 00	 mov	 eax, DWORD PTR _stk
  02a76	8b 48 f8	 mov	 ecx, DWORD PTR [eax-8]
  02a79	3b 0d 00 00 00
	00		 cmp	 ecx, DWORD PTR _heaptop
  02a7f	72 07		 jb	 SHORT $LN4@P_fstrform
$LN3@P_fstrform:
  02a81	e8 00 00 00 00	 call	 _badpointer
  02a86	eb 61		 jmp	 SHORT $LN6@P_fstrform
$LN4@P_fstrform:

; 1145 :     Hpc(S1);

  02a88	8b 15 00 00 00
	00		 mov	 edx, DWORD PTR _stk
  02a8e	8b 42 f0	 mov	 eax, DWORD PTR [edx-16]
  02a91	3b 05 00 00 00
	00		 cmp	 eax, DWORD PTR _heapbot
  02a97	72 11		 jb	 SHORT $LN1@P_fstrform
  02a99	8b 0d 00 00 00
	00		 mov	 ecx, DWORD PTR _stk
  02a9f	8b 51 f0	 mov	 edx, DWORD PTR [ecx-16]
  02aa2	3b 15 00 00 00
	00		 cmp	 edx, DWORD PTR _heaptop
  02aa8	72 07		 jb	 SHORT $LN2@P_fstrform
$LN1@P_fstrform:
  02aaa	e8 00 00 00 00	 call	 _badpointer
  02aaf	eb 38		 jmp	 SHORT $LN6@P_fstrform
$LN2@P_fstrform:

; 1146 :     V sprintf((char *) S0, (char *) S1, REAL2);

  02ab1	a1 00 00 00 00	 mov	 eax, DWORD PTR _stk
  02ab6	83 ec 08	 sub	 esp, 8
  02ab9	dd 40 e8	 fld	 QWORD PTR [eax-24]
  02abc	dd 1c 24	 fstp	 QWORD PTR [esp]
  02abf	8b 0d 00 00 00
	00		 mov	 ecx, DWORD PTR _stk
  02ac5	8b 51 f0	 mov	 edx, DWORD PTR [ecx-16]
  02ac8	52		 push	 edx
  02ac9	a1 00 00 00 00	 mov	 eax, DWORD PTR _stk
  02ace	8b 48 f8	 mov	 ecx, DWORD PTR [eax-8]
  02ad1	51		 push	 ecx
  02ad2	e8 00 00 00 00	 call	 _sprintf
  02ad7	83 c4 10	 add	 esp, 16			; 00000010H

; 1147 :     Npop(2 + Realsize);

  02ada	8b 15 00 00 00
	00		 mov	 edx, DWORD PTR _stk
  02ae0	83 ea 18	 sub	 edx, 24			; 00000018H
  02ae3	89 15 00 00 00
	00		 mov	 DWORD PTR _stk, edx
$LN6@P_fstrform:

; 1148 : }

  02ae9	5d		 pop	 ebp
  02aea	c3		 ret	 0
_P_fstrform ENDP
_TEXT	ENDS
EXTRN	_strtoul:PROC
; Function compile flags: /Odtp
_TEXT	SEGMENT
_eptr$ = -12						; size = 4
_is$ = -8						; size = 8
_P_strint PROC

; 1152 : {				      /* str -- endptr value */

  02af0	55		 push	 ebp
  02af1	8b ec		 mov	 ebp, esp
  02af3	83 ec 0c	 sub	 esp, 12			; 0000000cH

; 1153 :     stackitem is;
; 1154 :     char *eptr;
; 1155 : 
; 1156 :     Sl(1);

  02af6	a1 00 00 00 00	 mov	 eax, DWORD PTR _stk
  02afb	2b 05 00 00 00
	00		 sub	 eax, DWORD PTR _stack
  02b01	c1 f8 03	 sar	 eax, 3
  02b04	83 f8 01	 cmp	 eax, 1
  02b07	7d 0a		 jge	 SHORT $LN4@P_strint
  02b09	e8 00 00 00 00	 call	 _stakunder
  02b0e	e9 91 00 00 00	 jmp	 $LN5@P_strint
$LN4@P_strint:

; 1157 :     So(1);

  02b13	8b 0d 00 00 00
	00		 mov	 ecx, DWORD PTR _stk
  02b19	83 c1 08	 add	 ecx, 8
  02b1c	3b 0d 00 00 00
	00		 cmp	 ecx, DWORD PTR _stacktop
  02b22	76 07		 jbe	 SHORT $LN3@P_strint
  02b24	e8 00 00 00 00	 call	 _stakover
  02b29	eb 79		 jmp	 SHORT $LN5@P_strint
$LN3@P_strint:

; 1158 :     Hpc(S0);

  02b2b	8b 15 00 00 00
	00		 mov	 edx, DWORD PTR _stk
  02b31	8b 42 f8	 mov	 eax, DWORD PTR [edx-8]
  02b34	3b 05 00 00 00
	00		 cmp	 eax, DWORD PTR _heapbot
  02b3a	72 11		 jb	 SHORT $LN1@P_strint
  02b3c	8b 0d 00 00 00
	00		 mov	 ecx, DWORD PTR _stk
  02b42	8b 51 f8	 mov	 edx, DWORD PTR [ecx-8]
  02b45	3b 15 00 00 00
	00		 cmp	 edx, DWORD PTR _heaptop
  02b4b	72 07		 jb	 SHORT $LN2@P_strint
$LN1@P_strint:
  02b4d	e8 00 00 00 00	 call	 _badpointer
  02b52	eb 50		 jmp	 SHORT $LN5@P_strint
$LN2@P_strint:

; 1159 :     is = strtoul((char *) S0, &eptr, 0);

  02b54	6a 00		 push	 0
  02b56	8d 45 f4	 lea	 eax, DWORD PTR _eptr$[ebp]
  02b59	50		 push	 eax
  02b5a	8b 0d 00 00 00
	00		 mov	 ecx, DWORD PTR _stk
  02b60	8b 51 f8	 mov	 edx, DWORD PTR [ecx-8]
  02b63	52		 push	 edx
  02b64	e8 00 00 00 00	 call	 _strtoul
  02b69	83 c4 0c	 add	 esp, 12			; 0000000cH
  02b6c	33 c9		 xor	 ecx, ecx
  02b6e	89 45 f8	 mov	 DWORD PTR _is$[ebp], eax
  02b71	89 4d fc	 mov	 DWORD PTR _is$[ebp+4], ecx

; 1160 :     S0 = (stackitem) eptr;

  02b74	8b 45 f4	 mov	 eax, DWORD PTR _eptr$[ebp]
  02b77	99		 cdq
  02b78	8b 0d 00 00 00
	00		 mov	 ecx, DWORD PTR _stk
  02b7e	89 41 f8	 mov	 DWORD PTR [ecx-8], eax
  02b81	89 51 fc	 mov	 DWORD PTR [ecx-4], edx

; 1161 :     Push = is;

  02b84	8b 15 00 00 00
	00		 mov	 edx, DWORD PTR _stk
  02b8a	8b 45 f8	 mov	 eax, DWORD PTR _is$[ebp]
  02b8d	89 02		 mov	 DWORD PTR [edx], eax
  02b8f	8b 4d fc	 mov	 ecx, DWORD PTR _is$[ebp+4]
  02b92	89 4a 04	 mov	 DWORD PTR [edx+4], ecx
  02b95	8b 15 00 00 00
	00		 mov	 edx, DWORD PTR _stk
  02b9b	83 c2 08	 add	 edx, 8
  02b9e	89 15 00 00 00
	00		 mov	 DWORD PTR _stk, edx
$LN5@P_strint:

; 1162 : }

  02ba4	8b e5		 mov	 esp, ebp
  02ba6	5d		 pop	 ebp
  02ba7	c3		 ret	 0
_P_strint ENDP
_TEXT	ENDS
PUBLIC	__$ArrayPad$
EXTRN	_strtod:PROC
EXTRN	___security_cookie:DWORD
EXTRN	@__security_check_cookie@4:PROC
; Function compile flags: /Odtp
_TEXT	SEGMENT
_eptr$ = -20						; size = 4
_fsu$ = -16						; size = 8
__$ArrayPad$ = -8					; size = 4
_i$ = -4						; size = 4
_P_strreal PROC

; 1166 : {				      /* str -- endptr value */

  02bb0	55		 push	 ebp
  02bb1	8b ec		 mov	 ebp, esp
  02bb3	83 ec 14	 sub	 esp, 20			; 00000014H
  02bb6	a1 00 00 00 00	 mov	 eax, DWORD PTR ___security_cookie
  02bbb	33 c5		 xor	 eax, ebp
  02bbd	89 45 f8	 mov	 DWORD PTR __$ArrayPad$[ebp], eax

; 1167 :     int i;
; 1168 :     union {
; 1169 :     	atl_real fs;
; 1170 : 	stackitem fss[Realsize];
; 1171 :     } fsu;
; 1172 :     char *eptr;
; 1173 : 
; 1174 :     Sl(1);

  02bc0	a1 00 00 00 00	 mov	 eax, DWORD PTR _stk
  02bc5	2b 05 00 00 00
	00		 sub	 eax, DWORD PTR _stack
  02bcb	c1 f8 03	 sar	 eax, 3
  02bce	83 f8 01	 cmp	 eax, 1
  02bd1	7d 0a		 jge	 SHORT $LN7@P_strreal
  02bd3	e8 00 00 00 00	 call	 _stakunder
  02bd8	e9 ab 00 00 00	 jmp	 $LN1@P_strreal
$LN7@P_strreal:

; 1175 :     So(2);

  02bdd	8b 0d 00 00 00
	00		 mov	 ecx, DWORD PTR _stk
  02be3	83 c1 10	 add	 ecx, 16			; 00000010H
  02be6	3b 0d 00 00 00
	00		 cmp	 ecx, DWORD PTR _stacktop
  02bec	76 0a		 jbe	 SHORT $LN6@P_strreal
  02bee	e8 00 00 00 00	 call	 _stakover
  02bf3	e9 90 00 00 00	 jmp	 $LN1@P_strreal
$LN6@P_strreal:

; 1176 :     Hpc(S0);

  02bf8	8b 15 00 00 00
	00		 mov	 edx, DWORD PTR _stk
  02bfe	8b 42 f8	 mov	 eax, DWORD PTR [edx-8]
  02c01	3b 05 00 00 00
	00		 cmp	 eax, DWORD PTR _heapbot
  02c07	72 11		 jb	 SHORT $LN4@P_strreal
  02c09	8b 0d 00 00 00
	00		 mov	 ecx, DWORD PTR _stk
  02c0f	8b 51 f8	 mov	 edx, DWORD PTR [ecx-8]
  02c12	3b 15 00 00 00
	00		 cmp	 edx, DWORD PTR _heaptop
  02c18	72 07		 jb	 SHORT $LN5@P_strreal
$LN4@P_strreal:
  02c1a	e8 00 00 00 00	 call	 _badpointer
  02c1f	eb 67		 jmp	 SHORT $LN1@P_strreal
$LN5@P_strreal:

; 1177 :     fsu.fs = strtod((char *) S0, &eptr);

  02c21	8d 45 ec	 lea	 eax, DWORD PTR _eptr$[ebp]
  02c24	50		 push	 eax
  02c25	8b 0d 00 00 00
	00		 mov	 ecx, DWORD PTR _stk
  02c2b	8b 51 f8	 mov	 edx, DWORD PTR [ecx-8]
  02c2e	52		 push	 edx
  02c2f	e8 00 00 00 00	 call	 _strtod
  02c34	83 c4 08	 add	 esp, 8
  02c37	dd 5d f0	 fstp	 QWORD PTR _fsu$[ebp]

; 1178 :     S0 = (stackitem) eptr;

  02c3a	8b 45 ec	 mov	 eax, DWORD PTR _eptr$[ebp]
  02c3d	99		 cdq
  02c3e	8b 0d 00 00 00
	00		 mov	 ecx, DWORD PTR _stk
  02c44	89 41 f8	 mov	 DWORD PTR [ecx-8], eax
  02c47	89 51 fc	 mov	 DWORD PTR [ecx-4], edx

; 1179 :     for (i = 0; i < Realsize; i++) {

  02c4a	c7 45 fc 00 00
	00 00		 mov	 DWORD PTR _i$[ebp], 0
  02c51	eb 09		 jmp	 SHORT $LN3@P_strreal
$LN2@P_strreal:
  02c53	8b 55 fc	 mov	 edx, DWORD PTR _i$[ebp]
  02c56	83 c2 01	 add	 edx, 1
  02c59	89 55 fc	 mov	 DWORD PTR _i$[ebp], edx
$LN3@P_strreal:
  02c5c	83 7d fc 01	 cmp	 DWORD PTR _i$[ebp], 1
  02c60	73 26		 jae	 SHORT $LN1@P_strreal

; 1180 :     	Push = fsu.fss[i];

  02c62	a1 00 00 00 00	 mov	 eax, DWORD PTR _stk
  02c67	8b 4d fc	 mov	 ecx, DWORD PTR _i$[ebp]
  02c6a	8b 54 cd f0	 mov	 edx, DWORD PTR _fsu$[ebp+ecx*8]
  02c6e	89 10		 mov	 DWORD PTR [eax], edx
  02c70	8b 4c cd f4	 mov	 ecx, DWORD PTR _fsu$[ebp+ecx*8+4]
  02c74	89 48 04	 mov	 DWORD PTR [eax+4], ecx
  02c77	8b 15 00 00 00
	00		 mov	 edx, DWORD PTR _stk
  02c7d	83 c2 08	 add	 edx, 8
  02c80	89 15 00 00 00
	00		 mov	 DWORD PTR _stk, edx

; 1181 :     }

  02c86	eb cb		 jmp	 SHORT $LN2@P_strreal
$LN1@P_strreal:

; 1182 : }

  02c88	8b 4d f8	 mov	 ecx, DWORD PTR __$ArrayPad$[ebp]
  02c8b	33 cd		 xor	 ecx, ebp
  02c8d	e8 00 00 00 00	 call	 @__security_check_cookie@4
  02c92	8b e5		 mov	 esp, ebp
  02c94	5d		 pop	 ebp
  02c95	c3		 ret	 0
_P_strreal ENDP
_TEXT	ENDS
EXTRN	_memcpy:PROC
; Function compile flags: /Odtp
_TEXT	SEGMENT
_tr$83491 = -16						; size = 8
_i$ = -4						; size = 4
_P_flit	PROC

; 1191 : {

  02ca0	55		 push	 ebp
  02ca1	8b ec		 mov	 ebp, esp
  02ca3	83 ec 10	 sub	 esp, 16			; 00000010H

; 1192 :     int i;
; 1193 : 
; 1194 :     So(Realsize);

  02ca6	a1 00 00 00 00	 mov	 eax, DWORD PTR _stk
  02cab	83 c0 08	 add	 eax, 8
  02cae	3b 05 00 00 00
	00		 cmp	 eax, DWORD PTR _stacktop
  02cb4	76 0a		 jbe	 SHORT $LN5@P_flit
  02cb6	e8 00 00 00 00	 call	 _stakover
  02cbb	e9 80 00 00 00	 jmp	 $LN1@P_flit
$LN5@P_flit:

; 1195 : #ifdef TRACE
; 1196 :     if (atl_trace) {

  02cc0	8b 0d 00 00 00
	00		 mov	 ecx, DWORD PTR _atl_trace
  02cc6	0b 0d 04 00 00
	00		 or	 ecx, DWORD PTR _atl_trace+4
  02ccc	74 28		 je	 SHORT $LN4@P_flit

; 1197 : 	atl_real tr;
; 1198 : 
; 1199 : 	V memcpy((char *) &tr, (char *) ip, sizeof(atl_real));

  02cce	6a 08		 push	 8
  02cd0	8b 15 00 00 00
	00		 mov	 edx, DWORD PTR _ip
  02cd6	52		 push	 edx
  02cd7	8d 45 f0	 lea	 eax, DWORD PTR _tr$83491[ebp]
  02cda	50		 push	 eax
  02cdb	e8 00 00 00 00	 call	 _memcpy

; 1200 :         V printf("%g ", tr);

  02ce0	83 c4 04	 add	 esp, 4
  02ce3	dd 45 f0	 fld	 QWORD PTR _tr$83491[ebp]
  02ce6	dd 1c 24	 fstp	 QWORD PTR [esp]
  02ce9	68 00 00 00 00	 push	 OFFSET $SG83497
  02cee	e8 00 00 00 00	 call	 _printf
  02cf3	83 c4 0c	 add	 esp, 12			; 0000000cH
$LN4@P_flit:

; 1201 :     }
; 1202 : #endif /* TRACE */
; 1203 :     for (i = 0; i < Realsize; i++) {

  02cf6	c7 45 fc 00 00
	00 00		 mov	 DWORD PTR _i$[ebp], 0
  02cfd	eb 09		 jmp	 SHORT $LN3@P_flit
$LN2@P_flit:
  02cff	8b 4d fc	 mov	 ecx, DWORD PTR _i$[ebp]
  02d02	83 c1 01	 add	 ecx, 1
  02d05	89 4d fc	 mov	 DWORD PTR _i$[ebp], ecx
$LN3@P_flit:
  02d08	83 7d fc 01	 cmp	 DWORD PTR _i$[ebp], 1
  02d0c	73 32		 jae	 SHORT $LN1@P_flit

; 1204 : 	Push = (stackitem) *ip++;

  02d0e	8b 15 00 00 00
	00		 mov	 edx, DWORD PTR _ip
  02d14	8b 02		 mov	 eax, DWORD PTR [edx]
  02d16	99		 cdq
  02d17	8b 0d 00 00 00
	00		 mov	 ecx, DWORD PTR _stk
  02d1d	89 01		 mov	 DWORD PTR [ecx], eax
  02d1f	89 51 04	 mov	 DWORD PTR [ecx+4], edx
  02d22	8b 15 00 00 00
	00		 mov	 edx, DWORD PTR _stk
  02d28	83 c2 08	 add	 edx, 8
  02d2b	89 15 00 00 00
	00		 mov	 DWORD PTR _stk, edx
  02d31	a1 00 00 00 00	 mov	 eax, DWORD PTR _ip
  02d36	83 c0 04	 add	 eax, 4
  02d39	a3 00 00 00 00	 mov	 DWORD PTR _ip, eax

; 1205 :     }

  02d3e	eb bf		 jmp	 SHORT $LN2@P_flit
$LN1@P_flit:

; 1206 : }

  02d40	8b e5		 mov	 esp, ebp
  02d42	5d		 pop	 ebp
  02d43	c3		 ret	 0
_P_flit	ENDP
; Function compile flags: /Odtp
_P_fplus PROC

; 1209 : {

  02d50	55		 push	 ebp
  02d51	8b ec		 mov	 ebp, esp

; 1210 :     Sl(2 * Realsize);

  02d53	a1 00 00 00 00	 mov	 eax, DWORD PTR _stk
  02d58	2b 05 00 00 00
	00		 sub	 eax, DWORD PTR _stack
  02d5e	c1 f8 03	 sar	 eax, 3
  02d61	83 f8 02	 cmp	 eax, 2
  02d64	73 07		 jae	 SHORT $LN1@P_fplus
  02d66	e8 00 00 00 00	 call	 _stakunder
  02d6b	eb 29		 jmp	 SHORT $LN2@P_fplus
$LN1@P_fplus:

; 1211 :     SREAL1(REAL1 + REAL0);

  02d6d	8b 0d 00 00 00
	00		 mov	 ecx, DWORD PTR _stk
  02d73	8b 15 00 00 00
	00		 mov	 edx, DWORD PTR _stk
  02d79	dd 41 f0	 fld	 QWORD PTR [ecx-16]
  02d7c	dc 42 f8	 fadd	 QWORD PTR [edx-8]
  02d7f	a1 00 00 00 00	 mov	 eax, DWORD PTR _stk
  02d84	dd 58 f0	 fstp	 QWORD PTR [eax-16]

; 1212 :     Realpop;

  02d87	8b 0d 00 00 00
	00		 mov	 ecx, DWORD PTR _stk
  02d8d	83 e9 08	 sub	 ecx, 8
  02d90	89 0d 00 00 00
	00		 mov	 DWORD PTR _stk, ecx
$LN2@P_fplus:

; 1213 : }

  02d96	5d		 pop	 ebp
  02d97	c3		 ret	 0
_P_fplus ENDP
; Function compile flags: /Odtp
_P_fminus PROC

; 1216 : {

  02da0	55		 push	 ebp
  02da1	8b ec		 mov	 ebp, esp

; 1217 :     Sl(2 * Realsize);

  02da3	a1 00 00 00 00	 mov	 eax, DWORD PTR _stk
  02da8	2b 05 00 00 00
	00		 sub	 eax, DWORD PTR _stack
  02dae	c1 f8 03	 sar	 eax, 3
  02db1	83 f8 02	 cmp	 eax, 2
  02db4	73 07		 jae	 SHORT $LN1@P_fminus
  02db6	e8 00 00 00 00	 call	 _stakunder
  02dbb	eb 29		 jmp	 SHORT $LN2@P_fminus
$LN1@P_fminus:

; 1218 :     SREAL1(REAL1 - REAL0);

  02dbd	8b 0d 00 00 00
	00		 mov	 ecx, DWORD PTR _stk
  02dc3	8b 15 00 00 00
	00		 mov	 edx, DWORD PTR _stk
  02dc9	dd 41 f0	 fld	 QWORD PTR [ecx-16]
  02dcc	dc 62 f8	 fsub	 QWORD PTR [edx-8]
  02dcf	a1 00 00 00 00	 mov	 eax, DWORD PTR _stk
  02dd4	dd 58 f0	 fstp	 QWORD PTR [eax-16]

; 1219 :     Realpop;

  02dd7	8b 0d 00 00 00
	00		 mov	 ecx, DWORD PTR _stk
  02ddd	83 e9 08	 sub	 ecx, 8
  02de0	89 0d 00 00 00
	00		 mov	 DWORD PTR _stk, ecx
$LN2@P_fminus:

; 1220 : }

  02de6	5d		 pop	 ebp
  02de7	c3		 ret	 0
_P_fminus ENDP
; Function compile flags: /Odtp
_P_ftimes PROC

; 1223 : {

  02df0	55		 push	 ebp
  02df1	8b ec		 mov	 ebp, esp

; 1224 :     Sl(2 * Realsize);

  02df3	a1 00 00 00 00	 mov	 eax, DWORD PTR _stk
  02df8	2b 05 00 00 00
	00		 sub	 eax, DWORD PTR _stack
  02dfe	c1 f8 03	 sar	 eax, 3
  02e01	83 f8 02	 cmp	 eax, 2
  02e04	73 07		 jae	 SHORT $LN1@P_ftimes
  02e06	e8 00 00 00 00	 call	 _stakunder
  02e0b	eb 29		 jmp	 SHORT $LN2@P_ftimes
$LN1@P_ftimes:

; 1225 :     SREAL1(REAL1 * REAL0);

  02e0d	8b 0d 00 00 00
	00		 mov	 ecx, DWORD PTR _stk
  02e13	8b 15 00 00 00
	00		 mov	 edx, DWORD PTR _stk
  02e19	dd 41 f0	 fld	 QWORD PTR [ecx-16]
  02e1c	dc 4a f8	 fmul	 QWORD PTR [edx-8]
  02e1f	a1 00 00 00 00	 mov	 eax, DWORD PTR _stk
  02e24	dd 58 f0	 fstp	 QWORD PTR [eax-16]

; 1226 :     Realpop;

  02e27	8b 0d 00 00 00
	00		 mov	 ecx, DWORD PTR _stk
  02e2d	83 e9 08	 sub	 ecx, 8
  02e30	89 0d 00 00 00
	00		 mov	 DWORD PTR _stk, ecx
$LN2@P_ftimes:

; 1227 : }

  02e36	5d		 pop	 ebp
  02e37	c3		 ret	 0
_P_ftimes ENDP
_TEXT	ENDS
PUBLIC	__real@0000000000000000
;	COMDAT __real@0000000000000000
CONST	SEGMENT
__real@0000000000000000 DQ 00000000000000000r	; 0
; Function compile flags: /Odtp
CONST	ENDS
_TEXT	SEGMENT
_P_fdiv	PROC

; 1230 : {

  02e40	55		 push	 ebp
  02e41	8b ec		 mov	 ebp, esp

; 1231 :     Sl(2 * Realsize);

  02e43	a1 00 00 00 00	 mov	 eax, DWORD PTR _stk
  02e48	2b 05 00 00 00
	00		 sub	 eax, DWORD PTR _stack
  02e4e	c1 f8 03	 sar	 eax, 3
  02e51	83 f8 02	 cmp	 eax, 2
  02e54	73 07		 jae	 SHORT $LN2@P_fdiv
  02e56	e8 00 00 00 00	 call	 _stakunder
  02e5b	eb 44		 jmp	 SHORT $LN3@P_fdiv
$LN2@P_fdiv:

; 1232 : #ifndef NOMEMCHECK
; 1233 :     if (REAL0 == 0.0) {

  02e5d	8b 0d 00 00 00
	00		 mov	 ecx, DWORD PTR _stk
  02e63	dd 41 f8	 fld	 QWORD PTR [ecx-8]
  02e66	d9 ee		 fldz
  02e68	da e9		 fucompp
  02e6a	df e0		 fnstsw	 ax
  02e6c	f6 c4 44	 test	 ah, 68			; 00000044H
  02e6f	7a 07		 jp	 SHORT $LN1@P_fdiv

; 1234 : 	divzero();

  02e71	e8 00 00 00 00	 call	 _divzero

; 1235 : 	return;

  02e76	eb 29		 jmp	 SHORT $LN3@P_fdiv
$LN1@P_fdiv:

; 1236 :     }
; 1237 : #endif /* NOMEMCHECK */
; 1238 :     SREAL1(REAL1 / REAL0);

  02e78	8b 15 00 00 00
	00		 mov	 edx, DWORD PTR _stk
  02e7e	a1 00 00 00 00	 mov	 eax, DWORD PTR _stk
  02e83	dd 42 f0	 fld	 QWORD PTR [edx-16]
  02e86	dc 70 f8	 fdiv	 QWORD PTR [eax-8]
  02e89	8b 0d 00 00 00
	00		 mov	 ecx, DWORD PTR _stk
  02e8f	dd 59 f0	 fstp	 QWORD PTR [ecx-16]

; 1239 :     Realpop;

  02e92	8b 15 00 00 00
	00		 mov	 edx, DWORD PTR _stk
  02e98	83 ea 08	 sub	 edx, 8
  02e9b	89 15 00 00 00
	00		 mov	 DWORD PTR _stk, edx
$LN3@P_fdiv:

; 1240 : }

  02ea1	5d		 pop	 ebp
  02ea2	c3		 ret	 0
_P_fdiv	ENDP
; Function compile flags: /Odtp
tv77 = -8						; size = 8
_P_fmin	PROC

; 1243 : {

  02eb0	55		 push	 ebp
  02eb1	8b ec		 mov	 ebp, esp
  02eb3	83 ec 08	 sub	 esp, 8

; 1244 :     Sl(2 * Realsize);

  02eb6	a1 00 00 00 00	 mov	 eax, DWORD PTR _stk
  02ebb	2b 05 00 00 00
	00		 sub	 eax, DWORD PTR _stack
  02ec1	c1 f8 03	 sar	 eax, 3
  02ec4	83 f8 02	 cmp	 eax, 2
  02ec7	73 07		 jae	 SHORT $LN1@P_fmin
  02ec9	e8 00 00 00 00	 call	 _stakunder
  02ece	eb 4b		 jmp	 SHORT $LN2@P_fmin
$LN1@P_fmin:

; 1245 :     SREAL1(min(REAL1, REAL0));

  02ed0	8b 0d 00 00 00
	00		 mov	 ecx, DWORD PTR _stk
  02ed6	dd 41 f0	 fld	 QWORD PTR [ecx-16]
  02ed9	8b 15 00 00 00
	00		 mov	 edx, DWORD PTR _stk
  02edf	dc 5a f8	 fcomp	 QWORD PTR [edx-8]
  02ee2	df e0		 fnstsw	 ax
  02ee4	f6 c4 41	 test	 ah, 65			; 00000041H
  02ee7	7a 0d		 jp	 SHORT $LN4@P_fmin
  02ee9	a1 00 00 00 00	 mov	 eax, DWORD PTR _stk
  02eee	dd 40 f0	 fld	 QWORD PTR [eax-16]
  02ef1	dd 5d f8	 fstp	 QWORD PTR tv77[ebp]
  02ef4	eb 0c		 jmp	 SHORT $LN5@P_fmin
$LN4@P_fmin:
  02ef6	8b 0d 00 00 00
	00		 mov	 ecx, DWORD PTR _stk
  02efc	dd 41 f8	 fld	 QWORD PTR [ecx-8]
  02eff	dd 5d f8	 fstp	 QWORD PTR tv77[ebp]
$LN5@P_fmin:
  02f02	8b 15 00 00 00
	00		 mov	 edx, DWORD PTR _stk
  02f08	dd 45 f8	 fld	 QWORD PTR tv77[ebp]
  02f0b	dd 5a f0	 fstp	 QWORD PTR [edx-16]

; 1246 :     Realpop;

  02f0e	a1 00 00 00 00	 mov	 eax, DWORD PTR _stk
  02f13	83 e8 08	 sub	 eax, 8
  02f16	a3 00 00 00 00	 mov	 DWORD PTR _stk, eax
$LN2@P_fmin:

; 1247 : }

  02f1b	8b e5		 mov	 esp, ebp
  02f1d	5d		 pop	 ebp
  02f1e	c3		 ret	 0
_P_fmin	ENDP
; Function compile flags: /Odtp
tv77 = -8						; size = 8
_P_fmax	PROC

; 1250 : {

  02f20	55		 push	 ebp
  02f21	8b ec		 mov	 ebp, esp
  02f23	83 ec 08	 sub	 esp, 8

; 1251 :     Sl(2 * Realsize);

  02f26	a1 00 00 00 00	 mov	 eax, DWORD PTR _stk
  02f2b	2b 05 00 00 00
	00		 sub	 eax, DWORD PTR _stack
  02f31	c1 f8 03	 sar	 eax, 3
  02f34	83 f8 02	 cmp	 eax, 2
  02f37	73 07		 jae	 SHORT $LN1@P_fmax
  02f39	e8 00 00 00 00	 call	 _stakunder
  02f3e	eb 4b		 jmp	 SHORT $LN2@P_fmax
$LN1@P_fmax:

; 1252 :     SREAL1(max(REAL1, REAL0));

  02f40	8b 0d 00 00 00
	00		 mov	 ecx, DWORD PTR _stk
  02f46	dd 41 f0	 fld	 QWORD PTR [ecx-16]
  02f49	8b 15 00 00 00
	00		 mov	 edx, DWORD PTR _stk
  02f4f	dc 5a f8	 fcomp	 QWORD PTR [edx-8]
  02f52	df e0		 fnstsw	 ax
  02f54	f6 c4 41	 test	 ah, 65			; 00000041H
  02f57	75 0d		 jne	 SHORT $LN4@P_fmax
  02f59	a1 00 00 00 00	 mov	 eax, DWORD PTR _stk
  02f5e	dd 40 f0	 fld	 QWORD PTR [eax-16]
  02f61	dd 5d f8	 fstp	 QWORD PTR tv77[ebp]
  02f64	eb 0c		 jmp	 SHORT $LN5@P_fmax
$LN4@P_fmax:
  02f66	8b 0d 00 00 00
	00		 mov	 ecx, DWORD PTR _stk
  02f6c	dd 41 f8	 fld	 QWORD PTR [ecx-8]
  02f6f	dd 5d f8	 fstp	 QWORD PTR tv77[ebp]
$LN5@P_fmax:
  02f72	8b 15 00 00 00
	00		 mov	 edx, DWORD PTR _stk
  02f78	dd 45 f8	 fld	 QWORD PTR tv77[ebp]
  02f7b	dd 5a f0	 fstp	 QWORD PTR [edx-16]

; 1253 :     Realpop;

  02f7e	a1 00 00 00 00	 mov	 eax, DWORD PTR _stk
  02f83	83 e8 08	 sub	 eax, 8
  02f86	a3 00 00 00 00	 mov	 DWORD PTR _stk, eax
$LN2@P_fmax:

; 1254 : }

  02f8b	8b e5		 mov	 esp, ebp
  02f8d	5d		 pop	 ebp
  02f8e	c3		 ret	 0
_P_fmax	ENDP
; Function compile flags: /Odtp
_P_fneg PROC

; 1257 : {

  02f90	55		 push	 ebp
  02f91	8b ec		 mov	 ebp, esp

; 1258 :     Sl(Realsize);

  02f93	a1 00 00 00 00	 mov	 eax, DWORD PTR _stk
  02f98	2b 05 00 00 00
	00		 sub	 eax, DWORD PTR _stack
  02f9e	c1 f8 03	 sar	 eax, 3
  02fa1	83 f8 01	 cmp	 eax, 1
  02fa4	73 07		 jae	 SHORT $LN1@P_fneg
  02fa6	e8 00 00 00 00	 call	 _stakunder
  02fab	eb 14		 jmp	 SHORT $LN2@P_fneg
$LN1@P_fneg:

; 1259 :     SREAL0(- REAL0);

  02fad	8b 0d 00 00 00
	00		 mov	 ecx, DWORD PTR _stk
  02fb3	dd 41 f8	 fld	 QWORD PTR [ecx-8]
  02fb6	d9 e0		 fchs
  02fb8	8b 15 00 00 00
	00		 mov	 edx, DWORD PTR _stk
  02fbe	dd 5a f8	 fstp	 QWORD PTR [edx-8]
$LN2@P_fneg:

; 1260 : }

  02fc1	5d		 pop	 ebp
  02fc2	c3		 ret	 0
_P_fneg	ENDP
; Function compile flags: /Odtp
tv76 = -8						; size = 8
_P_fabs	PROC

; 1263 : {

  02fd0	55		 push	 ebp
  02fd1	8b ec		 mov	 ebp, esp
  02fd3	83 ec 08	 sub	 esp, 8

; 1264 :     Sl(Realsize);

  02fd6	a1 00 00 00 00	 mov	 eax, DWORD PTR _stk
  02fdb	2b 05 00 00 00
	00		 sub	 eax, DWORD PTR _stack
  02fe1	c1 f8 03	 sar	 eax, 3
  02fe4	83 f8 01	 cmp	 eax, 1
  02fe7	73 07		 jae	 SHORT $LN1@P_fabs
  02fe9	e8 00 00 00 00	 call	 _stakunder
  02fee	eb 3d		 jmp	 SHORT $LN2@P_fabs
$LN1@P_fabs:

; 1265 :     SREAL0(abs(REAL0));

  02ff0	8b 0d 00 00 00
	00		 mov	 ecx, DWORD PTR _stk
  02ff6	dd 41 f8	 fld	 QWORD PTR [ecx-8]
  02ff9	dc 1d 00 00 00
	00		 fcomp	 QWORD PTR __real@0000000000000000
  02fff	df e0		 fnstsw	 ax
  03001	f6 c4 05	 test	 ah, 5
  03004	7a 10		 jp	 SHORT $LN4@P_fabs
  03006	8b 15 00 00 00
	00		 mov	 edx, DWORD PTR _stk
  0300c	dd 42 f8	 fld	 QWORD PTR [edx-8]
  0300f	d9 e0		 fchs
  03011	dd 5d f8	 fstp	 QWORD PTR tv76[ebp]
  03014	eb 0b		 jmp	 SHORT $LN5@P_fabs
$LN4@P_fabs:
  03016	a1 00 00 00 00	 mov	 eax, DWORD PTR _stk
  0301b	dd 40 f8	 fld	 QWORD PTR [eax-8]
  0301e	dd 5d f8	 fstp	 QWORD PTR tv76[ebp]
$LN5@P_fabs:
  03021	8b 0d 00 00 00
	00		 mov	 ecx, DWORD PTR _stk
  03027	dd 45 f8	 fld	 QWORD PTR tv76[ebp]
  0302a	dd 59 f8	 fstp	 QWORD PTR [ecx-8]
$LN2@P_fabs:

; 1266 : }

  0302d	8b e5		 mov	 esp, ebp
  0302f	5d		 pop	 ebp
  03030	c3		 ret	 0
_P_fabs	ENDP
; Function compile flags: /Odtp
tv70 = -12						; size = 4
_t$ = -8						; size = 8
_P_fequal PROC

; 1269 : {

  03040	55		 push	 ebp
  03041	8b ec		 mov	 ebp, esp
  03043	83 ec 0c	 sub	 esp, 12			; 0000000cH

; 1270 :     stackitem t;
; 1271 : 
; 1272 :     Sl(2 * Realsize);

  03046	a1 00 00 00 00	 mov	 eax, DWORD PTR _stk
  0304b	2b 05 00 00 00
	00		 sub	 eax, DWORD PTR _stack
  03051	c1 f8 03	 sar	 eax, 3
  03054	83 f8 02	 cmp	 eax, 2
  03057	73 07		 jae	 SHORT $LN1@P_fequal
  03059	e8 00 00 00 00	 call	 _stakunder
  0305e	eb 62		 jmp	 SHORT $LN2@P_fequal
$LN1@P_fequal:

; 1273 :     t = (REAL1 == REAL0) ? Truth : Falsity;

  03060	8b 0d 00 00 00
	00		 mov	 ecx, DWORD PTR _stk
  03066	8b 15 00 00 00
	00		 mov	 edx, DWORD PTR _stk
  0306c	dd 41 f0	 fld	 QWORD PTR [ecx-16]
  0306f	dd 42 f8	 fld	 QWORD PTR [edx-8]
  03072	da e9		 fucompp
  03074	df e0		 fnstsw	 ax
  03076	f6 c4 44	 test	 ah, 68			; 00000044H
  03079	7a 09		 jp	 SHORT $LN4@P_fequal
  0307b	c7 45 f4 ff ff
	ff ff		 mov	 DWORD PTR tv70[ebp], -1
  03082	eb 07		 jmp	 SHORT $LN5@P_fequal
$LN4@P_fequal:
  03084	c7 45 f4 00 00
	00 00		 mov	 DWORD PTR tv70[ebp], 0
$LN5@P_fequal:
  0308b	8b 45 f4	 mov	 eax, DWORD PTR tv70[ebp]
  0308e	99		 cdq
  0308f	89 45 f8	 mov	 DWORD PTR _t$[ebp], eax
  03092	89 55 fc	 mov	 DWORD PTR _t$[ebp+4], edx

; 1274 :     Realpop2;

  03095	a1 00 00 00 00	 mov	 eax, DWORD PTR _stk
  0309a	83 e8 10	 sub	 eax, 16			; 00000010H
  0309d	a3 00 00 00 00	 mov	 DWORD PTR _stk, eax

; 1275 :     Push = t;

  030a2	8b 0d 00 00 00
	00		 mov	 ecx, DWORD PTR _stk
  030a8	8b 55 f8	 mov	 edx, DWORD PTR _t$[ebp]
  030ab	89 11		 mov	 DWORD PTR [ecx], edx
  030ad	8b 45 fc	 mov	 eax, DWORD PTR _t$[ebp+4]
  030b0	89 41 04	 mov	 DWORD PTR [ecx+4], eax
  030b3	8b 0d 00 00 00
	00		 mov	 ecx, DWORD PTR _stk
  030b9	83 c1 08	 add	 ecx, 8
  030bc	89 0d 00 00 00
	00		 mov	 DWORD PTR _stk, ecx
$LN2@P_fequal:

; 1276 : }

  030c2	8b e5		 mov	 esp, ebp
  030c4	5d		 pop	 ebp
  030c5	c3		 ret	 0
_P_fequal ENDP
; Function compile flags: /Odtp
tv70 = -12						; size = 4
_t$ = -8						; size = 8
_P_funequal PROC

; 1279 : {

  030d0	55		 push	 ebp
  030d1	8b ec		 mov	 ebp, esp
  030d3	83 ec 0c	 sub	 esp, 12			; 0000000cH

; 1280 :     stackitem t;
; 1281 : 
; 1282 :     Sl(2 * Realsize);

  030d6	a1 00 00 00 00	 mov	 eax, DWORD PTR _stk
  030db	2b 05 00 00 00
	00		 sub	 eax, DWORD PTR _stack
  030e1	c1 f8 03	 sar	 eax, 3
  030e4	83 f8 02	 cmp	 eax, 2
  030e7	73 07		 jae	 SHORT $LN1@P_funequal
  030e9	e8 00 00 00 00	 call	 _stakunder
  030ee	eb 62		 jmp	 SHORT $LN2@P_funequal
$LN1@P_funequal:

; 1283 :     t = (REAL1 != REAL0) ? Truth : Falsity;

  030f0	8b 0d 00 00 00
	00		 mov	 ecx, DWORD PTR _stk
  030f6	8b 15 00 00 00
	00		 mov	 edx, DWORD PTR _stk
  030fc	dd 41 f0	 fld	 QWORD PTR [ecx-16]
  030ff	dd 42 f8	 fld	 QWORD PTR [edx-8]
  03102	da e9		 fucompp
  03104	df e0		 fnstsw	 ax
  03106	f6 c4 44	 test	 ah, 68			; 00000044H
  03109	7b 09		 jnp	 SHORT $LN4@P_funequal
  0310b	c7 45 f4 ff ff
	ff ff		 mov	 DWORD PTR tv70[ebp], -1
  03112	eb 07		 jmp	 SHORT $LN5@P_funequal
$LN4@P_funequal:
  03114	c7 45 f4 00 00
	00 00		 mov	 DWORD PTR tv70[ebp], 0
$LN5@P_funequal:
  0311b	8b 45 f4	 mov	 eax, DWORD PTR tv70[ebp]
  0311e	99		 cdq
  0311f	89 45 f8	 mov	 DWORD PTR _t$[ebp], eax
  03122	89 55 fc	 mov	 DWORD PTR _t$[ebp+4], edx

; 1284 :     Realpop2;

  03125	a1 00 00 00 00	 mov	 eax, DWORD PTR _stk
  0312a	83 e8 10	 sub	 eax, 16			; 00000010H
  0312d	a3 00 00 00 00	 mov	 DWORD PTR _stk, eax

; 1285 :     Push = t;

  03132	8b 0d 00 00 00
	00		 mov	 ecx, DWORD PTR _stk
  03138	8b 55 f8	 mov	 edx, DWORD PTR _t$[ebp]
  0313b	89 11		 mov	 DWORD PTR [ecx], edx
  0313d	8b 45 fc	 mov	 eax, DWORD PTR _t$[ebp+4]
  03140	89 41 04	 mov	 DWORD PTR [ecx+4], eax
  03143	8b 0d 00 00 00
	00		 mov	 ecx, DWORD PTR _stk
  03149	83 c1 08	 add	 ecx, 8
  0314c	89 0d 00 00 00
	00		 mov	 DWORD PTR _stk, ecx
$LN2@P_funequal:

; 1286 : }

  03152	8b e5		 mov	 esp, ebp
  03154	5d		 pop	 ebp
  03155	c3		 ret	 0
_P_funequal ENDP
; Function compile flags: /Odtp
tv70 = -12						; size = 4
_t$ = -8						; size = 8
_P_fgtr	PROC

; 1289 : {

  03160	55		 push	 ebp
  03161	8b ec		 mov	 ebp, esp
  03163	83 ec 0c	 sub	 esp, 12			; 0000000cH

; 1290 :     stackitem t;
; 1291 : 
; 1292 :     Sl(2 * Realsize);

  03166	a1 00 00 00 00	 mov	 eax, DWORD PTR _stk
  0316b	2b 05 00 00 00
	00		 sub	 eax, DWORD PTR _stack
  03171	c1 f8 03	 sar	 eax, 3
  03174	83 f8 02	 cmp	 eax, 2
  03177	73 07		 jae	 SHORT $LN1@P_fgtr
  03179	e8 00 00 00 00	 call	 _stakunder
  0317e	eb 60		 jmp	 SHORT $LN2@P_fgtr
$LN1@P_fgtr:

; 1293 :     t = (REAL1 > REAL0) ? Truth : Falsity;

  03180	8b 0d 00 00 00
	00		 mov	 ecx, DWORD PTR _stk
  03186	8b 15 00 00 00
	00		 mov	 edx, DWORD PTR _stk
  0318c	dd 42 f8	 fld	 QWORD PTR [edx-8]
  0318f	dc 59 f0	 fcomp	 QWORD PTR [ecx-16]
  03192	df e0		 fnstsw	 ax
  03194	f6 c4 05	 test	 ah, 5
  03197	7a 09		 jp	 SHORT $LN4@P_fgtr
  03199	c7 45 f4 ff ff
	ff ff		 mov	 DWORD PTR tv70[ebp], -1
  031a0	eb 07		 jmp	 SHORT $LN5@P_fgtr
$LN4@P_fgtr:
  031a2	c7 45 f4 00 00
	00 00		 mov	 DWORD PTR tv70[ebp], 0
$LN5@P_fgtr:
  031a9	8b 45 f4	 mov	 eax, DWORD PTR tv70[ebp]
  031ac	99		 cdq
  031ad	89 45 f8	 mov	 DWORD PTR _t$[ebp], eax
  031b0	89 55 fc	 mov	 DWORD PTR _t$[ebp+4], edx

; 1294 :     Realpop2;

  031b3	a1 00 00 00 00	 mov	 eax, DWORD PTR _stk
  031b8	83 e8 10	 sub	 eax, 16			; 00000010H
  031bb	a3 00 00 00 00	 mov	 DWORD PTR _stk, eax

; 1295 :     Push = t;

  031c0	8b 0d 00 00 00
	00		 mov	 ecx, DWORD PTR _stk
  031c6	8b 55 f8	 mov	 edx, DWORD PTR _t$[ebp]
  031c9	89 11		 mov	 DWORD PTR [ecx], edx
  031cb	8b 45 fc	 mov	 eax, DWORD PTR _t$[ebp+4]
  031ce	89 41 04	 mov	 DWORD PTR [ecx+4], eax
  031d1	8b 0d 00 00 00
	00		 mov	 ecx, DWORD PTR _stk
  031d7	83 c1 08	 add	 ecx, 8
  031da	89 0d 00 00 00
	00		 mov	 DWORD PTR _stk, ecx
$LN2@P_fgtr:

; 1296 : }

  031e0	8b e5		 mov	 esp, ebp
  031e2	5d		 pop	 ebp
  031e3	c3		 ret	 0
_P_fgtr	ENDP
; Function compile flags: /Odtp
tv70 = -12						; size = 4
_t$ = -8						; size = 8
_P_flss	PROC

; 1299 : {

  031f0	55		 push	 ebp
  031f1	8b ec		 mov	 ebp, esp
  031f3	83 ec 0c	 sub	 esp, 12			; 0000000cH

; 1300 :     stackitem t;
; 1301 : 
; 1302 :     Sl(2 * Realsize);

  031f6	a1 00 00 00 00	 mov	 eax, DWORD PTR _stk
  031fb	2b 05 00 00 00
	00		 sub	 eax, DWORD PTR _stack
  03201	c1 f8 03	 sar	 eax, 3
  03204	83 f8 02	 cmp	 eax, 2
  03207	73 07		 jae	 SHORT $LN1@P_flss
  03209	e8 00 00 00 00	 call	 _stakunder
  0320e	eb 60		 jmp	 SHORT $LN2@P_flss
$LN1@P_flss:

; 1303 :     t = (REAL1 < REAL0) ? Truth : Falsity;

  03210	8b 0d 00 00 00
	00		 mov	 ecx, DWORD PTR _stk
  03216	8b 15 00 00 00
	00		 mov	 edx, DWORD PTR _stk
  0321c	dd 42 f8	 fld	 QWORD PTR [edx-8]
  0321f	dc 59 f0	 fcomp	 QWORD PTR [ecx-16]
  03222	df e0		 fnstsw	 ax
  03224	f6 c4 41	 test	 ah, 65			; 00000041H
  03227	75 09		 jne	 SHORT $LN4@P_flss
  03229	c7 45 f4 ff ff
	ff ff		 mov	 DWORD PTR tv70[ebp], -1
  03230	eb 07		 jmp	 SHORT $LN5@P_flss
$LN4@P_flss:
  03232	c7 45 f4 00 00
	00 00		 mov	 DWORD PTR tv70[ebp], 0
$LN5@P_flss:
  03239	8b 45 f4	 mov	 eax, DWORD PTR tv70[ebp]
  0323c	99		 cdq
  0323d	89 45 f8	 mov	 DWORD PTR _t$[ebp], eax
  03240	89 55 fc	 mov	 DWORD PTR _t$[ebp+4], edx

; 1304 :     Realpop2;

  03243	a1 00 00 00 00	 mov	 eax, DWORD PTR _stk
  03248	83 e8 10	 sub	 eax, 16			; 00000010H
  0324b	a3 00 00 00 00	 mov	 DWORD PTR _stk, eax

; 1305 :     Push = t;

  03250	8b 0d 00 00 00
	00		 mov	 ecx, DWORD PTR _stk
  03256	8b 55 f8	 mov	 edx, DWORD PTR _t$[ebp]
  03259	89 11		 mov	 DWORD PTR [ecx], edx
  0325b	8b 45 fc	 mov	 eax, DWORD PTR _t$[ebp+4]
  0325e	89 41 04	 mov	 DWORD PTR [ecx+4], eax
  03261	8b 0d 00 00 00
	00		 mov	 ecx, DWORD PTR _stk
  03267	83 c1 08	 add	 ecx, 8
  0326a	89 0d 00 00 00
	00		 mov	 DWORD PTR _stk, ecx
$LN2@P_flss:

; 1306 : }

  03270	8b e5		 mov	 esp, ebp
  03272	5d		 pop	 ebp
  03273	c3		 ret	 0
_P_flss	ENDP
; Function compile flags: /Odtp
tv70 = -12						; size = 4
_t$ = -8						; size = 8
_P_fgeq	PROC

; 1309 : {

  03280	55		 push	 ebp
  03281	8b ec		 mov	 ebp, esp
  03283	83 ec 0c	 sub	 esp, 12			; 0000000cH

; 1310 :     stackitem t;
; 1311 : 
; 1312 :     Sl(2 * Realsize);

  03286	a1 00 00 00 00	 mov	 eax, DWORD PTR _stk
  0328b	2b 05 00 00 00
	00		 sub	 eax, DWORD PTR _stack
  03291	c1 f8 03	 sar	 eax, 3
  03294	83 f8 02	 cmp	 eax, 2
  03297	73 07		 jae	 SHORT $LN1@P_fgeq
  03299	e8 00 00 00 00	 call	 _stakunder
  0329e	eb 60		 jmp	 SHORT $LN2@P_fgeq
$LN1@P_fgeq:

; 1313 :     t = (REAL1 >= REAL0) ? Truth : Falsity;

  032a0	8b 0d 00 00 00
	00		 mov	 ecx, DWORD PTR _stk
  032a6	8b 15 00 00 00
	00		 mov	 edx, DWORD PTR _stk
  032ac	dd 42 f8	 fld	 QWORD PTR [edx-8]
  032af	dc 59 f0	 fcomp	 QWORD PTR [ecx-16]
  032b2	df e0		 fnstsw	 ax
  032b4	f6 c4 41	 test	 ah, 65			; 00000041H
  032b7	7a 09		 jp	 SHORT $LN4@P_fgeq
  032b9	c7 45 f4 ff ff
	ff ff		 mov	 DWORD PTR tv70[ebp], -1
  032c0	eb 07		 jmp	 SHORT $LN5@P_fgeq
$LN4@P_fgeq:
  032c2	c7 45 f4 00 00
	00 00		 mov	 DWORD PTR tv70[ebp], 0
$LN5@P_fgeq:
  032c9	8b 45 f4	 mov	 eax, DWORD PTR tv70[ebp]
  032cc	99		 cdq
  032cd	89 45 f8	 mov	 DWORD PTR _t$[ebp], eax
  032d0	89 55 fc	 mov	 DWORD PTR _t$[ebp+4], edx

; 1314 :     Realpop2;

  032d3	a1 00 00 00 00	 mov	 eax, DWORD PTR _stk
  032d8	83 e8 10	 sub	 eax, 16			; 00000010H
  032db	a3 00 00 00 00	 mov	 DWORD PTR _stk, eax

; 1315 :     Push = t;

  032e0	8b 0d 00 00 00
	00		 mov	 ecx, DWORD PTR _stk
  032e6	8b 55 f8	 mov	 edx, DWORD PTR _t$[ebp]
  032e9	89 11		 mov	 DWORD PTR [ecx], edx
  032eb	8b 45 fc	 mov	 eax, DWORD PTR _t$[ebp+4]
  032ee	89 41 04	 mov	 DWORD PTR [ecx+4], eax
  032f1	8b 0d 00 00 00
	00		 mov	 ecx, DWORD PTR _stk
  032f7	83 c1 08	 add	 ecx, 8
  032fa	89 0d 00 00 00
	00		 mov	 DWORD PTR _stk, ecx
$LN2@P_fgeq:

; 1316 : }

  03300	8b e5		 mov	 esp, ebp
  03302	5d		 pop	 ebp
  03303	c3		 ret	 0
_P_fgeq	ENDP
; Function compile flags: /Odtp
tv70 = -12						; size = 4
_t$ = -8						; size = 8
_P_fleq	PROC

; 1319 : {

  03310	55		 push	 ebp
  03311	8b ec		 mov	 ebp, esp
  03313	83 ec 0c	 sub	 esp, 12			; 0000000cH

; 1320 :     stackitem t;
; 1321 : 
; 1322 :     Sl(2 * Realsize);

  03316	a1 00 00 00 00	 mov	 eax, DWORD PTR _stk
  0331b	2b 05 00 00 00
	00		 sub	 eax, DWORD PTR _stack
  03321	c1 f8 03	 sar	 eax, 3
  03324	83 f8 02	 cmp	 eax, 2
  03327	73 07		 jae	 SHORT $LN1@P_fleq
  03329	e8 00 00 00 00	 call	 _stakunder
  0332e	eb 60		 jmp	 SHORT $LN2@P_fleq
$LN1@P_fleq:

; 1323 :     t = (REAL1 <= REAL0) ? Truth : Falsity;

  03330	8b 0d 00 00 00
	00		 mov	 ecx, DWORD PTR _stk
  03336	8b 15 00 00 00
	00		 mov	 edx, DWORD PTR _stk
  0333c	dd 42 f8	 fld	 QWORD PTR [edx-8]
  0333f	dc 59 f0	 fcomp	 QWORD PTR [ecx-16]
  03342	df e0		 fnstsw	 ax
  03344	f6 c4 01	 test	 ah, 1
  03347	75 09		 jne	 SHORT $LN4@P_fleq
  03349	c7 45 f4 ff ff
	ff ff		 mov	 DWORD PTR tv70[ebp], -1
  03350	eb 07		 jmp	 SHORT $LN5@P_fleq
$LN4@P_fleq:
  03352	c7 45 f4 00 00
	00 00		 mov	 DWORD PTR tv70[ebp], 0
$LN5@P_fleq:
  03359	8b 45 f4	 mov	 eax, DWORD PTR tv70[ebp]
  0335c	99		 cdq
  0335d	89 45 f8	 mov	 DWORD PTR _t$[ebp], eax
  03360	89 55 fc	 mov	 DWORD PTR _t$[ebp+4], edx

; 1324 :     Realpop2;

  03363	a1 00 00 00 00	 mov	 eax, DWORD PTR _stk
  03368	83 e8 10	 sub	 eax, 16			; 00000010H
  0336b	a3 00 00 00 00	 mov	 DWORD PTR _stk, eax

; 1325 :     Push = t;

  03370	8b 0d 00 00 00
	00		 mov	 ecx, DWORD PTR _stk
  03376	8b 55 f8	 mov	 edx, DWORD PTR _t$[ebp]
  03379	89 11		 mov	 DWORD PTR [ecx], edx
  0337b	8b 45 fc	 mov	 eax, DWORD PTR _t$[ebp+4]
  0337e	89 41 04	 mov	 DWORD PTR [ecx+4], eax
  03381	8b 0d 00 00 00
	00		 mov	 ecx, DWORD PTR _stk
  03387	83 c1 08	 add	 ecx, 8
  0338a	89 0d 00 00 00
	00		 mov	 DWORD PTR _stk, ecx
$LN2@P_fleq:

; 1326 : }

  03390	8b e5		 mov	 esp, ebp
  03392	5d		 pop	 ebp
  03393	c3		 ret	 0
_P_fleq	ENDP
; Function compile flags: /Odtp
_P_fdot PROC

; 1329 : {

  033a0	55		 push	 ebp
  033a1	8b ec		 mov	 ebp, esp

; 1330 :     Sl(Realsize);

  033a3	a1 00 00 00 00	 mov	 eax, DWORD PTR _stk
  033a8	2b 05 00 00 00
	00		 sub	 eax, DWORD PTR _stack
  033ae	c1 f8 03	 sar	 eax, 3
  033b1	83 f8 01	 cmp	 eax, 1
  033b4	73 07		 jae	 SHORT $LN1@P_fdot
  033b6	e8 00 00 00 00	 call	 _stakunder
  033bb	eb 2b		 jmp	 SHORT $LN2@P_fdot
$LN1@P_fdot:

; 1331 :     V printf("%g ", REAL0);

  033bd	8b 0d 00 00 00
	00		 mov	 ecx, DWORD PTR _stk
  033c3	83 ec 08	 sub	 esp, 8
  033c6	dd 41 f8	 fld	 QWORD PTR [ecx-8]
  033c9	dd 1c 24	 fstp	 QWORD PTR [esp]
  033cc	68 00 00 00 00	 push	 OFFSET $SG83653
  033d1	e8 00 00 00 00	 call	 _printf
  033d6	83 c4 0c	 add	 esp, 12			; 0000000cH

; 1332 :     Realpop;

  033d9	8b 15 00 00 00
	00		 mov	 edx, DWORD PTR _stk
  033df	83 ea 08	 sub	 edx, 8
  033e2	89 15 00 00 00
	00		 mov	 DWORD PTR _stk, edx
$LN2@P_fdot:

; 1333 : }

  033e8	5d		 pop	 ebp
  033e9	c3		 ret	 0
_P_fdot	ENDP
; Function compile flags: /Odtp
_r$ = -8						; size = 8
_P_float PROC

; 1336 : {

  033f0	55		 push	 ebp
  033f1	8b ec		 mov	 ebp, esp
  033f3	83 ec 08	 sub	 esp, 8

; 1337 :     atl_real r;
; 1338 : 
; 1339 :     Sl(1)

  033f6	a1 00 00 00 00	 mov	 eax, DWORD PTR _stk
  033fb	2b 05 00 00 00
	00		 sub	 eax, DWORD PTR _stack
  03401	c1 f8 03	 sar	 eax, 3
  03404	83 f8 01	 cmp	 eax, 1
  03407	7d 07		 jge	 SHORT $LN2@P_float
  03409	e8 00 00 00 00	 call	 _stakunder
  0340e	eb 37		 jmp	 SHORT $LN3@P_float
$LN2@P_float:

; 1340 :     So(Realsize - 1);

  03410	8b 0d 00 00 00
	00		 mov	 ecx, DWORD PTR _stk
  03416	3b 0d 00 00 00
	00		 cmp	 ecx, DWORD PTR _stacktop
  0341c	76 07		 jbe	 SHORT $LN1@P_float
  0341e	e8 00 00 00 00	 call	 _stakover
  03423	eb 22		 jmp	 SHORT $LN3@P_float
$LN1@P_float:

; 1341 :     r = S0;

  03425	8b 15 00 00 00
	00		 mov	 edx, DWORD PTR _stk
  0342b	df 6a f8	 fild	 QWORD PTR [edx-8]
  0342e	dd 5d f8	 fstp	 QWORD PTR _r$[ebp]

; 1342 :     stk += Realsize - 1;

  03431	a1 00 00 00 00	 mov	 eax, DWORD PTR _stk
  03436	a3 00 00 00 00	 mov	 DWORD PTR _stk, eax

; 1343 :     SREAL0(r);

  0343b	8b 0d 00 00 00
	00		 mov	 ecx, DWORD PTR _stk
  03441	dd 45 f8	 fld	 QWORD PTR _r$[ebp]
  03444	dd 59 f8	 fstp	 QWORD PTR [ecx-8]
$LN3@P_float:

; 1344 : }

  03447	8b e5		 mov	 esp, ebp
  03449	5d		 pop	 ebp
  0344a	c3		 ret	 0
_P_float ENDP
_TEXT	ENDS
EXTRN	__ftol2_sse:PROC
; Function compile flags: /Odtp
_TEXT	SEGMENT
_i$ = -8						; size = 8
_P_fix	PROC

; 1347 : {

  03450	55		 push	 ebp
  03451	8b ec		 mov	 ebp, esp
  03453	83 ec 08	 sub	 esp, 8

; 1348 :     stackitem i;
; 1349 : 
; 1350 :     Sl(Realsize);

  03456	a1 00 00 00 00	 mov	 eax, DWORD PTR _stk
  0345b	2b 05 00 00 00
	00		 sub	 eax, DWORD PTR _stack
  03461	c1 f8 03	 sar	 eax, 3
  03464	83 f8 01	 cmp	 eax, 1
  03467	73 07		 jae	 SHORT $LN1@P_fix
  03469	e8 00 00 00 00	 call	 _stakunder
  0346e	eb 41		 jmp	 SHORT $LN2@P_fix
$LN1@P_fix:

; 1351 :     i = (int) REAL0;

  03470	8b 0d 00 00 00
	00		 mov	 ecx, DWORD PTR _stk
  03476	dd 41 f8	 fld	 QWORD PTR [ecx-8]
  03479	e8 00 00 00 00	 call	 __ftol2_sse
  0347e	99		 cdq
  0347f	89 45 f8	 mov	 DWORD PTR _i$[ebp], eax
  03482	89 55 fc	 mov	 DWORD PTR _i$[ebp+4], edx

; 1352 :     Realpop;

  03485	8b 15 00 00 00
	00		 mov	 edx, DWORD PTR _stk
  0348b	83 ea 08	 sub	 edx, 8
  0348e	89 15 00 00 00
	00		 mov	 DWORD PTR _stk, edx

; 1353 :     Push = i;

  03494	a1 00 00 00 00	 mov	 eax, DWORD PTR _stk
  03499	8b 4d f8	 mov	 ecx, DWORD PTR _i$[ebp]
  0349c	89 08		 mov	 DWORD PTR [eax], ecx
  0349e	8b 55 fc	 mov	 edx, DWORD PTR _i$[ebp+4]
  034a1	89 50 04	 mov	 DWORD PTR [eax+4], edx
  034a4	a1 00 00 00 00	 mov	 eax, DWORD PTR _stk
  034a9	83 c0 08	 add	 eax, 8
  034ac	a3 00 00 00 00	 mov	 DWORD PTR _stk, eax
$LN2@P_fix:

; 1354 : }

  034b1	8b e5		 mov	 esp, ebp
  034b3	5d		 pop	 ebp
  034b4	c3		 ret	 0
_P_fix	ENDP
_TEXT	ENDS
EXTRN	_acos:PROC
; Function compile flags: /Odtp
_TEXT	SEGMENT
_P_acos	PROC

; 1361 : {

  034c0	55		 push	 ebp
  034c1	8b ec		 mov	 ebp, esp

; 1362 :     Mathfunc(acos);

  034c3	a1 00 00 00 00	 mov	 eax, DWORD PTR _stk
  034c8	2b 05 00 00 00
	00		 sub	 eax, DWORD PTR _stack
  034ce	c1 f8 03	 sar	 eax, 3
  034d1	83 f8 01	 cmp	 eax, 1
  034d4	73 07		 jae	 SHORT $LN1@P_acos
  034d6	e8 00 00 00 00	 call	 _stakunder
  034db	eb 20		 jmp	 SHORT $LN2@P_acos
$LN1@P_acos:
  034dd	8b 0d 00 00 00
	00		 mov	 ecx, DWORD PTR _stk
  034e3	83 ec 08	 sub	 esp, 8
  034e6	dd 41 f8	 fld	 QWORD PTR [ecx-8]
  034e9	dd 1c 24	 fstp	 QWORD PTR [esp]
  034ec	e8 00 00 00 00	 call	 _acos
  034f1	83 c4 08	 add	 esp, 8
  034f4	8b 15 00 00 00
	00		 mov	 edx, DWORD PTR _stk
  034fa	dd 5a f8	 fstp	 QWORD PTR [edx-8]
$LN2@P_acos:

; 1363 : }

  034fd	5d		 pop	 ebp
  034fe	c3		 ret	 0
_P_acos	ENDP
_TEXT	ENDS
EXTRN	_asin:PROC
; Function compile flags: /Odtp
_TEXT	SEGMENT
_P_asin	PROC

; 1366 : {

  03500	55		 push	 ebp
  03501	8b ec		 mov	 ebp, esp

; 1367 :     Mathfunc(asin);

  03503	a1 00 00 00 00	 mov	 eax, DWORD PTR _stk
  03508	2b 05 00 00 00
	00		 sub	 eax, DWORD PTR _stack
  0350e	c1 f8 03	 sar	 eax, 3
  03511	83 f8 01	 cmp	 eax, 1
  03514	73 07		 jae	 SHORT $LN1@P_asin
  03516	e8 00 00 00 00	 call	 _stakunder
  0351b	eb 20		 jmp	 SHORT $LN2@P_asin
$LN1@P_asin:
  0351d	8b 0d 00 00 00
	00		 mov	 ecx, DWORD PTR _stk
  03523	83 ec 08	 sub	 esp, 8
  03526	dd 41 f8	 fld	 QWORD PTR [ecx-8]
  03529	dd 1c 24	 fstp	 QWORD PTR [esp]
  0352c	e8 00 00 00 00	 call	 _asin
  03531	83 c4 08	 add	 esp, 8
  03534	8b 15 00 00 00
	00		 mov	 edx, DWORD PTR _stk
  0353a	dd 5a f8	 fstp	 QWORD PTR [edx-8]
$LN2@P_asin:

; 1368 : }

  0353d	5d		 pop	 ebp
  0353e	c3		 ret	 0
_P_asin	ENDP
_TEXT	ENDS
EXTRN	_atan:PROC
; Function compile flags: /Odtp
_TEXT	SEGMENT
_P_atan	PROC

; 1371 : {

  03540	55		 push	 ebp
  03541	8b ec		 mov	 ebp, esp

; 1372 :     Mathfunc(atan);

  03543	a1 00 00 00 00	 mov	 eax, DWORD PTR _stk
  03548	2b 05 00 00 00
	00		 sub	 eax, DWORD PTR _stack
  0354e	c1 f8 03	 sar	 eax, 3
  03551	83 f8 01	 cmp	 eax, 1
  03554	73 07		 jae	 SHORT $LN1@P_atan
  03556	e8 00 00 00 00	 call	 _stakunder
  0355b	eb 20		 jmp	 SHORT $LN2@P_atan
$LN1@P_atan:
  0355d	8b 0d 00 00 00
	00		 mov	 ecx, DWORD PTR _stk
  03563	83 ec 08	 sub	 esp, 8
  03566	dd 41 f8	 fld	 QWORD PTR [ecx-8]
  03569	dd 1c 24	 fstp	 QWORD PTR [esp]
  0356c	e8 00 00 00 00	 call	 _atan
  03571	83 c4 08	 add	 esp, 8
  03574	8b 15 00 00 00
	00		 mov	 edx, DWORD PTR _stk
  0357a	dd 5a f8	 fstp	 QWORD PTR [edx-8]
$LN2@P_atan:

; 1373 : }

  0357d	5d		 pop	 ebp
  0357e	c3		 ret	 0
_P_atan	ENDP
_TEXT	ENDS
EXTRN	_atan2:PROC
; Function compile flags: /Odtp
_TEXT	SEGMENT
_P_atan2 PROC

; 1376 : {

  03580	55		 push	 ebp
  03581	8b ec		 mov	 ebp, esp

; 1377 :     Sl(2 * Realsize);

  03583	a1 00 00 00 00	 mov	 eax, DWORD PTR _stk
  03588	2b 05 00 00 00
	00		 sub	 eax, DWORD PTR _stack
  0358e	c1 f8 03	 sar	 eax, 3
  03591	83 f8 02	 cmp	 eax, 2
  03594	73 07		 jae	 SHORT $LN1@P_atan2@2
  03596	e8 00 00 00 00	 call	 _stakunder
  0359b	eb 3d		 jmp	 SHORT $LN2@P_atan2@2
$LN1@P_atan2@2:

; 1378 :     SREAL1(atan2(REAL1, REAL0));

  0359d	8b 0d 00 00 00
	00		 mov	 ecx, DWORD PTR _stk
  035a3	83 ec 08	 sub	 esp, 8
  035a6	dd 41 f8	 fld	 QWORD PTR [ecx-8]
  035a9	dd 1c 24	 fstp	 QWORD PTR [esp]
  035ac	8b 15 00 00 00
	00		 mov	 edx, DWORD PTR _stk
  035b2	83 ec 08	 sub	 esp, 8
  035b5	dd 42 f0	 fld	 QWORD PTR [edx-16]
  035b8	dd 1c 24	 fstp	 QWORD PTR [esp]
  035bb	e8 00 00 00 00	 call	 _atan2
  035c0	83 c4 10	 add	 esp, 16			; 00000010H
  035c3	a1 00 00 00 00	 mov	 eax, DWORD PTR _stk
  035c8	dd 58 f0	 fstp	 QWORD PTR [eax-16]

; 1379 :     Realpop;

  035cb	8b 0d 00 00 00
	00		 mov	 ecx, DWORD PTR _stk
  035d1	83 e9 08	 sub	 ecx, 8
  035d4	89 0d 00 00 00
	00		 mov	 DWORD PTR _stk, ecx
$LN2@P_atan2@2:

; 1380 : }

  035da	5d		 pop	 ebp
  035db	c3		 ret	 0
_P_atan2 ENDP
_TEXT	ENDS
EXTRN	_cos:PROC
; Function compile flags: /Odtp
_TEXT	SEGMENT
_P_cos	PROC

; 1383 : {

  035e0	55		 push	 ebp
  035e1	8b ec		 mov	 ebp, esp

; 1384 :     Mathfunc(cos);

  035e3	a1 00 00 00 00	 mov	 eax, DWORD PTR _stk
  035e8	2b 05 00 00 00
	00		 sub	 eax, DWORD PTR _stack
  035ee	c1 f8 03	 sar	 eax, 3
  035f1	83 f8 01	 cmp	 eax, 1
  035f4	73 07		 jae	 SHORT $LN1@P_cos
  035f6	e8 00 00 00 00	 call	 _stakunder
  035fb	eb 20		 jmp	 SHORT $LN2@P_cos
$LN1@P_cos:
  035fd	8b 0d 00 00 00
	00		 mov	 ecx, DWORD PTR _stk
  03603	83 ec 08	 sub	 esp, 8
  03606	dd 41 f8	 fld	 QWORD PTR [ecx-8]
  03609	dd 1c 24	 fstp	 QWORD PTR [esp]
  0360c	e8 00 00 00 00	 call	 _cos
  03611	83 c4 08	 add	 esp, 8
  03614	8b 15 00 00 00
	00		 mov	 edx, DWORD PTR _stk
  0361a	dd 5a f8	 fstp	 QWORD PTR [edx-8]
$LN2@P_cos:

; 1385 : }

  0361d	5d		 pop	 ebp
  0361e	c3		 ret	 0
_P_cos	ENDP
_TEXT	ENDS
EXTRN	_exp:PROC
; Function compile flags: /Odtp
_TEXT	SEGMENT
_P_exp	PROC

; 1388 : {

  03620	55		 push	 ebp
  03621	8b ec		 mov	 ebp, esp

; 1389 :     Mathfunc(exp);

  03623	a1 00 00 00 00	 mov	 eax, DWORD PTR _stk
  03628	2b 05 00 00 00
	00		 sub	 eax, DWORD PTR _stack
  0362e	c1 f8 03	 sar	 eax, 3
  03631	83 f8 01	 cmp	 eax, 1
  03634	73 07		 jae	 SHORT $LN1@P_exp
  03636	e8 00 00 00 00	 call	 _stakunder
  0363b	eb 20		 jmp	 SHORT $LN2@P_exp
$LN1@P_exp:
  0363d	8b 0d 00 00 00
	00		 mov	 ecx, DWORD PTR _stk
  03643	83 ec 08	 sub	 esp, 8
  03646	dd 41 f8	 fld	 QWORD PTR [ecx-8]
  03649	dd 1c 24	 fstp	 QWORD PTR [esp]
  0364c	e8 00 00 00 00	 call	 _exp
  03651	83 c4 08	 add	 esp, 8
  03654	8b 15 00 00 00
	00		 mov	 edx, DWORD PTR _stk
  0365a	dd 5a f8	 fstp	 QWORD PTR [edx-8]
$LN2@P_exp:

; 1390 : }

  0365d	5d		 pop	 ebp
  0365e	c3		 ret	 0
_P_exp	ENDP
_TEXT	ENDS
EXTRN	_log:PROC
; Function compile flags: /Odtp
_TEXT	SEGMENT
_P_log	PROC

; 1393 : {

  03660	55		 push	 ebp
  03661	8b ec		 mov	 ebp, esp

; 1394 :     Mathfunc(log);

  03663	a1 00 00 00 00	 mov	 eax, DWORD PTR _stk
  03668	2b 05 00 00 00
	00		 sub	 eax, DWORD PTR _stack
  0366e	c1 f8 03	 sar	 eax, 3
  03671	83 f8 01	 cmp	 eax, 1
  03674	73 07		 jae	 SHORT $LN1@P_log
  03676	e8 00 00 00 00	 call	 _stakunder
  0367b	eb 20		 jmp	 SHORT $LN2@P_log
$LN1@P_log:
  0367d	8b 0d 00 00 00
	00		 mov	 ecx, DWORD PTR _stk
  03683	83 ec 08	 sub	 esp, 8
  03686	dd 41 f8	 fld	 QWORD PTR [ecx-8]
  03689	dd 1c 24	 fstp	 QWORD PTR [esp]
  0368c	e8 00 00 00 00	 call	 _log
  03691	83 c4 08	 add	 esp, 8
  03694	8b 15 00 00 00
	00		 mov	 edx, DWORD PTR _stk
  0369a	dd 5a f8	 fstp	 QWORD PTR [edx-8]
$LN2@P_log:

; 1395 : }

  0369d	5d		 pop	 ebp
  0369e	c3		 ret	 0
_P_log	ENDP
_TEXT	ENDS
EXTRN	_pow:PROC
; Function compile flags: /Odtp
_TEXT	SEGMENT
_P_pow	PROC

; 1398 : {

  036a0	55		 push	 ebp
  036a1	8b ec		 mov	 ebp, esp

; 1399 :     Sl(2 * Realsize);

  036a3	a1 00 00 00 00	 mov	 eax, DWORD PTR _stk
  036a8	2b 05 00 00 00
	00		 sub	 eax, DWORD PTR _stack
  036ae	c1 f8 03	 sar	 eax, 3
  036b1	83 f8 02	 cmp	 eax, 2
  036b4	73 07		 jae	 SHORT $LN1@P_pow
  036b6	e8 00 00 00 00	 call	 _stakunder
  036bb	eb 3d		 jmp	 SHORT $LN2@P_pow
$LN1@P_pow:

; 1400 :     SREAL1(pow(REAL1, REAL0));

  036bd	8b 0d 00 00 00
	00		 mov	 ecx, DWORD PTR _stk
  036c3	83 ec 08	 sub	 esp, 8
  036c6	dd 41 f8	 fld	 QWORD PTR [ecx-8]
  036c9	dd 1c 24	 fstp	 QWORD PTR [esp]
  036cc	8b 15 00 00 00
	00		 mov	 edx, DWORD PTR _stk
  036d2	83 ec 08	 sub	 esp, 8
  036d5	dd 42 f0	 fld	 QWORD PTR [edx-16]
  036d8	dd 1c 24	 fstp	 QWORD PTR [esp]
  036db	e8 00 00 00 00	 call	 _pow
  036e0	83 c4 10	 add	 esp, 16			; 00000010H
  036e3	a1 00 00 00 00	 mov	 eax, DWORD PTR _stk
  036e8	dd 58 f0	 fstp	 QWORD PTR [eax-16]

; 1401 :     Realpop;

  036eb	8b 0d 00 00 00
	00		 mov	 ecx, DWORD PTR _stk
  036f1	83 e9 08	 sub	 ecx, 8
  036f4	89 0d 00 00 00
	00		 mov	 DWORD PTR _stk, ecx
$LN2@P_pow:

; 1402 : }

  036fa	5d		 pop	 ebp
  036fb	c3		 ret	 0
_P_pow	ENDP
_TEXT	ENDS
EXTRN	_sin:PROC
; Function compile flags: /Odtp
_TEXT	SEGMENT
_P_sin	PROC

; 1405 : {

  03700	55		 push	 ebp
  03701	8b ec		 mov	 ebp, esp

; 1406 :     Mathfunc(sin);

  03703	a1 00 00 00 00	 mov	 eax, DWORD PTR _stk
  03708	2b 05 00 00 00
	00		 sub	 eax, DWORD PTR _stack
  0370e	c1 f8 03	 sar	 eax, 3
  03711	83 f8 01	 cmp	 eax, 1
  03714	73 07		 jae	 SHORT $LN1@P_sin
  03716	e8 00 00 00 00	 call	 _stakunder
  0371b	eb 20		 jmp	 SHORT $LN2@P_sin
$LN1@P_sin:
  0371d	8b 0d 00 00 00
	00		 mov	 ecx, DWORD PTR _stk
  03723	83 ec 08	 sub	 esp, 8
  03726	dd 41 f8	 fld	 QWORD PTR [ecx-8]
  03729	dd 1c 24	 fstp	 QWORD PTR [esp]
  0372c	e8 00 00 00 00	 call	 _sin
  03731	83 c4 08	 add	 esp, 8
  03734	8b 15 00 00 00
	00		 mov	 edx, DWORD PTR _stk
  0373a	dd 5a f8	 fstp	 QWORD PTR [edx-8]
$LN2@P_sin:

; 1407 : }

  0373d	5d		 pop	 ebp
  0373e	c3		 ret	 0
_P_sin	ENDP
_TEXT	ENDS
EXTRN	_sqrt:PROC
; Function compile flags: /Odtp
_TEXT	SEGMENT
_P_sqrt	PROC

; 1410 : {

  03740	55		 push	 ebp
  03741	8b ec		 mov	 ebp, esp

; 1411 :     Mathfunc(sqrt);

  03743	a1 00 00 00 00	 mov	 eax, DWORD PTR _stk
  03748	2b 05 00 00 00
	00		 sub	 eax, DWORD PTR _stack
  0374e	c1 f8 03	 sar	 eax, 3
  03751	83 f8 01	 cmp	 eax, 1
  03754	73 07		 jae	 SHORT $LN1@P_sqrt
  03756	e8 00 00 00 00	 call	 _stakunder
  0375b	eb 20		 jmp	 SHORT $LN2@P_sqrt
$LN1@P_sqrt:
  0375d	8b 0d 00 00 00
	00		 mov	 ecx, DWORD PTR _stk
  03763	83 ec 08	 sub	 esp, 8
  03766	dd 41 f8	 fld	 QWORD PTR [ecx-8]
  03769	dd 1c 24	 fstp	 QWORD PTR [esp]
  0376c	e8 00 00 00 00	 call	 _sqrt
  03771	83 c4 08	 add	 esp, 8
  03774	8b 15 00 00 00
	00		 mov	 edx, DWORD PTR _stk
  0377a	dd 5a f8	 fstp	 QWORD PTR [edx-8]
$LN2@P_sqrt:

; 1412 : }

  0377d	5d		 pop	 ebp
  0377e	c3		 ret	 0
_P_sqrt	ENDP
_TEXT	ENDS
EXTRN	_tan:PROC
; Function compile flags: /Odtp
_TEXT	SEGMENT
_P_tan	PROC

; 1415 : {

  03780	55		 push	 ebp
  03781	8b ec		 mov	 ebp, esp

; 1416 :     Mathfunc(tan);

  03783	a1 00 00 00 00	 mov	 eax, DWORD PTR _stk
  03788	2b 05 00 00 00
	00		 sub	 eax, DWORD PTR _stack
  0378e	c1 f8 03	 sar	 eax, 3
  03791	83 f8 01	 cmp	 eax, 1
  03794	73 07		 jae	 SHORT $LN1@P_tan
  03796	e8 00 00 00 00	 call	 _stakunder
  0379b	eb 20		 jmp	 SHORT $LN2@P_tan
$LN1@P_tan:
  0379d	8b 0d 00 00 00
	00		 mov	 ecx, DWORD PTR _stk
  037a3	83 ec 08	 sub	 esp, 8
  037a6	dd 41 f8	 fld	 QWORD PTR [ecx-8]
  037a9	dd 1c 24	 fstp	 QWORD PTR [esp]
  037ac	e8 00 00 00 00	 call	 _tan
  037b1	83 c4 08	 add	 esp, 8
  037b4	8b 15 00 00 00
	00		 mov	 edx, DWORD PTR _stk
  037ba	dd 5a f8	 fstp	 QWORD PTR [edx-8]
$LN2@P_tan:

; 1417 : }

  037bd	5d		 pop	 ebp
  037be	c3		 ret	 0
_P_tan	ENDP
; Function compile flags: /Odtp
tv71 = -4						; size = 4
_P_dot	PROC

; 1427 : {

  037c0	55		 push	 ebp
  037c1	8b ec		 mov	 ebp, esp
  037c3	51		 push	 ecx

; 1428 :     Sl(1);

  037c4	a1 00 00 00 00	 mov	 eax, DWORD PTR _stk
  037c9	2b 05 00 00 00
	00		 sub	 eax, DWORD PTR _stack
  037cf	c1 f8 03	 sar	 eax, 3
  037d2	83 f8 01	 cmp	 eax, 1
  037d5	7d 07		 jge	 SHORT $LN1@P_dot
  037d7	e8 00 00 00 00	 call	 _stakunder
  037dc	eb 42		 jmp	 SHORT $LN2@P_dot
$LN1@P_dot:

; 1429 :     V printf(base == 16 ? "%lX" : "%ld ", S0);

  037de	83 3d 00 00 00
	00 10		 cmp	 DWORD PTR _base, 16	; 00000010H
  037e5	75 09		 jne	 SHORT $LN4@P_dot
  037e7	c7 45 fc 00 00
	00 00		 mov	 DWORD PTR tv71[ebp], OFFSET $SG83763
  037ee	eb 07		 jmp	 SHORT $LN5@P_dot
$LN4@P_dot:
  037f0	c7 45 fc 00 00
	00 00		 mov	 DWORD PTR tv71[ebp], OFFSET $SG83764
$LN5@P_dot:
  037f7	8b 0d 00 00 00
	00		 mov	 ecx, DWORD PTR _stk
  037fd	8b 51 fc	 mov	 edx, DWORD PTR [ecx-4]
  03800	52		 push	 edx
  03801	8b 41 f8	 mov	 eax, DWORD PTR [ecx-8]
  03804	50		 push	 eax
  03805	8b 4d fc	 mov	 ecx, DWORD PTR tv71[ebp]
  03808	51		 push	 ecx
  03809	e8 00 00 00 00	 call	 _printf
  0380e	83 c4 0c	 add	 esp, 12			; 0000000cH

; 1430 :     Pop;

  03811	8b 15 00 00 00
	00		 mov	 edx, DWORD PTR _stk
  03817	83 ea 08	 sub	 edx, 8
  0381a	89 15 00 00 00
	00		 mov	 DWORD PTR _stk, edx
$LN2@P_dot:

; 1431 : }

  03820	8b e5		 mov	 esp, ebp
  03822	5d		 pop	 ebp
  03823	c3		 ret	 0
_P_dot	ENDP
; Function compile flags: /Odtp
tv78 = -4						; size = 4
_P_question PROC

; 1434 : {

  03830	55		 push	 ebp
  03831	8b ec		 mov	 ebp, esp
  03833	51		 push	 ecx

; 1435 :     Sl(1);

  03834	a1 00 00 00 00	 mov	 eax, DWORD PTR _stk
  03839	2b 05 00 00 00
	00		 sub	 eax, DWORD PTR _stack
  0383f	c1 f8 03	 sar	 eax, 3
  03842	83 f8 01	 cmp	 eax, 1
  03845	7d 07		 jge	 SHORT $LN3@P_question
  03847	e8 00 00 00 00	 call	 _stakunder
  0384c	eb 6c		 jmp	 SHORT $LN4@P_question
$LN3@P_question:

; 1436 :     Hpc(S0);

  0384e	8b 0d 00 00 00
	00		 mov	 ecx, DWORD PTR _stk
  03854	8b 51 f8	 mov	 edx, DWORD PTR [ecx-8]
  03857	3b 15 00 00 00
	00		 cmp	 edx, DWORD PTR _heapbot
  0385d	72 10		 jb	 SHORT $LN1@P_question
  0385f	a1 00 00 00 00	 mov	 eax, DWORD PTR _stk
  03864	8b 48 f8	 mov	 ecx, DWORD PTR [eax-8]
  03867	3b 0d 00 00 00
	00		 cmp	 ecx, DWORD PTR _heaptop
  0386d	72 07		 jb	 SHORT $LN2@P_question
$LN1@P_question:
  0386f	e8 00 00 00 00	 call	 _badpointer
  03874	eb 44		 jmp	 SHORT $LN4@P_question
$LN2@P_question:

; 1437 :     V printf(base == 16 ? "%lX" : "%ld ", *((stackitem *) S0));

  03876	83 3d 00 00 00
	00 10		 cmp	 DWORD PTR _base, 16	; 00000010H
  0387d	75 09		 jne	 SHORT $LN6@P_question
  0387f	c7 45 fc 00 00
	00 00		 mov	 DWORD PTR tv78[ebp], OFFSET $SG83774
  03886	eb 07		 jmp	 SHORT $LN7@P_question
$LN6@P_question:
  03888	c7 45 fc 00 00
	00 00		 mov	 DWORD PTR tv78[ebp], OFFSET $SG83775
$LN7@P_question:
  0388f	8b 15 00 00 00
	00		 mov	 edx, DWORD PTR _stk
  03895	8b 42 f8	 mov	 eax, DWORD PTR [edx-8]
  03898	8b 48 04	 mov	 ecx, DWORD PTR [eax+4]
  0389b	51		 push	 ecx
  0389c	8b 10		 mov	 edx, DWORD PTR [eax]
  0389e	52		 push	 edx
  0389f	8b 45 fc	 mov	 eax, DWORD PTR tv78[ebp]
  038a2	50		 push	 eax
  038a3	e8 00 00 00 00	 call	 _printf
  038a8	83 c4 0c	 add	 esp, 12			; 0000000cH

; 1438 :     Pop;

  038ab	8b 0d 00 00 00
	00		 mov	 ecx, DWORD PTR _stk
  038b1	83 e9 08	 sub	 ecx, 8
  038b4	89 0d 00 00 00
	00		 mov	 DWORD PTR _stk, ecx
$LN4@P_question:

; 1439 : }

  038ba	8b e5		 mov	 esp, ebp
  038bc	5d		 pop	 ebp
  038bd	c3		 ret	 0
_P_question ENDP
; Function compile flags: /Odtp
_P_cr	PROC

; 1442 : {

  038c0	55		 push	 ebp
  038c1	8b ec		 mov	 ebp, esp

; 1443 :     V printf("\n");

  038c3	68 00 00 00 00	 push	 OFFSET $SG83779
  038c8	e8 00 00 00 00	 call	 _printf
  038cd	83 c4 04	 add	 esp, 4

; 1444 : }

  038d0	5d		 pop	 ebp
  038d1	c3		 ret	 0
_P_cr	ENDP
_TEXT	ENDS
_BSS	SEGMENT
_stackbot DD	01H DUP (?)
; Function compile flags: /Odtp
_BSS	ENDS
_TEXT	SEGMENT
tv72 = -8						; size = 4
_tsp$ = -4						; size = 4
_P_dots	PROC

; 1447 : {

  038e0	55		 push	 ebp
  038e1	8b ec		 mov	 ebp, esp
  038e3	83 ec 08	 sub	 esp, 8

; 1448 :     stackitem *tsp;
; 1449 : 
; 1450 :     V printf("Stack: ");

  038e6	68 00 00 00 00	 push	 OFFSET $SG83784
  038eb	e8 00 00 00 00	 call	 _printf
  038f0	83 c4 04	 add	 esp, 4

; 1451 :     if (stk == stackbot)

  038f3	a1 00 00 00 00	 mov	 eax, DWORD PTR _stk
  038f8	3b 05 00 00 00
	00		 cmp	 eax, DWORD PTR _stackbot
  038fe	75 0f		 jne	 SHORT $LN5@P_dots

; 1452 :         V printf("Empty.");

  03900	68 00 00 00 00	 push	 OFFSET $SG83787
  03905	e8 00 00 00 00	 call	 _printf
  0390a	83 c4 04	 add	 esp, 4

; 1453 :     else {

  0390d	eb 50		 jmp	 SHORT $LN6@P_dots
$LN5@P_dots:

; 1454 : 	for (tsp = stack; tsp < stk; tsp++) {

  0390f	8b 0d 00 00 00
	00		 mov	 ecx, DWORD PTR _stack
  03915	89 4d fc	 mov	 DWORD PTR _tsp$[ebp], ecx
  03918	eb 09		 jmp	 SHORT $LN3@P_dots
$LN2@P_dots:
  0391a	8b 55 fc	 mov	 edx, DWORD PTR _tsp$[ebp]
  0391d	83 c2 08	 add	 edx, 8
  03920	89 55 fc	 mov	 DWORD PTR _tsp$[ebp], edx
$LN3@P_dots:
  03923	8b 45 fc	 mov	 eax, DWORD PTR _tsp$[ebp]
  03926	3b 05 00 00 00
	00		 cmp	 eax, DWORD PTR _stk
  0392c	73 31		 jae	 SHORT $LN6@P_dots

; 1455 :             V printf(base == 16 ? "%lX" : "%ld ", *tsp);

  0392e	83 3d 00 00 00
	00 10		 cmp	 DWORD PTR _base, 16	; 00000010H
  03935	75 09		 jne	 SHORT $LN8@P_dots
  03937	c7 45 f8 00 00
	00 00		 mov	 DWORD PTR tv72[ebp], OFFSET $SG83793
  0393e	eb 07		 jmp	 SHORT $LN9@P_dots
$LN8@P_dots:
  03940	c7 45 f8 00 00
	00 00		 mov	 DWORD PTR tv72[ebp], OFFSET $SG83794
$LN9@P_dots:
  03947	8b 4d fc	 mov	 ecx, DWORD PTR _tsp$[ebp]
  0394a	8b 51 04	 mov	 edx, DWORD PTR [ecx+4]
  0394d	52		 push	 edx
  0394e	8b 01		 mov	 eax, DWORD PTR [ecx]
  03950	50		 push	 eax
  03951	8b 4d f8	 mov	 ecx, DWORD PTR tv72[ebp]
  03954	51		 push	 ecx
  03955	e8 00 00 00 00	 call	 _printf
  0395a	83 c4 0c	 add	 esp, 12			; 0000000cH

; 1456 : 	}

  0395d	eb bb		 jmp	 SHORT $LN2@P_dots
$LN6@P_dots:

; 1457 :     }
; 1458 : }

  0395f	8b e5		 mov	 esp, ebp
  03961	5d		 pop	 ebp
  03962	c3		 ret	 0
_P_dots	ENDP
_TEXT	ENDS
_BSS	SEGMENT
_s_dotparen DQ	01H DUP (?)
; Function compile flags: /Odtp
_BSS	ENDS
_TEXT	SEGMENT
tv69 = -4						; size = 4
_P_dotquote PROC

; 1461 : {

  03970	55		 push	 ebp
  03971	8b ec		 mov	 ebp, esp
  03973	51		 push	 ecx

; 1462 :     Compiling;

  03974	a1 00 00 00 00	 mov	 eax, DWORD PTR _heap
  03979	89 45 fc	 mov	 DWORD PTR tv69[ebp], eax
  0397c	8b 4d fc	 mov	 ecx, DWORD PTR tv69[ebp]
  0397f	8b 55 fc	 mov	 edx, DWORD PTR tv69[ebp]
  03982	8b 01		 mov	 eax, DWORD PTR [ecx]
  03984	0b 42 04	 or	 eax, DWORD PTR [edx+4]
  03987	75 07		 jne	 SHORT $LN2@P_dotquote
  03989	e8 00 00 00 00	 call	 _notcomp
  0398e	eb 47		 jmp	 SHORT $LN3@P_dotquote
$LN2@P_dotquote:

; 1463 :     stringlit = True;		      /* Set string literal expected */

  03990	c7 05 00 00 00
	00 01 00 00 00	 mov	 DWORD PTR _stringlit, 1

; 1464 :     Compconst(s_dotparen);	      /* Compile .( word */

  0399a	8b 0d 00 00 00
	00		 mov	 ecx, DWORD PTR _hptr
  039a0	83 c1 08	 add	 ecx, 8
  039a3	3b 0d 00 00 00
	00		 cmp	 ecx, DWORD PTR _heaptop
  039a9	76 07		 jbe	 SHORT $LN1@P_dotquote
  039ab	e8 00 00 00 00	 call	 _heapover
  039b0	eb 25		 jmp	 SHORT $LN3@P_dotquote
$LN1@P_dotquote:
  039b2	8b 15 00 00 00
	00		 mov	 edx, DWORD PTR _hptr
  039b8	a1 00 00 00 00	 mov	 eax, DWORD PTR _s_dotparen
  039bd	89 02		 mov	 DWORD PTR [edx], eax
  039bf	8b 0d 04 00 00
	00		 mov	 ecx, DWORD PTR _s_dotparen+4
  039c5	89 4a 04	 mov	 DWORD PTR [edx+4], ecx
  039c8	8b 15 00 00 00
	00		 mov	 edx, DWORD PTR _hptr
  039ce	83 c2 08	 add	 edx, 8
  039d1	89 15 00 00 00
	00		 mov	 DWORD PTR _hptr, edx
$LN3@P_dotquote:

; 1465 : }

  039d7	8b e5		 mov	 esp, ebp
  039d9	5d		 pop	 ebp
  039da	c3		 ret	 0
_P_dotquote ENDP
; Function compile flags: /Odtp
_P_dotparen PROC

; 1468 : {

  039e0	55		 push	 ebp
  039e1	8b ec		 mov	 ebp, esp

; 1469 :     if (ip == NULL) {		      /* If interpreting */

  039e3	83 3d 00 00 00
	00 00		 cmp	 DWORD PTR _ip, 0
  039ea	75 0c		 jne	 SHORT $LN2@P_dotparen

; 1470 : 	stringlit = True;	      /* Set to print next string constant */

  039ec	c7 05 00 00 00
	00 01 00 00 00	 mov	 DWORD PTR _stringlit, 1

; 1471 :     } else {			      /* Otherwise, */

  039f6	eb 2d		 jmp	 SHORT $LN3@P_dotparen
$LN2@P_dotparen:

; 1472 :         V printf("%s", ((char *) ip) + 1); /* print string literal

  039f8	a1 00 00 00 00	 mov	 eax, DWORD PTR _ip
  039fd	83 c0 01	 add	 eax, 1
  03a00	50		 push	 eax
  03a01	68 00 00 00 00	 push	 OFFSET $SG83807
  03a06	e8 00 00 00 00	 call	 _printf
  03a0b	83 c4 08	 add	 esp, 8

; 1473 : 					 in in-line code. */
; 1474 : 	Skipstring;		      /* And advance IP past it */

  03a0e	8b 0d 00 00 00
	00		 mov	 ecx, DWORD PTR _ip
  03a14	0f be 11	 movsx	 edx, BYTE PTR [ecx]
  03a17	a1 00 00 00 00	 mov	 eax, DWORD PTR _ip
  03a1c	8d 0c 90	 lea	 ecx, DWORD PTR [eax+edx*4]
  03a1f	89 0d 00 00 00
	00		 mov	 DWORD PTR _ip, ecx
$LN3@P_dotparen:

; 1475 :     }
; 1476 : }

  03a25	5d		 pop	 ebp
  03a26	c3		 ret	 0
_P_dotparen ENDP
; Function compile flags: /Odtp
_P_type PROC

; 1479 : {

  03a30	55		 push	 ebp
  03a31	8b ec		 mov	 ebp, esp

; 1480 :     Sl(1);

  03a33	a1 00 00 00 00	 mov	 eax, DWORD PTR _stk
  03a38	2b 05 00 00 00
	00		 sub	 eax, DWORD PTR _stack
  03a3e	c1 f8 03	 sar	 eax, 3
  03a41	83 f8 01	 cmp	 eax, 1
  03a44	7d 07		 jge	 SHORT $LN3@P_type
  03a46	e8 00 00 00 00	 call	 _stakunder
  03a4b	eb 4e		 jmp	 SHORT $LN4@P_type
$LN3@P_type:

; 1481 :     Hpc(S0);

  03a4d	8b 0d 00 00 00
	00		 mov	 ecx, DWORD PTR _stk
  03a53	8b 51 f8	 mov	 edx, DWORD PTR [ecx-8]
  03a56	3b 15 00 00 00
	00		 cmp	 edx, DWORD PTR _heapbot
  03a5c	72 10		 jb	 SHORT $LN1@P_type
  03a5e	a1 00 00 00 00	 mov	 eax, DWORD PTR _stk
  03a63	8b 48 f8	 mov	 ecx, DWORD PTR [eax-8]
  03a66	3b 0d 00 00 00
	00		 cmp	 ecx, DWORD PTR _heaptop
  03a6c	72 07		 jb	 SHORT $LN2@P_type
$LN1@P_type:
  03a6e	e8 00 00 00 00	 call	 _badpointer
  03a73	eb 26		 jmp	 SHORT $LN4@P_type
$LN2@P_type:

; 1482 :     V printf("%s", (char *) S0);

  03a75	8b 15 00 00 00
	00		 mov	 edx, DWORD PTR _stk
  03a7b	8b 42 f8	 mov	 eax, DWORD PTR [edx-8]
  03a7e	50		 push	 eax
  03a7f	68 00 00 00 00	 push	 OFFSET $SG83818
  03a84	e8 00 00 00 00	 call	 _printf
  03a89	83 c4 08	 add	 esp, 8

; 1483 :     Pop;

  03a8c	8b 0d 00 00 00
	00		 mov	 ecx, DWORD PTR _stk
  03a92	83 e9 08	 sub	 ecx, 8
  03a95	89 0d 00 00 00
	00		 mov	 DWORD PTR _stk, ecx
$LN4@P_type:

; 1484 : }

  03a9b	5d		 pop	 ebp
  03a9c	c3		 ret	 0
_P_type	ENDP
; Function compile flags: /Odtp
_dw$ = -8						; size = 4
_key$ = -4						; size = 4
_P_words PROC

; 1487 : {

  03aa0	55		 push	 ebp
  03aa1	8b ec		 mov	 ebp, esp
  03aa3	83 ec 08	 sub	 esp, 8

; 1488 : #ifndef Keyhit
; 1489 :     int key = 0;

  03aa6	c7 45 fc 00 00
	00 00		 mov	 DWORD PTR _key$[ebp], 0

; 1490 : #endif
; 1491 :     dictword *dw = dict;

  03aad	a1 00 00 00 00	 mov	 eax, DWORD PTR _dict
  03ab2	89 45 f8	 mov	 DWORD PTR _dw$[ebp], eax
$LN3@P_words:

; 1492 : 
; 1493 :     while (dw != NULL) {

  03ab5	83 7d f8 00	 cmp	 DWORD PTR _dw$[ebp], 0
  03ab9	74 32		 je	 SHORT $LN2@P_words

; 1494 : 
; 1495 :         V printf("\n%s", dw->wname + 1);

  03abb	8b 4d f8	 mov	 ecx, DWORD PTR _dw$[ebp]
  03abe	8b 51 04	 mov	 edx, DWORD PTR [ecx+4]
  03ac1	83 c2 01	 add	 edx, 1
  03ac4	52		 push	 edx
  03ac5	68 00 00 00 00	 push	 OFFSET $SG83828
  03aca	e8 00 00 00 00	 call	 _printf
  03acf	83 c4 08	 add	 esp, 8

; 1496 : 	dw = dw->wnext;

  03ad2	8b 45 f8	 mov	 eax, DWORD PTR _dw$[ebp]
  03ad5	8b 08		 mov	 ecx, DWORD PTR [eax]
  03ad7	89 4d f8	 mov	 DWORD PTR _dw$[ebp], ecx

; 1497 : #ifdef Keyhit
; 1498 : 	if (kbquit()) {
; 1499 : 	    break;
; 1500 : 	}
; 1501 : #else
; 1502 :         /* If this system can't trap keystrokes, just stop the WORDS
; 1503 : 	   listing after 20 words. */
; 1504 : 	if (++key >= 20)

  03ada	8b 55 fc	 mov	 edx, DWORD PTR _key$[ebp]
  03add	83 c2 01	 add	 edx, 1
  03ae0	89 55 fc	 mov	 DWORD PTR _key$[ebp], edx
  03ae3	83 7d fc 14	 cmp	 DWORD PTR _key$[ebp], 20 ; 00000014H
  03ae7	7c 02		 jl	 SHORT $LN1@P_words

; 1505 : 	    break;

  03ae9	eb 02		 jmp	 SHORT $LN2@P_words
$LN1@P_words:

; 1506 : #endif
; 1507 :     }

  03aeb	eb c8		 jmp	 SHORT $LN3@P_words
$LN2@P_words:

; 1508 :     V printf("\n");

  03aed	68 00 00 00 00	 push	 OFFSET $SG83831
  03af2	e8 00 00 00 00	 call	 _printf
  03af7	83 c4 04	 add	 esp, 4

; 1509 : }

  03afa	8b e5		 mov	 esp, ebp
  03afc	5d		 pop	 ebp
  03afd	c3		 ret	 0
_P_words ENDP
; Function compile flags: /Odtp
_P_file PROC

; 1515 : {

  03b00	55		 push	 ebp
