; Listing generated by Microsoft (R) Optimizing Compiler Version 16.00.40219.01 

	TITLE	C:\A15\facultate\forth\atlast-2.0\atlast.c
	.686P
	.XMM
	include listing.inc
	.model	flat

INCLUDELIB MSVCRTD
INCLUDELIB OLDNAMES

PUBLIC	??_C@_09GAMPJJGL@TEMPSTRN?5?$AA@		; `string'
PUBLIC	??_C@_09GDELENAF@TEMPSTRL?5?$AA@		; `string'
PUBLIC	??_C@_05OHLFDECO@HEAP?5?$AA@			; `string'
PUBLIC	??_C@_07NIFKNEP@RSTACK?5?$AA@			; `string'
PUBLIC	??_C@_06OCMIFJOD@STACK?5?$AA@			; `string'
PUBLIC	??_C@_06BLNAKME@STDERR?$AA@			; `string'
PUBLIC	??_C@_06DNBFFLKD@STDOUT?$AA@			; `string'
PUBLIC	??_C@_05MHDFGKA@STDIN?$AA@			; `string'
PUBLIC	??_C@_09NMMMFPKN@0EVALUATE?$AA@			; `string'
PUBLIC	??_C@_06KIMIPMHH@0FLOAD?$AA@			; `string'
PUBLIC	??_C@_06KFFEKIFD@0FSEEK?$AA@			; `string'
PUBLIC	??_C@_06FHOENJAL@0FTELL?$AA@			; `string'
PUBLIC	??_C@_06GHNAMGFD@0FPUTC?$AA@			; `string'
PUBLIC	??_C@_06OFAJNKFO@0FGETC?$AA@			; `string'
PUBLIC	??_C@_07GLDELNNH@0FWRITE?$AA@			; `string'
PUBLIC	??_C@_06BIKFDFPA@0FREAD?$AA@			; `string'
PUBLIC	??_C@_06CNBCNEAC@0FPUTS?$AA@			; `string'
PUBLIC	??_C@_06KPMLMIAP@0FGETS?$AA@			; `string'
PUBLIC	??_C@_08OAJGAKDH@0FDELETE?$AA@			; `string'
PUBLIC	??_C@_07MIHJNOA@0FCLOSE?$AA@			; `string'
PUBLIC	??_C@_06BKPEIBDI@0FOPEN?$AA@			; `string'
PUBLIC	??_C@_05IPGGCMEL@0FILE?$AA@			; `string'
PUBLIC	??_C@_06IGNJJOKG@0WORDS?$AA@			; `string'
PUBLIC	??_C@_05NAGDOFCC@0TYPE?$AA@			; `string'
PUBLIC	??_C@_03PJKCHKGH@1?4?$CI?$AA@			; `string'
PUBLIC	??_C@_03DENJCON@1?4?$CC?$AA@			; `string'
PUBLIC	??_C@_03INNFLNDP@0?4S?$AA@			; `string'
PUBLIC	??_C@_03NEMBNEAN@0CR?$AA@			; `string'
PUBLIC	??_C@_02HMALOJEB@0?$DP?$AA@			; `string'
PUBLIC	??_C@_02CPNCMKFB@0?4?$AA@			; `string'
PUBLIC	??_C@_09PHABBLJC@0?$DORESOLVE?$AA@		; `string'
PUBLIC	??_C@_06LPOCMLO@0?$DOMARK?$AA@			; `string'
PUBLIC	??_C@_09NJPHDDBE@0?$DMRESOLVE?$AA@		; `string'
PUBLIC	??_C@_06EGDGINLF@0?$DMMARK?$AA@			; `string'
PUBLIC	??_C@_08LLNBOFDH@0COMPILE?$AA@			; `string'
PUBLIC	??_C@_08MEIBGFMH@1LITERAL?$AA@			; `string'
PUBLIC	??_C@_0L@PPPNOFDC@1?$FLCOMPILE?$FN?$AA@		; `string'
PUBLIC	??_C@_08NHEDMBGE@0S?$DONAME?$CB?$AA@		; `string'
PUBLIC	??_C@_08DIOIEBIC@0NAME?$DOS?$CB?$AA@		; `string'
PUBLIC	??_C@_07JDOMHGJI@0L?$DONAME?$AA@		; `string'
PUBLIC	??_C@_07CHMCIPOJ@0N?$DOLINK?$AA@		; `string'
PUBLIC	??_C@_06KBEICDKO@0LINK?$DO?$AA@			; `string'
PUBLIC	??_C@_06MENLELIA@0NAME?$DO?$AA@			; `string'
PUBLIC	??_C@_06GEBNCAAE@0BODY?$DO?$AA@			; `string'
PUBLIC	??_C@_06OGBGHHPF@0?$DOLINK?$AA@			; `string'
PUBLIC	??_C@_06MFKHJPKN@0?$DONAME?$AA@			; `string'
PUBLIC	??_C@_05JFPJMJGE@0FIND?$AA@			; `string'
PUBLIC	??_C@_06EIGKJEPF@0STATE?$AA@			; `string'
PUBLIC	??_C@_06JCOGDEN@0?$DOBODY?$AA@			; `string'
PUBLIC	??_C@_08BMCODLCA@0EXECUTE?$AA@			; `string'
PUBLIC	??_C@_04ILIHGCAL@1?$FL?8?$FN?$AA@		; `string'
PUBLIC	??_C@_02POBAHBBI@0?8?$AA@			; `string'
PUBLIC	??_C@_06HGPCBKK@0DOES?$DO?$AA@			; `string'
PUBLIC	??_C@_07CKFDKAEF@0FORGET?$AA@			; `string'
PUBLIC	??_C@_07HOLFGALO@0CREATE?$AA@			; `string'
PUBLIC	??_C@_02CLMAOAGE@0?$FN?$AA@			; `string'
PUBLIC	??_C@_02HMFICNNF@1?$FL?$AA@			; `string'
PUBLIC	??_C@_0L@FBPCDAOB@0IMMEDIATE?$AA@		; `string'
PUBLIC	??_C@_02BJKFEGHC@1?$DL?$AA@			; `string'
PUBLIC	??_C@_02BHMBNAE@0?3?$AA@			; `string'
PUBLIC	??_C@_0N@JACHHCHC@0WORDSUNUSED?$AA@		; `string'
PUBLIC	??_C@_0L@KDKOLN@0WORDSUSED?$AA@			; `string'
PUBLIC	??_C@_09BHMIPPJ@0WALKBACK?$AA@			; `string'
PUBLIC	??_C@_06MDEGOEBI@0TRACE?$AA@			; `string'
PUBLIC	??_C@_07COPGIKHD@0SYSTEM?$AA@			; `string'
PUBLIC	??_C@_07EPGGOCC@1ABORT?$CC?$AA@			; `string'
PUBLIC	??_C@_06FOFPHNNG@0ABORT?$AA@			; `string'
PUBLIC	??_C@_05BCHLGOAF@0QUIT?$AA@			; `string'
PUBLIC	??_C@_02COEDGEPC@0J?$AA@			; `string'
PUBLIC	??_C@_02FGODHDB@0I?$AA@				; `string'
PUBLIC	??_C@_06OEOOEOOH@0LEAVE?$AA@			; `string'
PUBLIC	??_C@_09LADNBAGF@0?$CI?$CLXLOOP?$CJ?$AA@	; `string'
PUBLIC	??_C@_08EENKAJAP@0?$CIXLOOP?$CJ?$AA@		; `string'
PUBLIC	??_C@_07LBIDLKB@0?$CIX?$DPDO?$CJ?$AA@		; `string'
PUBLIC	??_C@_06CJKBMPO@0?$CIXDO?$CJ?$AA@		; `string'
PUBLIC	??_C@_06JOOFBBBI@1?$CLLOOP?$AA@			; `string'
PUBLIC	??_C@_05BOBCOANO@1LOOP?$AA@			; `string'
PUBLIC	??_C@_04NKGAHPF@1?$DPDO?$AA@			; `string'
PUBLIC	??_C@_03JGFOMJPB@1DO?$AA@			; `string'
PUBLIC	??_C@_07DDDAIFH@1REPEAT?$AA@			; `string'
PUBLIC	??_C@_06HBNHNPD@1WHILE?$AA@			; `string'
PUBLIC	??_C@_06HAEJDIGL@1AGAIN?$AA@			; `string'
PUBLIC	??_C@_06LAOPNPLI@1UNTIL?$AA@			; `string'
PUBLIC	??_C@_06KJHGEGHJ@1BEGIN?$AA@			; `string'
PUBLIC	??_C@_05KNIMAIMD@0?$DPDUP?$AA@			; `string'
PUBLIC	??_C@_05KIDLOCN@1THEN?$AA@			; `string'
PUBLIC	??_C@_05CDDOJBEB@1ELSE?$AA@			; `string'
PUBLIC	??_C@_03EPEEOBOL@1IF?$AA@			; `string'
PUBLIC	??_C@_08KNNMAPJN@0?$DPBRANCH?$AA@		; `string'
PUBLIC	??_C@_07NJOGBGCE@0BRANCH?$AA@			; `string'
PUBLIC	??_C@_06HFODLJPA@0?$CILIT?$CJ?$AA@		; `string'
PUBLIC	??_C@_05HFHBIHJK@0EXIT?$AA@			; `string'
PUBLIC	??_C@_07LAEIABPO@0?$CINEST?$CJ?$AA@		; `string'
PUBLIC	??_C@_04MDDBKNON@0TAN?$AA@			; `string'
PUBLIC	??_C@_05PHKKOGKD@0SQRT?$AA@			; `string'
PUBLIC	??_C@_04FAPFMEOM@0SIN?$AA@			; `string'
PUBLIC	??_C@_04NNMNLOKI@0POW?$AA@			; `string'
PUBLIC	??_C@_04INMAEENO@0LOG?$AA@			; `string'
PUBLIC	??_C@_04OMCCDKDH@0EXP?$AA@			; `string'
PUBLIC	??_C@_04PLANIDNN@0COS?$AA@			; `string'
PUBLIC	??_C@_06HHLLPOPC@0ATAN2?$AA@			; `string'
PUBLIC	??_C@_05HEBJDFIB@0ATAN?$AA@			; `string'
PUBLIC	??_C@_05OHNNFMIA@0ASIN?$AA@			; `string'
PUBLIC	??_C@_05EMCFBLLB@0ACOS?$AA@			; `string'
PUBLIC	??_C@_04CLKKNGJG@0FIX?$AA@			; `string'
PUBLIC	??_C@_06OCAKOOCG@0FLOAT?$AA@			; `string'
PUBLIC	??_C@_03FBIACABM@0F?4?$AA@			; `string'
PUBLIC	??_C@_04GBBKODMP@0F?$DM?$DN?$AA@		; `string'
PUBLIC	??_C@_04GCJODHKB@0F?$DO?$DN?$AA@		; `string'
PUBLIC	??_C@_03CJHEFAMP@0F?$DM?$AA@			; `string'
PUBLIC	??_C@_03BLECDCEN@0F?$DO?$AA@			; `string'
PUBLIC	??_C@_04EKDHLAAM@0F?$DM?$DO?$AA@		; `string'
PUBLIC	??_C@_03DAGPGBIO@0F?$DN?$AA@			; `string'
PUBLIC	??_C@_05FMNEJMHJ@0FABS?$AA@			; `string'
PUBLIC	??_C@_08LMFEPDDP@0FNEGATE?$AA@			; `string'
PUBLIC	??_C@_05PHLAEEFD@0FMAX?$AA@			; `string'
PUBLIC	??_C@_05OFDLKADM@0FMIN?$AA@			; `string'
PUBLIC	??_C@_03EIJLBBFN@0F?1?$AA@			; `string'
PUBLIC	??_C@_03DFOMOFBI@0F?$CK?$AA@			; `string'
PUBLIC	??_C@_03HKKNHDNP@0F?9?$AA@			; `string'
PUBLIC	??_C@_03CMPHNEFJ@0F?$CL?$AA@			; `string'
PUBLIC	??_C@_07GOKPFGBJ@0?$CIFLIT?$CJ?$AA@		; `string'
PUBLIC	??_C@_08LJDPGIKE@0STRREAL?$AA@			; `string'
PUBLIC	??_C@_07JKCOHJKG@0STRINT?$AA@			; `string'
PUBLIC	??_C@_09KKFANBFF@0FSTRFORM?$AA@			; `string'
PUBLIC	??_C@_08EEJJJFOK@0STRFORM?$AA@			; `string'
PUBLIC	??_C@_08GINNEDKC@0COMPARE?$AA@			; `string'
PUBLIC	??_C@_07EJNNALFK@0SUBSTR?$AA@			; `string'
PUBLIC	??_C@_08MCJEDBJE@0STRCHAR?$AA@			; `string'
PUBLIC	??_C@_07JDLJOCJP@0STRCMP?$AA@			; `string'
PUBLIC	??_C@_07BBIIJMKO@0STRLEN?$AA@			; `string'
PUBLIC	??_C@_03DGBKLFMC@0S?$CL?$AA@			; `string'
PUBLIC	??_C@_07POMPNOPP@0STRCAT?$AA@			; `string'
PUBLIC	??_C@_03MMPFFNEI@0S?$CB?$AA@			; `string'
PUBLIC	??_C@_07FGIFGJPF@0STRCPY?$AA@			; `string'
PUBLIC	??_C@_07PLMBDIDE@0STRING?$AA@			; `string'
PUBLIC	??_C@_09FEDGBOAP@0?$CISTRLIT?$CJ?$AA@		; `string'
PUBLIC	??_C@_06DHACAGHC@0ARRAY?$AA@			; `string'
PUBLIC	??_C@_05GMDIKDOI@0HERE?$AA@			; `string'
PUBLIC	??_C@_03DGKEKDGF@0C?$DN?$AA@			; `string'
PUBLIC	??_C@_03GFHNIAHF@0C?0?$AA@			; `string'
PUBLIC	??_C@_03KMDFKENO@0C?$EA?$AA@			; `string'
PUBLIC	??_C@_03NANDPODI@0C?$CB?$AA@			; `string'
PUBLIC	??_C@_02BNOEKIND@0?0?$AA@			; `string'
PUBLIC	??_C@_06OHCEFMHK@0ALLOT?$AA@			; `string'
PUBLIC	??_C@_03JGBHGEKA@0?$CL?$CB?$AA@			; `string'
PUBLIC	??_C@_02NEKMIMHI@0?$EA?$AA@			; `string'
PUBLIC	??_C@_02KIEKNGJO@0?$CB?$AA@			; `string'
PUBLIC	??_C@_09LHOCOAIG@0CONSTANT?$AA@			; `string'
PUBLIC	??_C@_09KMOEGCKP@0VARIABLE?$AA@			; `string'
PUBLIC	??_C@_03PJAGKGLJ@02?$EA?$AA@			; `string'
PUBLIC	??_C@_03IFOAPMFP@02?$CB?$AA@			; `string'
PUBLIC	??_C@_0L@BDHAKCDN@02CONSTANT?$AA@		; `string'
PUBLIC	??_C@_0L@IHGCABE@02VARIABLE?$AA@		; `string'
PUBLIC	??_C@_05FFLDCHJD@02ROT?$AA@			; `string'
PUBLIC	??_C@_06EJFLMMGO@02OVER?$AA@			; `string'
PUBLIC	??_C@_06GBMIBLNG@02SWAP?$AA@			; `string'
PUBLIC	??_C@_06IOEIINHM@02DROP?$AA@			; `string'
PUBLIC	??_C@_05FFBMMMHC@02DUP?$AA@			; `string'
PUBLIC	??_C@_03HJAIEECN@00?$DM?$AA@			; `string'
PUBLIC	??_C@_03ELDOCGKP@00?$DO?$AA@			; `string'
PUBLIC	??_C@_04EGDEPEM@00?$DM?$DO?$AA@			; `string'
PUBLIC	??_C@_03GABDHFGM@00?$DN?$AA@			; `string'
PUBLIC	??_C@_03BLGDNBNB@02?1?$AA@			; `string'
PUBLIC	??_C@_03GGBECFJE@02?$CK?$AA@			; `string'
PUBLIC	??_C@_03CJFFLDFD@02?9?$AA@			; `string'
PUBLIC	??_C@_03CLBDANAK@01?9?$AA@			; `string'
PUBLIC	??_C@_03HPAPBENF@02?$CL?$AA@			; `string'
PUBLIC	??_C@_03HNEJKKIM@01?$CL?$AA@			; `string'
PUBLIC	??_C@_03LBNBGNJJ@0R?$EA?$AA@			; `string'
PUBLIC	??_C@_03GNDJOB@0R?$DO?$AA@			; `string'
PUBLIC	??_C@_03IIOICPAO@0?$DOR?$AA@			; `string'
PUBLIC	??_C@_05OOKPPJJM@0ROLL?$AA@			; `string'
PUBLIC	??_C@_05LHADCHMA@0?9ROT?$AA@			; `string'
PUBLIC	??_C@_04FMOJCFOA@0ROT?$AA@			; `string'
PUBLIC	??_C@_05PFBJCENK@0PICK?$AA@			; `string'
PUBLIC	??_C@_05IAFOLGOK@0OVER?$AA@			; `string'
PUBLIC	??_C@_05KIMNGBFC@0SWAP?$AA@			; `string'
PUBLIC	??_C@_05EHENPHPI@0DROP?$AA@			; `string'
PUBLIC	??_C@_04FMEGMOAB@0DUP?$AA@			; `string'
PUBLIC	??_C@_06ILCADIHH@0CLEAR?$AA@			; `string'
PUBLIC	??_C@_06FGDCFGFD@0DEPTH?$AA@			; `string'
PUBLIC	??_C@_06GELFJCJH@0SHIFT?$AA@			; `string'
PUBLIC	??_C@_04EGCGMNMH@0NOT?$AA@			; `string'
PUBLIC	??_C@_04GFAOGCAC@0XOR?$AA@			; `string'
PUBLIC	??_C@_03NNNLCNGJ@0OR?$AA@			; `string'
PUBLIC	??_C@_04FFEFKFPH@0AND?$AA@			; `string'
PUBLIC	??_C@_03GJAJIMAI@0?$DM?$DN?$AA@			; `string'
PUBLIC	??_C@_03GKINFIGG@0?$DO?$DN?$AA@			; `string'
PUBLIC	??_C@_02FHCGLKIC@0?$DM?$AA@			; `string'
PUBLIC	??_C@_02GFBANIAA@0?$DO?$AA@			; `string'
PUBLIC	??_C@_03ECCENPML@0?$DM?$DO?$AA@			; `string'
PUBLIC	??_C@_02EODNILMD@0?$DN?$AA@			; `string'
PUBLIC	??_C@_04FJNMNIAF@0ABS?$AA@			; `string'
PUBLIC	??_C@_07HLHBGADN@0NEGATE?$AA@			; `string'
PUBLIC	??_C@_04PCLIAACP@0MAX?$AA@			; `string'
PUBLIC	??_C@_04OADDOEEA@0MIN?$AA@			; `string'
PUBLIC	??_C@_05IPHLCBDI@0?1MOD?$AA@			; `string'
PUBLIC	??_C@_04BOFBHAHI@0MOD?$AA@			; `string'
PUBLIC	??_C@_02DGMJPLBA@0?1?$AA@			; `string'
PUBLIC	??_C@_02ELLOAPFF@0?$CK?$AA@			; `string'
PUBLIC	??_C@_02EPPJJJC@0?9?$AA@			; `string'
PUBLIC	??_C@_02FCKFDOBE@0?$CL?$AA@			; `string'
PUBLIC	??_C@_02CHHAKFFB@w?$CL?$AA@			; `string'
PUBLIC	??_C@_01NOFIACDB@w?$AA@				; `string'
PUBLIC	??_C@_02CBLLGHLK@r?$CL?$AA@			; `string'
PUBLIC	??_C@_01KDCPPGHE@r?$AA@				; `string'
PUBLIC	??_C@_00CNPNBAHC@?$AA@				; `string'
PUBLIC	_opterr
PUBLIC	_optind
PUBLIC	_optopt
PUBLIC	_atl_stklen
PUBLIC	_atl_rstklen
PUBLIC	_atl_heaplen
PUBLIC	_atl_ltempstr
PUBLIC	_atl_ntempstr
PUBLIC	_atl_trace
PUBLIC	_atl_walkback
PUBLIC	_atl_comment
PUBLIC	_atl_redef
PUBLIC	_atl_errline
_DATA	SEGMENT
COMM	___mingw_optreset:DWORD
COMM	_optarg:DWORD
_DATA	ENDS
_BSS	SEGMENT
_atl_trace DQ	01H DUP (?)
_atl_comment DQ	01H DUP (?)
_atl_errline DQ	01H DUP (?)
_stack	DD	01H DUP (?)
_rstack	DD	01H DUP (?)
_heap	DD	01H DUP (?)
_dict	DD	01H DUP (?)
_dictprot DD	01H DUP (?)
_strbuf	DD	01H DUP (?)
_cstrbuf DD	01H DUP (?)
_wback	DD	01H DUP (?)
_instream DD	01H DUP (?)
_ip	DD	01H DUP (?)
_curword DD	01H DUP (?)
_evalstat DD	01H DUP (?)
_defpend DD	01H DUP (?)
_forgetpend DD	01H DUP (?)
_tickpend DD	01H DUP (?)
_ctickpend DD	01H DUP (?)
_cbrackpend DD	01H DUP (?)
_createword DD	01H DUP (?)
_stringlit DD	01H DUP (?)
_broken	DD	01H DUP (?)
_BSS	ENDS
;	COMDAT ??_C@_09GAMPJJGL@TEMPSTRN?5?$AA@
CONST	SEGMENT
??_C@_09GAMPJJGL@TEMPSTRN?5?$AA@ DB 'TEMPSTRN ', 00H	; `string'
CONST	ENDS
;	COMDAT ??_C@_09GDELENAF@TEMPSTRL?5?$AA@
CONST	SEGMENT
??_C@_09GDELENAF@TEMPSTRL?5?$AA@ DB 'TEMPSTRL ', 00H	; `string'
CONST	ENDS
;	COMDAT ??_C@_05OHLFDECO@HEAP?5?$AA@
CONST	SEGMENT
??_C@_05OHLFDECO@HEAP?5?$AA@ DB 'HEAP ', 00H		; `string'
CONST	ENDS
;	COMDAT ??_C@_07NIFKNEP@RSTACK?5?$AA@
CONST	SEGMENT
??_C@_07NIFKNEP@RSTACK?5?$AA@ DB 'RSTACK ', 00H		; `string'
CONST	ENDS
;	COMDAT ??_C@_06OCMIFJOD@STACK?5?$AA@
CONST	SEGMENT
??_C@_06OCMIFJOD@STACK?5?$AA@ DB 'STACK ', 00H		; `string'
CONST	ENDS
;	COMDAT ??_C@_06BLNAKME@STDERR?$AA@
CONST	SEGMENT
??_C@_06BLNAKME@STDERR?$AA@ DB 'STDERR', 00H		; `string'
CONST	ENDS
;	COMDAT ??_C@_06DNBFFLKD@STDOUT?$AA@
CONST	SEGMENT
??_C@_06DNBFFLKD@STDOUT?$AA@ DB 'STDOUT', 00H		; `string'
CONST	ENDS
;	COMDAT ??_C@_05MHDFGKA@STDIN?$AA@
CONST	SEGMENT
??_C@_05MHDFGKA@STDIN?$AA@ DB 'STDIN', 00H		; `string'
CONST	ENDS
;	COMDAT ??_C@_09NMMMFPKN@0EVALUATE?$AA@
CONST	SEGMENT
??_C@_09NMMMFPKN@0EVALUATE?$AA@ DB '0EVALUATE', 00H	; `string'
CONST	ENDS
;	COMDAT ??_C@_06KIMIPMHH@0FLOAD?$AA@
CONST	SEGMENT
??_C@_06KIMIPMHH@0FLOAD?$AA@ DB '0FLOAD', 00H		; `string'
CONST	ENDS
;	COMDAT ??_C@_06KFFEKIFD@0FSEEK?$AA@
CONST	SEGMENT
??_C@_06KFFEKIFD@0FSEEK?$AA@ DB '0FSEEK', 00H		; `string'
CONST	ENDS
;	COMDAT ??_C@_06FHOENJAL@0FTELL?$AA@
CONST	SEGMENT
??_C@_06FHOENJAL@0FTELL?$AA@ DB '0FTELL', 00H		; `string'
CONST	ENDS
;	COMDAT ??_C@_06GHNAMGFD@0FPUTC?$AA@
CONST	SEGMENT
??_C@_06GHNAMGFD@0FPUTC?$AA@ DB '0FPUTC', 00H		; `string'
CONST	ENDS
;	COMDAT ??_C@_06OFAJNKFO@0FGETC?$AA@
CONST	SEGMENT
??_C@_06OFAJNKFO@0FGETC?$AA@ DB '0FGETC', 00H		; `string'
CONST	ENDS
;	COMDAT ??_C@_07GLDELNNH@0FWRITE?$AA@
CONST	SEGMENT
??_C@_07GLDELNNH@0FWRITE?$AA@ DB '0FWRITE', 00H		; `string'
CONST	ENDS
;	COMDAT ??_C@_06BIKFDFPA@0FREAD?$AA@
CONST	SEGMENT
??_C@_06BIKFDFPA@0FREAD?$AA@ DB '0FREAD', 00H		; `string'
CONST	ENDS
;	COMDAT ??_C@_06CNBCNEAC@0FPUTS?$AA@
CONST	SEGMENT
??_C@_06CNBCNEAC@0FPUTS?$AA@ DB '0FPUTS', 00H		; `string'
CONST	ENDS
;	COMDAT ??_C@_06KPMLMIAP@0FGETS?$AA@
CONST	SEGMENT
??_C@_06KPMLMIAP@0FGETS?$AA@ DB '0FGETS', 00H		; `string'
CONST	ENDS
;	COMDAT ??_C@_08OAJGAKDH@0FDELETE?$AA@
CONST	SEGMENT
??_C@_08OAJGAKDH@0FDELETE?$AA@ DB '0FDELETE', 00H	; `string'
CONST	ENDS
;	COMDAT ??_C@_07MIHJNOA@0FCLOSE?$AA@
CONST	SEGMENT
??_C@_07MIHJNOA@0FCLOSE?$AA@ DB '0FCLOSE', 00H		; `string'
CONST	ENDS
;	COMDAT ??_C@_06BKPEIBDI@0FOPEN?$AA@
CONST	SEGMENT
??_C@_06BKPEIBDI@0FOPEN?$AA@ DB '0FOPEN', 00H		; `string'
CONST	ENDS
;	COMDAT ??_C@_05IPGGCMEL@0FILE?$AA@
CONST	SEGMENT
??_C@_05IPGGCMEL@0FILE?$AA@ DB '0FILE', 00H		; `string'
CONST	ENDS
;	COMDAT ??_C@_06IGNJJOKG@0WORDS?$AA@
CONST	SEGMENT
??_C@_06IGNJJOKG@0WORDS?$AA@ DB '0WORDS', 00H		; `string'
CONST	ENDS
;	COMDAT ??_C@_05NAGDOFCC@0TYPE?$AA@
CONST	SEGMENT
??_C@_05NAGDOFCC@0TYPE?$AA@ DB '0TYPE', 00H		; `string'
CONST	ENDS
;	COMDAT ??_C@_03PJKCHKGH@1?4?$CI?$AA@
CONST	SEGMENT
??_C@_03PJKCHKGH@1?4?$CI?$AA@ DB '1.(', 00H		; `string'
CONST	ENDS
;	COMDAT ??_C@_03DENJCON@1?4?$CC?$AA@
CONST	SEGMENT
??_C@_03DENJCON@1?4?$CC?$AA@ DB '1."', 00H		; `string'
CONST	ENDS
;	COMDAT ??_C@_03INNFLNDP@0?4S?$AA@
CONST	SEGMENT
??_C@_03INNFLNDP@0?4S?$AA@ DB '0.S', 00H		; `string'
CONST	ENDS
;	COMDAT ??_C@_03NEMBNEAN@0CR?$AA@
CONST	SEGMENT
??_C@_03NEMBNEAN@0CR?$AA@ DB '0CR', 00H			; `string'
CONST	ENDS
;	COMDAT ??_C@_02HMALOJEB@0?$DP?$AA@
CONST	SEGMENT
??_C@_02HMALOJEB@0?$DP?$AA@ DB '0?', 00H		; `string'
CONST	ENDS
;	COMDAT ??_C@_02CPNCMKFB@0?4?$AA@
CONST	SEGMENT
??_C@_02CPNCMKFB@0?4?$AA@ DB '0.', 00H			; `string'
CONST	ENDS
;	COMDAT ??_C@_09PHABBLJC@0?$DORESOLVE?$AA@
CONST	SEGMENT
??_C@_09PHABBLJC@0?$DORESOLVE?$AA@ DB '0>RESOLVE', 00H	; `string'
CONST	ENDS
;	COMDAT ??_C@_06LPOCMLO@0?$DOMARK?$AA@
CONST	SEGMENT
??_C@_06LPOCMLO@0?$DOMARK?$AA@ DB '0>MARK', 00H		; `string'
CONST	ENDS
;	COMDAT ??_C@_09NJPHDDBE@0?$DMRESOLVE?$AA@
CONST	SEGMENT
??_C@_09NJPHDDBE@0?$DMRESOLVE?$AA@ DB '0<RESOLVE', 00H	; `string'
CONST	ENDS
;	COMDAT ??_C@_06EGDGINLF@0?$DMMARK?$AA@
CONST	SEGMENT
??_C@_06EGDGINLF@0?$DMMARK?$AA@ DB '0<MARK', 00H	; `string'
CONST	ENDS
;	COMDAT ??_C@_08LLNBOFDH@0COMPILE?$AA@
CONST	SEGMENT
??_C@_08LLNBOFDH@0COMPILE?$AA@ DB '0COMPILE', 00H	; `string'
CONST	ENDS
;	COMDAT ??_C@_08MEIBGFMH@1LITERAL?$AA@
CONST	SEGMENT
??_C@_08MEIBGFMH@1LITERAL?$AA@ DB '1LITERAL', 00H	; `string'
CONST	ENDS
;	COMDAT ??_C@_0L@PPPNOFDC@1?$FLCOMPILE?$FN?$AA@
CONST	SEGMENT
??_C@_0L@PPPNOFDC@1?$FLCOMPILE?$FN?$AA@ DB '1[COMPILE]', 00H ; `string'
CONST	ENDS
;	COMDAT ??_C@_08NHEDMBGE@0S?$DONAME?$CB?$AA@
CONST	SEGMENT
??_C@_08NHEDMBGE@0S?$DONAME?$CB?$AA@ DB '0S>NAME!', 00H	; `string'
CONST	ENDS
;	COMDAT ??_C@_08DIOIEBIC@0NAME?$DOS?$CB?$AA@
CONST	SEGMENT
??_C@_08DIOIEBIC@0NAME?$DOS?$CB?$AA@ DB '0NAME>S!', 00H	; `string'
CONST	ENDS
;	COMDAT ??_C@_07JDOMHGJI@0L?$DONAME?$AA@
CONST	SEGMENT
??_C@_07JDOMHGJI@0L?$DONAME?$AA@ DB '0L>NAME', 00H	; `string'
CONST	ENDS
;	COMDAT ??_C@_07CHMCIPOJ@0N?$DOLINK?$AA@
CONST	SEGMENT
??_C@_07CHMCIPOJ@0N?$DOLINK?$AA@ DB '0N>LINK', 00H	; `string'
CONST	ENDS
;	COMDAT ??_C@_06KBEICDKO@0LINK?$DO?$AA@
CONST	SEGMENT
??_C@_06KBEICDKO@0LINK?$DO?$AA@ DB '0LINK>', 00H	; `string'
CONST	ENDS
;	COMDAT ??_C@_06MENLELIA@0NAME?$DO?$AA@
CONST	SEGMENT
??_C@_06MENLELIA@0NAME?$DO?$AA@ DB '0NAME>', 00H	; `string'
CONST	ENDS
;	COMDAT ??_C@_06GEBNCAAE@0BODY?$DO?$AA@
CONST	SEGMENT
??_C@_06GEBNCAAE@0BODY?$DO?$AA@ DB '0BODY>', 00H	; `string'
CONST	ENDS
;	COMDAT ??_C@_06OGBGHHPF@0?$DOLINK?$AA@
CONST	SEGMENT
??_C@_06OGBGHHPF@0?$DOLINK?$AA@ DB '0>LINK', 00H	; `string'
CONST	ENDS
;	COMDAT ??_C@_06MFKHJPKN@0?$DONAME?$AA@
CONST	SEGMENT
??_C@_06MFKHJPKN@0?$DONAME?$AA@ DB '0>NAME', 00H	; `string'
CONST	ENDS
;	COMDAT ??_C@_05JFPJMJGE@0FIND?$AA@
CONST	SEGMENT
??_C@_05JFPJMJGE@0FIND?$AA@ DB '0FIND', 00H		; `string'
CONST	ENDS
;	COMDAT ??_C@_06EIGKJEPF@0STATE?$AA@
CONST	SEGMENT
??_C@_06EIGKJEPF@0STATE?$AA@ DB '0STATE', 00H		; `string'
CONST	ENDS
;	COMDAT ??_C@_06JCOGDEN@0?$DOBODY?$AA@
CONST	SEGMENT
??_C@_06JCOGDEN@0?$DOBODY?$AA@ DB '0>BODY', 00H		; `string'
CONST	ENDS
;	COMDAT ??_C@_08BMCODLCA@0EXECUTE?$AA@
CONST	SEGMENT
??_C@_08BMCODLCA@0EXECUTE?$AA@ DB '0EXECUTE', 00H	; `string'
CONST	ENDS
;	COMDAT ??_C@_04ILIHGCAL@1?$FL?8?$FN?$AA@
CONST	SEGMENT
??_C@_04ILIHGCAL@1?$FL?8?$FN?$AA@ DB '1['']', 00H	; `string'
CONST	ENDS
;	COMDAT ??_C@_02POBAHBBI@0?8?$AA@
CONST	SEGMENT
??_C@_02POBAHBBI@0?8?$AA@ DB '0''', 00H			; `string'
CONST	ENDS
;	COMDAT ??_C@_06HGPCBKK@0DOES?$DO?$AA@
CONST	SEGMENT
??_C@_06HGPCBKK@0DOES?$DO?$AA@ DB '0DOES>', 00H		; `string'
CONST	ENDS
;	COMDAT ??_C@_07CKFDKAEF@0FORGET?$AA@
CONST	SEGMENT
??_C@_07CKFDKAEF@0FORGET?$AA@ DB '0FORGET', 00H		; `string'
CONST	ENDS
;	COMDAT ??_C@_07HOLFGALO@0CREATE?$AA@
CONST	SEGMENT
??_C@_07HOLFGALO@0CREATE?$AA@ DB '0CREATE', 00H		; `string'
CONST	ENDS
;	COMDAT ??_C@_02CLMAOAGE@0?$FN?$AA@
CONST	SEGMENT
??_C@_02CLMAOAGE@0?$FN?$AA@ DB '0]', 00H		; `string'
CONST	ENDS
;	COMDAT ??_C@_02HMFICNNF@1?$FL?$AA@
CONST	SEGMENT
??_C@_02HMFICNNF@1?$FL?$AA@ DB '1[', 00H		; `string'
CONST	ENDS
;	COMDAT ??_C@_0L@FBPCDAOB@0IMMEDIATE?$AA@
CONST	SEGMENT
??_C@_0L@FBPCDAOB@0IMMEDIATE?$AA@ DB '0IMMEDIATE', 00H	; `string'
CONST	ENDS
;	COMDAT ??_C@_02BJKFEGHC@1?$DL?$AA@
CONST	SEGMENT
??_C@_02BJKFEGHC@1?$DL?$AA@ DB '1;', 00H		; `string'
CONST	ENDS
;	COMDAT ??_C@_02BHMBNAE@0?3?$AA@
CONST	SEGMENT
??_C@_02BHMBNAE@0?3?$AA@ DB '0:', 00H			; `string'
CONST	ENDS
;	COMDAT ??_C@_0N@JACHHCHC@0WORDSUNUSED?$AA@
CONST	SEGMENT
??_C@_0N@JACHHCHC@0WORDSUNUSED?$AA@ DB '0WORDSUNUSED', 00H ; `string'
CONST	ENDS
;	COMDAT ??_C@_0L@KDKOLN@0WORDSUSED?$AA@
CONST	SEGMENT
??_C@_0L@KDKOLN@0WORDSUSED?$AA@ DB '0WORDSUSED', 00H	; `string'
CONST	ENDS
;	COMDAT ??_C@_09BHMIPPJ@0WALKBACK?$AA@
CONST	SEGMENT
??_C@_09BHMIPPJ@0WALKBACK?$AA@ DB '0WALKBACK', 00H	; `string'
CONST	ENDS
;	COMDAT ??_C@_06MDEGOEBI@0TRACE?$AA@
CONST	SEGMENT
??_C@_06MDEGOEBI@0TRACE?$AA@ DB '0TRACE', 00H		; `string'
CONST	ENDS
;	COMDAT ??_C@_07COPGIKHD@0SYSTEM?$AA@
CONST	SEGMENT
??_C@_07COPGIKHD@0SYSTEM?$AA@ DB '0SYSTEM', 00H		; `string'
CONST	ENDS
;	COMDAT ??_C@_07EPGGOCC@1ABORT?$CC?$AA@
CONST	SEGMENT
??_C@_07EPGGOCC@1ABORT?$CC?$AA@ DB '1ABORT"', 00H	; `string'
CONST	ENDS
;	COMDAT ??_C@_06FOFPHNNG@0ABORT?$AA@
CONST	SEGMENT
??_C@_06FOFPHNNG@0ABORT?$AA@ DB '0ABORT', 00H		; `string'
CONST	ENDS
;	COMDAT ??_C@_05BCHLGOAF@0QUIT?$AA@
CONST	SEGMENT
??_C@_05BCHLGOAF@0QUIT?$AA@ DB '0QUIT', 00H		; `string'
CONST	ENDS
;	COMDAT ??_C@_02COEDGEPC@0J?$AA@
CONST	SEGMENT
??_C@_02COEDGEPC@0J?$AA@ DB '0J', 00H			; `string'
CONST	ENDS
;	COMDAT ??_C@_02FGODHDB@0I?$AA@
CONST	SEGMENT
??_C@_02FGODHDB@0I?$AA@ DB '0I', 00H			; `string'
CONST	ENDS
;	COMDAT ??_C@_06OEOOEOOH@0LEAVE?$AA@
CONST	SEGMENT
??_C@_06OEOOEOOH@0LEAVE?$AA@ DB '0LEAVE', 00H		; `string'
CONST	ENDS
;	COMDAT ??_C@_09LADNBAGF@0?$CI?$CLXLOOP?$CJ?$AA@
CONST	SEGMENT
??_C@_09LADNBAGF@0?$CI?$CLXLOOP?$CJ?$AA@ DB '0(+XLOOP)', 00H ; `string'
CONST	ENDS
;	COMDAT ??_C@_08EENKAJAP@0?$CIXLOOP?$CJ?$AA@
CONST	SEGMENT
??_C@_08EENKAJAP@0?$CIXLOOP?$CJ?$AA@ DB '0(XLOOP)', 00H	; `string'
CONST	ENDS
;	COMDAT ??_C@_07LBIDLKB@0?$CIX?$DPDO?$CJ?$AA@
CONST	SEGMENT
??_C@_07LBIDLKB@0?$CIX?$DPDO?$CJ?$AA@ DB '0(X?DO)', 00H	; `string'
CONST	ENDS
;	COMDAT ??_C@_06CJKBMPO@0?$CIXDO?$CJ?$AA@
CONST	SEGMENT
??_C@_06CJKBMPO@0?$CIXDO?$CJ?$AA@ DB '0(XDO)', 00H	; `string'
CONST	ENDS
;	COMDAT ??_C@_06JOOFBBBI@1?$CLLOOP?$AA@
CONST	SEGMENT
??_C@_06JOOFBBBI@1?$CLLOOP?$AA@ DB '1+LOOP', 00H	; `string'
CONST	ENDS
;	COMDAT ??_C@_05BOBCOANO@1LOOP?$AA@
CONST	SEGMENT
??_C@_05BOBCOANO@1LOOP?$AA@ DB '1LOOP', 00H		; `string'
CONST	ENDS
;	COMDAT ??_C@_04NKGAHPF@1?$DPDO?$AA@
CONST	SEGMENT
??_C@_04NKGAHPF@1?$DPDO?$AA@ DB '1?DO', 00H		; `string'
CONST	ENDS
;	COMDAT ??_C@_03JGFOMJPB@1DO?$AA@
CONST	SEGMENT
??_C@_03JGFOMJPB@1DO?$AA@ DB '1DO', 00H			; `string'
CONST	ENDS
;	COMDAT ??_C@_07DDDAIFH@1REPEAT?$AA@
CONST	SEGMENT
??_C@_07DDDAIFH@1REPEAT?$AA@ DB '1REPEAT', 00H		; `string'
CONST	ENDS
;	COMDAT ??_C@_06HBNHNPD@1WHILE?$AA@
CONST	SEGMENT
??_C@_06HBNHNPD@1WHILE?$AA@ DB '1WHILE', 00H		; `string'
CONST	ENDS
;	COMDAT ??_C@_06HAEJDIGL@1AGAIN?$AA@
CONST	SEGMENT
??_C@_06HAEJDIGL@1AGAIN?$AA@ DB '1AGAIN', 00H		; `string'
CONST	ENDS
;	COMDAT ??_C@_06LAOPNPLI@1UNTIL?$AA@
CONST	SEGMENT
??_C@_06LAOPNPLI@1UNTIL?$AA@ DB '1UNTIL', 00H		; `string'
CONST	ENDS
;	COMDAT ??_C@_06KJHGEGHJ@1BEGIN?$AA@
CONST	SEGMENT
??_C@_06KJHGEGHJ@1BEGIN?$AA@ DB '1BEGIN', 00H		; `string'
CONST	ENDS
;	COMDAT ??_C@_05KNIMAIMD@0?$DPDUP?$AA@
CONST	SEGMENT
??_C@_05KNIMAIMD@0?$DPDUP?$AA@ DB '0?DUP', 00H		; `string'
CONST	ENDS
;	COMDAT ??_C@_05KIDLOCN@1THEN?$AA@
CONST	SEGMENT
??_C@_05KIDLOCN@1THEN?$AA@ DB '1THEN', 00H		; `string'
CONST	ENDS
;	COMDAT ??_C@_05CDDOJBEB@1ELSE?$AA@
CONST	SEGMENT
??_C@_05CDDOJBEB@1ELSE?$AA@ DB '1ELSE', 00H		; `string'
CONST	ENDS
;	COMDAT ??_C@_03EPEEOBOL@1IF?$AA@
CONST	SEGMENT
??_C@_03EPEEOBOL@1IF?$AA@ DB '1IF', 00H			; `string'
CONST	ENDS
;	COMDAT ??_C@_08KNNMAPJN@0?$DPBRANCH?$AA@
CONST	SEGMENT
??_C@_08KNNMAPJN@0?$DPBRANCH?$AA@ DB '0?BRANCH', 00H	; `string'
CONST	ENDS
;	COMDAT ??_C@_07NJOGBGCE@0BRANCH?$AA@
CONST	SEGMENT
??_C@_07NJOGBGCE@0BRANCH?$AA@ DB '0BRANCH', 00H		; `string'
CONST	ENDS
;	COMDAT ??_C@_06HFODLJPA@0?$CILIT?$CJ?$AA@
CONST	SEGMENT
??_C@_06HFODLJPA@0?$CILIT?$CJ?$AA@ DB '0(LIT)', 00H	; `string'
CONST	ENDS
;	COMDAT ??_C@_05HFHBIHJK@0EXIT?$AA@
CONST	SEGMENT
??_C@_05HFHBIHJK@0EXIT?$AA@ DB '0EXIT', 00H		; `string'
CONST	ENDS
;	COMDAT ??_C@_07LAEIABPO@0?$CINEST?$CJ?$AA@
CONST	SEGMENT
??_C@_07LAEIABPO@0?$CINEST?$CJ?$AA@ DB '0(NEST)', 00H	; `string'
CONST	ENDS
;	COMDAT ??_C@_04MDDBKNON@0TAN?$AA@
CONST	SEGMENT
??_C@_04MDDBKNON@0TAN?$AA@ DB '0TAN', 00H		; `string'
CONST	ENDS
;	COMDAT ??_C@_05PHKKOGKD@0SQRT?$AA@
CONST	SEGMENT
??_C@_05PHKKOGKD@0SQRT?$AA@ DB '0SQRT', 00H		; `string'
CONST	ENDS
;	COMDAT ??_C@_04FAPFMEOM@0SIN?$AA@
CONST	SEGMENT
??_C@_04FAPFMEOM@0SIN?$AA@ DB '0SIN', 00H		; `string'
CONST	ENDS
;	COMDAT ??_C@_04NNMNLOKI@0POW?$AA@
CONST	SEGMENT
??_C@_04NNMNLOKI@0POW?$AA@ DB '0POW', 00H		; `string'
CONST	ENDS
;	COMDAT ??_C@_04INMAEENO@0LOG?$AA@
CONST	SEGMENT
??_C@_04INMAEENO@0LOG?$AA@ DB '0LOG', 00H		; `string'
CONST	ENDS
;	COMDAT ??_C@_04OMCCDKDH@0EXP?$AA@
CONST	SEGMENT
??_C@_04OMCCDKDH@0EXP?$AA@ DB '0EXP', 00H		; `string'
CONST	ENDS
;	COMDAT ??_C@_04PLANIDNN@0COS?$AA@
CONST	SEGMENT
??_C@_04PLANIDNN@0COS?$AA@ DB '0COS', 00H		; `string'
CONST	ENDS
;	COMDAT ??_C@_06HHLLPOPC@0ATAN2?$AA@
CONST	SEGMENT
??_C@_06HHLLPOPC@0ATAN2?$AA@ DB '0ATAN2', 00H		; `string'
CONST	ENDS
;	COMDAT ??_C@_05HEBJDFIB@0ATAN?$AA@
CONST	SEGMENT
??_C@_05HEBJDFIB@0ATAN?$AA@ DB '0ATAN', 00H		; `string'
CONST	ENDS
;	COMDAT ??_C@_05OHNNFMIA@0ASIN?$AA@
CONST	SEGMENT
??_C@_05OHNNFMIA@0ASIN?$AA@ DB '0ASIN', 00H		; `string'
CONST	ENDS
;	COMDAT ??_C@_05EMCFBLLB@0ACOS?$AA@
CONST	SEGMENT
??_C@_05EMCFBLLB@0ACOS?$AA@ DB '0ACOS', 00H		; `string'
CONST	ENDS
;	COMDAT ??_C@_04CLKKNGJG@0FIX?$AA@
CONST	SEGMENT
??_C@_04CLKKNGJG@0FIX?$AA@ DB '0FIX', 00H		; `string'
CONST	ENDS
;	COMDAT ??_C@_06OCAKOOCG@0FLOAT?$AA@
CONST	SEGMENT
??_C@_06OCAKOOCG@0FLOAT?$AA@ DB '0FLOAT', 00H		; `string'
CONST	ENDS
;	COMDAT ??_C@_03FBIACABM@0F?4?$AA@
CONST	SEGMENT
??_C@_03FBIACABM@0F?4?$AA@ DB '0F.', 00H		; `string'
CONST	ENDS
;	COMDAT ??_C@_04GBBKODMP@0F?$DM?$DN?$AA@
CONST	SEGMENT
??_C@_04GBBKODMP@0F?$DM?$DN?$AA@ DB '0F<=', 00H		; `string'
CONST	ENDS
;	COMDAT ??_C@_04GCJODHKB@0F?$DO?$DN?$AA@
CONST	SEGMENT
??_C@_04GCJODHKB@0F?$DO?$DN?$AA@ DB '0F>=', 00H		; `string'
CONST	ENDS
;	COMDAT ??_C@_03CJHEFAMP@0F?$DM?$AA@
CONST	SEGMENT
??_C@_03CJHEFAMP@0F?$DM?$AA@ DB '0F<', 00H		; `string'
CONST	ENDS
;	COMDAT ??_C@_03BLECDCEN@0F?$DO?$AA@
CONST	SEGMENT
??_C@_03BLECDCEN@0F?$DO?$AA@ DB '0F>', 00H		; `string'
CONST	ENDS
;	COMDAT ??_C@_04EKDHLAAM@0F?$DM?$DO?$AA@
CONST	SEGMENT
??_C@_04EKDHLAAM@0F?$DM?$DO?$AA@ DB '0F<>', 00H		; `string'
CONST	ENDS
;	COMDAT ??_C@_03DAGPGBIO@0F?$DN?$AA@
CONST	SEGMENT
??_C@_03DAGPGBIO@0F?$DN?$AA@ DB '0F=', 00H		; `string'
CONST	ENDS
;	COMDAT ??_C@_05FMNEJMHJ@0FABS?$AA@
CONST	SEGMENT
??_C@_05FMNEJMHJ@0FABS?$AA@ DB '0FABS', 00H		; `string'
CONST	ENDS
;	COMDAT ??_C@_08LMFEPDDP@0FNEGATE?$AA@
CONST	SEGMENT
??_C@_08LMFEPDDP@0FNEGATE?$AA@ DB '0FNEGATE', 00H	; `string'
CONST	ENDS
;	COMDAT ??_C@_05PHLAEEFD@0FMAX?$AA@
CONST	SEGMENT
??_C@_05PHLAEEFD@0FMAX?$AA@ DB '0FMAX', 00H		; `string'
CONST	ENDS
;	COMDAT ??_C@_05OFDLKADM@0FMIN?$AA@
CONST	SEGMENT
??_C@_05OFDLKADM@0FMIN?$AA@ DB '0FMIN', 00H		; `string'
CONST	ENDS
;	COMDAT ??_C@_03EIJLBBFN@0F?1?$AA@
CONST	SEGMENT
??_C@_03EIJLBBFN@0F?1?$AA@ DB '0F/', 00H		; `string'
CONST	ENDS
;	COMDAT ??_C@_03DFOMOFBI@0F?$CK?$AA@
CONST	SEGMENT
??_C@_03DFOMOFBI@0F?$CK?$AA@ DB '0F*', 00H		; `string'
CONST	ENDS
;	COMDAT ??_C@_03HKKNHDNP@0F?9?$AA@
CONST	SEGMENT
??_C@_03HKKNHDNP@0F?9?$AA@ DB '0F-', 00H		; `string'
CONST	ENDS
;	COMDAT ??_C@_03CMPHNEFJ@0F?$CL?$AA@
CONST	SEGMENT
??_C@_03CMPHNEFJ@0F?$CL?$AA@ DB '0F+', 00H		; `string'
CONST	ENDS
;	COMDAT ??_C@_07GOKPFGBJ@0?$CIFLIT?$CJ?$AA@
CONST	SEGMENT
??_C@_07GOKPFGBJ@0?$CIFLIT?$CJ?$AA@ DB '0(FLIT)', 00H	; `string'
CONST	ENDS
;	COMDAT ??_C@_08LJDPGIKE@0STRREAL?$AA@
CONST	SEGMENT
??_C@_08LJDPGIKE@0STRREAL?$AA@ DB '0STRREAL', 00H	; `string'
CONST	ENDS
;	COMDAT ??_C@_07JKCOHJKG@0STRINT?$AA@
CONST	SEGMENT
??_C@_07JKCOHJKG@0STRINT?$AA@ DB '0STRINT', 00H		; `string'
CONST	ENDS
;	COMDAT ??_C@_09KKFANBFF@0FSTRFORM?$AA@
CONST	SEGMENT
??_C@_09KKFANBFF@0FSTRFORM?$AA@ DB '0FSTRFORM', 00H	; `string'
CONST	ENDS
;	COMDAT ??_C@_08EEJJJFOK@0STRFORM?$AA@
CONST	SEGMENT
??_C@_08EEJJJFOK@0STRFORM?$AA@ DB '0STRFORM', 00H	; `string'
CONST	ENDS
;	COMDAT ??_C@_08GINNEDKC@0COMPARE?$AA@
CONST	SEGMENT
??_C@_08GINNEDKC@0COMPARE?$AA@ DB '0COMPARE', 00H	; `string'
CONST	ENDS
;	COMDAT ??_C@_07EJNNALFK@0SUBSTR?$AA@
CONST	SEGMENT
??_C@_07EJNNALFK@0SUBSTR?$AA@ DB '0SUBSTR', 00H		; `string'
CONST	ENDS
;	COMDAT ??_C@_08MCJEDBJE@0STRCHAR?$AA@
CONST	SEGMENT
??_C@_08MCJEDBJE@0STRCHAR?$AA@ DB '0STRCHAR', 00H	; `string'
CONST	ENDS
;	COMDAT ??_C@_07JDLJOCJP@0STRCMP?$AA@
CONST	SEGMENT
??_C@_07JDLJOCJP@0STRCMP?$AA@ DB '0STRCMP', 00H		; `string'
CONST	ENDS
;	COMDAT ??_C@_07BBIIJMKO@0STRLEN?$AA@
CONST	SEGMENT
??_C@_07BBIIJMKO@0STRLEN?$AA@ DB '0STRLEN', 00H		; `string'
CONST	ENDS
;	COMDAT ??_C@_03DGBKLFMC@0S?$CL?$AA@
CONST	SEGMENT
??_C@_03DGBKLFMC@0S?$CL?$AA@ DB '0S+', 00H		; `string'
CONST	ENDS
;	COMDAT ??_C@_07POMPNOPP@0STRCAT?$AA@
CONST	SEGMENT
??_C@_07POMPNOPP@0STRCAT?$AA@ DB '0STRCAT', 00H		; `string'
CONST	ENDS
;	COMDAT ??_C@_03MMPFFNEI@0S?$CB?$AA@
CONST	SEGMENT
??_C@_03MMPFFNEI@0S?$CB?$AA@ DB '0S!', 00H		; `string'
CONST	ENDS
;	COMDAT ??_C@_07FGIFGJPF@0STRCPY?$AA@
CONST	SEGMENT
??_C@_07FGIFGJPF@0STRCPY?$AA@ DB '0STRCPY', 00H		; `string'
CONST	ENDS
;	COMDAT ??_C@_07PLMBDIDE@0STRING?$AA@
CONST	SEGMENT
??_C@_07PLMBDIDE@0STRING?$AA@ DB '0STRING', 00H		; `string'
CONST	ENDS
;	COMDAT ??_C@_09FEDGBOAP@0?$CISTRLIT?$CJ?$AA@
CONST	SEGMENT
??_C@_09FEDGBOAP@0?$CISTRLIT?$CJ?$AA@ DB '0(STRLIT)', 00H ; `string'
CONST	ENDS
;	COMDAT ??_C@_06DHACAGHC@0ARRAY?$AA@
CONST	SEGMENT
??_C@_06DHACAGHC@0ARRAY?$AA@ DB '0ARRAY', 00H		; `string'
CONST	ENDS
;	COMDAT ??_C@_05GMDIKDOI@0HERE?$AA@
CONST	SEGMENT
??_C@_05GMDIKDOI@0HERE?$AA@ DB '0HERE', 00H		; `string'
CONST	ENDS
;	COMDAT ??_C@_03DGKEKDGF@0C?$DN?$AA@
CONST	SEGMENT
??_C@_03DGKEKDGF@0C?$DN?$AA@ DB '0C=', 00H		; `string'
CONST	ENDS
;	COMDAT ??_C@_03GFHNIAHF@0C?0?$AA@
CONST	SEGMENT
??_C@_03GFHNIAHF@0C?0?$AA@ DB '0C,', 00H		; `string'
CONST	ENDS
;	COMDAT ??_C@_03KMDFKENO@0C?$EA?$AA@
CONST	SEGMENT
??_C@_03KMDFKENO@0C?$EA?$AA@ DB '0C@', 00H		; `string'
CONST	ENDS
;	COMDAT ??_C@_03NANDPODI@0C?$CB?$AA@
CONST	SEGMENT
??_C@_03NANDPODI@0C?$CB?$AA@ DB '0C!', 00H		; `string'
CONST	ENDS
;	COMDAT ??_C@_02BNOEKIND@0?0?$AA@
CONST	SEGMENT
??_C@_02BNOEKIND@0?0?$AA@ DB '0,', 00H			; `string'
CONST	ENDS
;	COMDAT ??_C@_06OHCEFMHK@0ALLOT?$AA@
CONST	SEGMENT
??_C@_06OHCEFMHK@0ALLOT?$AA@ DB '0ALLOT', 00H		; `string'
CONST	ENDS
;	COMDAT ??_C@_03JGBHGEKA@0?$CL?$CB?$AA@
CONST	SEGMENT
??_C@_03JGBHGEKA@0?$CL?$CB?$AA@ DB '0+!', 00H		; `string'
CONST	ENDS
;	COMDAT ??_C@_02NEKMIMHI@0?$EA?$AA@
CONST	SEGMENT
??_C@_02NEKMIMHI@0?$EA?$AA@ DB '0@', 00H		; `string'
CONST	ENDS
;	COMDAT ??_C@_02KIEKNGJO@0?$CB?$AA@
CONST	SEGMENT
??_C@_02KIEKNGJO@0?$CB?$AA@ DB '0!', 00H		; `string'
CONST	ENDS
;	COMDAT ??_C@_09LHOCOAIG@0CONSTANT?$AA@
CONST	SEGMENT
??_C@_09LHOCOAIG@0CONSTANT?$AA@ DB '0CONSTANT', 00H	; `string'
CONST	ENDS
;	COMDAT ??_C@_09KMOEGCKP@0VARIABLE?$AA@
CONST	SEGMENT
??_C@_09KMOEGCKP@0VARIABLE?$AA@ DB '0VARIABLE', 00H	; `string'
CONST	ENDS
;	COMDAT ??_C@_03PJAGKGLJ@02?$EA?$AA@
CONST	SEGMENT
??_C@_03PJAGKGLJ@02?$EA?$AA@ DB '02@', 00H		; `string'
CONST	ENDS
;	COMDAT ??_C@_03IFOAPMFP@02?$CB?$AA@
CONST	SEGMENT
??_C@_03IFOAPMFP@02?$CB?$AA@ DB '02!', 00H		; `string'
CONST	ENDS
;	COMDAT ??_C@_0L@BDHAKCDN@02CONSTANT?$AA@
CONST	SEGMENT
??_C@_0L@BDHAKCDN@02CONSTANT?$AA@ DB '02CONSTANT', 00H	; `string'
CONST	ENDS
;	COMDAT ??_C@_0L@IHGCABE@02VARIABLE?$AA@
CONST	SEGMENT
??_C@_0L@IHGCABE@02VARIABLE?$AA@ DB '02VARIABLE', 00H	; `string'
CONST	ENDS
;	COMDAT ??_C@_05FFLDCHJD@02ROT?$AA@
CONST	SEGMENT
??_C@_05FFLDCHJD@02ROT?$AA@ DB '02ROT', 00H		; `string'
CONST	ENDS
;	COMDAT ??_C@_06EJFLMMGO@02OVER?$AA@
CONST	SEGMENT
??_C@_06EJFLMMGO@02OVER?$AA@ DB '02OVER', 00H		; `string'
CONST	ENDS
;	COMDAT ??_C@_06GBMIBLNG@02SWAP?$AA@
CONST	SEGMENT
??_C@_06GBMIBLNG@02SWAP?$AA@ DB '02SWAP', 00H		; `string'
CONST	ENDS
;	COMDAT ??_C@_06IOEIINHM@02DROP?$AA@
CONST	SEGMENT
??_C@_06IOEIINHM@02DROP?$AA@ DB '02DROP', 00H		; `string'
CONST	ENDS
;	COMDAT ??_C@_05FFBMMMHC@02DUP?$AA@
CONST	SEGMENT
??_C@_05FFBMMMHC@02DUP?$AA@ DB '02DUP', 00H		; `string'
CONST	ENDS
;	COMDAT ??_C@_03HJAIEECN@00?$DM?$AA@
CONST	SEGMENT
??_C@_03HJAIEECN@00?$DM?$AA@ DB '00<', 00H		; `string'
CONST	ENDS
;	COMDAT ??_C@_03ELDOCGKP@00?$DO?$AA@
CONST	SEGMENT
??_C@_03ELDOCGKP@00?$DO?$AA@ DB '00>', 00H		; `string'
CONST	ENDS
;	COMDAT ??_C@_04EGDEPEM@00?$DM?$DO?$AA@
CONST	SEGMENT
??_C@_04EGDEPEM@00?$DM?$DO?$AA@ DB '00<>', 00H		; `string'
CONST	ENDS
;	COMDAT ??_C@_03GABDHFGM@00?$DN?$AA@
CONST	SEGMENT
??_C@_03GABDHFGM@00?$DN?$AA@ DB '00=', 00H		; `string'
CONST	ENDS
;	COMDAT ??_C@_03BLGDNBNB@02?1?$AA@
CONST	SEGMENT
??_C@_03BLGDNBNB@02?1?$AA@ DB '02/', 00H		; `string'
CONST	ENDS
;	COMDAT ??_C@_03GGBECFJE@02?$CK?$AA@
CONST	SEGMENT
??_C@_03GGBECFJE@02?$CK?$AA@ DB '02*', 00H		; `string'
CONST	ENDS
;	COMDAT ??_C@_03CJFFLDFD@02?9?$AA@
CONST	SEGMENT
??_C@_03CJFFLDFD@02?9?$AA@ DB '02-', 00H		; `string'
CONST	ENDS
;	COMDAT ??_C@_03CLBDANAK@01?9?$AA@
CONST	SEGMENT
??_C@_03CLBDANAK@01?9?$AA@ DB '01-', 00H		; `string'
CONST	ENDS
;	COMDAT ??_C@_03HPAPBENF@02?$CL?$AA@
CONST	SEGMENT
??_C@_03HPAPBENF@02?$CL?$AA@ DB '02+', 00H		; `string'
CONST	ENDS
;	COMDAT ??_C@_03HNEJKKIM@01?$CL?$AA@
CONST	SEGMENT
??_C@_03HNEJKKIM@01?$CL?$AA@ DB '01+', 00H		; `string'
CONST	ENDS
;	COMDAT ??_C@_03LBNBGNJJ@0R?$EA?$AA@
CONST	SEGMENT
??_C@_03LBNBGNJJ@0R?$EA?$AA@ DB '0R@', 00H		; `string'
CONST	ENDS
;	COMDAT ??_C@_03GNDJOB@0R?$DO?$AA@
CONST	SEGMENT
??_C@_03GNDJOB@0R?$DO?$AA@ DB '0R>', 00H		; `string'
CONST	ENDS
;	COMDAT ??_C@_03IIOICPAO@0?$DOR?$AA@
CONST	SEGMENT
??_C@_03IIOICPAO@0?$DOR?$AA@ DB '0>R', 00H		; `string'
CONST	ENDS
;	COMDAT ??_C@_05OOKPPJJM@0ROLL?$AA@
CONST	SEGMENT
??_C@_05OOKPPJJM@0ROLL?$AA@ DB '0ROLL', 00H		; `string'
CONST	ENDS
;	COMDAT ??_C@_05LHADCHMA@0?9ROT?$AA@
CONST	SEGMENT
??_C@_05LHADCHMA@0?9ROT?$AA@ DB '0-ROT', 00H		; `string'
CONST	ENDS
;	COMDAT ??_C@_04FMOJCFOA@0ROT?$AA@
CONST	SEGMENT
??_C@_04FMOJCFOA@0ROT?$AA@ DB '0ROT', 00H		; `string'
CONST	ENDS
;	COMDAT ??_C@_05PFBJCENK@0PICK?$AA@
CONST	SEGMENT
??_C@_05PFBJCENK@0PICK?$AA@ DB '0PICK', 00H		; `string'
CONST	ENDS
;	COMDAT ??_C@_05IAFOLGOK@0OVER?$AA@
CONST	SEGMENT
??_C@_05IAFOLGOK@0OVER?$AA@ DB '0OVER', 00H		; `string'
CONST	ENDS
;	COMDAT ??_C@_05KIMNGBFC@0SWAP?$AA@
CONST	SEGMENT
??_C@_05KIMNGBFC@0SWAP?$AA@ DB '0SWAP', 00H		; `string'
CONST	ENDS
;	COMDAT ??_C@_05EHENPHPI@0DROP?$AA@
CONST	SEGMENT
??_C@_05EHENPHPI@0DROP?$AA@ DB '0DROP', 00H		; `string'
CONST	ENDS
;	COMDAT ??_C@_04FMEGMOAB@0DUP?$AA@
CONST	SEGMENT
??_C@_04FMEGMOAB@0DUP?$AA@ DB '0DUP', 00H		; `string'
CONST	ENDS
;	COMDAT ??_C@_06ILCADIHH@0CLEAR?$AA@
CONST	SEGMENT
??_C@_06ILCADIHH@0CLEAR?$AA@ DB '0CLEAR', 00H		; `string'
CONST	ENDS
;	COMDAT ??_C@_06FGDCFGFD@0DEPTH?$AA@
CONST	SEGMENT
??_C@_06FGDCFGFD@0DEPTH?$AA@ DB '0DEPTH', 00H		; `string'
CONST	ENDS
;	COMDAT ??_C@_06GELFJCJH@0SHIFT?$AA@
CONST	SEGMENT
??_C@_06GELFJCJH@0SHIFT?$AA@ DB '0SHIFT', 00H		; `string'
CONST	ENDS
;	COMDAT ??_C@_04EGCGMNMH@0NOT?$AA@
CONST	SEGMENT
??_C@_04EGCGMNMH@0NOT?$AA@ DB '0NOT', 00H		; `string'
CONST	ENDS
;	COMDAT ??_C@_04GFAOGCAC@0XOR?$AA@
CONST	SEGMENT
??_C@_04GFAOGCAC@0XOR?$AA@ DB '0XOR', 00H		; `string'
CONST	ENDS
;	COMDAT ??_C@_03NNNLCNGJ@0OR?$AA@
CONST	SEGMENT
??_C@_03NNNLCNGJ@0OR?$AA@ DB '0OR', 00H			; `string'
CONST	ENDS
;	COMDAT ??_C@_04FFEFKFPH@0AND?$AA@
CONST	SEGMENT
??_C@_04FFEFKFPH@0AND?$AA@ DB '0AND', 00H		; `string'
CONST	ENDS
;	COMDAT ??_C@_03GJAJIMAI@0?$DM?$DN?$AA@
CONST	SEGMENT
??_C@_03GJAJIMAI@0?$DM?$DN?$AA@ DB '0<=', 00H		; `string'
CONST	ENDS
;	COMDAT ??_C@_03GKINFIGG@0?$DO?$DN?$AA@
CONST	SEGMENT
??_C@_03GKINFIGG@0?$DO?$DN?$AA@ DB '0>=', 00H		; `string'
CONST	ENDS
;	COMDAT ??_C@_02FHCGLKIC@0?$DM?$AA@
CONST	SEGMENT
??_C@_02FHCGLKIC@0?$DM?$AA@ DB '0<', 00H		; `string'
CONST	ENDS
;	COMDAT ??_C@_02GFBANIAA@0?$DO?$AA@
CONST	SEGMENT
??_C@_02GFBANIAA@0?$DO?$AA@ DB '0>', 00H		; `string'
CONST	ENDS
;	COMDAT ??_C@_03ECCENPML@0?$DM?$DO?$AA@
CONST	SEGMENT
??_C@_03ECCENPML@0?$DM?$DO?$AA@ DB '0<>', 00H		; `string'
CONST	ENDS
;	COMDAT ??_C@_02EODNILMD@0?$DN?$AA@
CONST	SEGMENT
??_C@_02EODNILMD@0?$DN?$AA@ DB '0=', 00H		; `string'
CONST	ENDS
;	COMDAT ??_C@_04FJNMNIAF@0ABS?$AA@
CONST	SEGMENT
??_C@_04FJNMNIAF@0ABS?$AA@ DB '0ABS', 00H		; `string'
CONST	ENDS
;	COMDAT ??_C@_07HLHBGADN@0NEGATE?$AA@
CONST	SEGMENT
??_C@_07HLHBGADN@0NEGATE?$AA@ DB '0NEGATE', 00H		; `string'
CONST	ENDS
;	COMDAT ??_C@_04PCLIAACP@0MAX?$AA@
CONST	SEGMENT
??_C@_04PCLIAACP@0MAX?$AA@ DB '0MAX', 00H		; `string'
CONST	ENDS
;	COMDAT ??_C@_04OADDOEEA@0MIN?$AA@
CONST	SEGMENT
??_C@_04OADDOEEA@0MIN?$AA@ DB '0MIN', 00H		; `string'
CONST	ENDS
;	COMDAT ??_C@_05IPHLCBDI@0?1MOD?$AA@
CONST	SEGMENT
??_C@_05IPHLCBDI@0?1MOD?$AA@ DB '0/MOD', 00H		; `string'
CONST	ENDS
;	COMDAT ??_C@_04BOFBHAHI@0MOD?$AA@
CONST	SEGMENT
??_C@_04BOFBHAHI@0MOD?$AA@ DB '0MOD', 00H		; `string'
CONST	ENDS
;	COMDAT ??_C@_02DGMJPLBA@0?1?$AA@
CONST	SEGMENT
??_C@_02DGMJPLBA@0?1?$AA@ DB '0/', 00H			; `string'
CONST	ENDS
;	COMDAT ??_C@_02ELLOAPFF@0?$CK?$AA@
CONST	SEGMENT
??_C@_02ELLOAPFF@0?$CK?$AA@ DB '0*', 00H		; `string'
CONST	ENDS
;	COMDAT ??_C@_02EPPJJJC@0?9?$AA@
CONST	SEGMENT
??_C@_02EPPJJJC@0?9?$AA@ DB '0-', 00H			; `string'
CONST	ENDS
;	COMDAT ??_C@_02FCKFDOBE@0?$CL?$AA@
CONST	SEGMENT
??_C@_02FCKFDOBE@0?$CL?$AA@ DB '0+', 00H		; `string'
CONST	ENDS
;	COMDAT ??_C@_02CHHAKFFB@w?$CL?$AA@
CONST	SEGMENT
??_C@_02CHHAKFFB@w?$CL?$AA@ DB 'w+', 00H		; `string'
CONST	ENDS
;	COMDAT ??_C@_01NOFIACDB@w?$AA@
CONST	SEGMENT
??_C@_01NOFIACDB@w?$AA@ DB 'w', 00H			; `string'
CONST	ENDS
;	COMDAT ??_C@_02CBLLGHLK@r?$CL?$AA@
CONST	SEGMENT
??_C@_02CBLLGHLK@r?$CL?$AA@ DB 'r+', 00H		; `string'
CONST	ENDS
;	COMDAT ??_C@_01KDCPPGHE@r?$AA@
CONST	SEGMENT
??_C@_01KDCPPGHE@r?$AA@ DB 'r', 00H			; `string'
CONST	ENDS
CONST	SEGMENT
_recargchar DB	'option requires an argument -- %c', 00H
	ORG $+2
_recargstring DB 'option requires an argument -- %s', 00H
	ORG $+2
_ambig	DB	'ambiguous option -- %.*s', 00H
	ORG $+3
_noarg	DB	'option doesn''t take an argument -- %.*s', 00H
_illoptchar DB	'unknown option -- %c', 00H
	ORG $+3
_illoptstring DB 'unknown option -- %s', 00H
CONST	ENDS
;	COMDAT ??_C@_00CNPNBAHC@?$AA@
CONST	SEGMENT
??_C@_00CNPNBAHC@?$AA@ DB 00H				; `string'
CONST	ENDS
_DATA	SEGMENT
_opterr	DD	01H
_optind	DD	01H
_optopt	DD	03fH
_place	DD	FLAT:??_C@_00CNPNBAHC@?$AA@
_nonopt_start DD 0ffffffffH
_nonopt_end DD	0ffffffffH
?posixly_correct@?1??getopt_internal@@9@9 DD 0ffffffffH	; `getopt_internal'::`2'::posixly_correct
_base	DD	0aH
_atl_stklen DQ	0000000000000064H
_atl_rstklen DQ	0000000000000064H
_atl_heaplen DQ	00000000000007d0H
_atl_ltempstr DQ 0000000000000100H
_atl_ntempstr DQ 0000000000000004H
_atl_walkback DQ ffffffffffffffffH
_atl_redef DQ	ffffffffffffffffH
_fopenmodes DD	FLAT:??_C@_00CNPNBAHC@?$AA@
	DD	FLAT:??_C@_01KDCPPGHE@r?$AA@
	DD	FLAT:??_C@_00CNPNBAHC@?$AA@
	DD	FLAT:??_C@_02CBLLGHLK@r?$CL?$AA@
	DD	FLAT:??_C@_00CNPNBAHC@?$AA@
	DD	FLAT:??_C@_01KDCPPGHE@r?$AA@
	DD	FLAT:??_C@_00CNPNBAHC@?$AA@
	DD	FLAT:??_C@_02CBLLGHLK@r?$CL?$AA@
	DD	FLAT:??_C@_00CNPNBAHC@?$AA@
	DD	FLAT:??_C@_00CNPNBAHC@?$AA@
	DD	FLAT:??_C@_01NOFIACDB@w?$AA@
	DD	FLAT:??_C@_02CHHAKFFB@w?$CL?$AA@
	DD	FLAT:??_C@_00CNPNBAHC@?$AA@
	DD	FLAT:??_C@_00CNPNBAHC@?$AA@
	DD	FLAT:??_C@_01NOFIACDB@w?$AA@
	DD	FLAT:??_C@_02CHHAKFFB@w?$CL?$AA@
_primt	DD	FLAT:??_C@_02FCKFDOBE@0?$CL?$AA@
	DD	FLAT:_P_plus
	DD	FLAT:??_C@_02EPPJJJC@0?9?$AA@
	DD	FLAT:_P_minus
	DD	FLAT:??_C@_02ELLOAPFF@0?$CK?$AA@
	DD	FLAT:_P_times
	DD	FLAT:??_C@_02DGMJPLBA@0?1?$AA@
	DD	FLAT:_P_div
	DD	FLAT:??_C@_04BOFBHAHI@0MOD?$AA@
	DD	FLAT:_P_mod
	DD	FLAT:??_C@_05IPHLCBDI@0?1MOD?$AA@
	DD	FLAT:_P_divmod
	DD	FLAT:??_C@_04OADDOEEA@0MIN?$AA@
	DD	FLAT:_P_min
	DD	FLAT:??_C@_04PCLIAACP@0MAX?$AA@
	DD	FLAT:_P_max
	DD	FLAT:??_C@_07HLHBGADN@0NEGATE?$AA@
	DD	FLAT:_P_neg
	DD	FLAT:??_C@_04FJNMNIAF@0ABS?$AA@
	DD	FLAT:_P_abs
	DD	FLAT:??_C@_02EODNILMD@0?$DN?$AA@
	DD	FLAT:_P_equal
	DD	FLAT:??_C@_03ECCENPML@0?$DM?$DO?$AA@
	DD	FLAT:_P_unequal
	DD	FLAT:??_C@_02GFBANIAA@0?$DO?$AA@
	DD	FLAT:_P_gtr
	DD	FLAT:??_C@_02FHCGLKIC@0?$DM?$AA@
	DD	FLAT:_P_lss
	DD	FLAT:??_C@_03GKINFIGG@0?$DO?$DN?$AA@
	DD	FLAT:_P_geq
	DD	FLAT:??_C@_03GJAJIMAI@0?$DM?$DN?$AA@
	DD	FLAT:_P_leq
	DD	FLAT:??_C@_04FFEFKFPH@0AND?$AA@
	DD	FLAT:_P_and
	DD	FLAT:??_C@_03NNNLCNGJ@0OR?$AA@
	DD	FLAT:_P_or
	DD	FLAT:??_C@_04GFAOGCAC@0XOR?$AA@
	DD	FLAT:_P_xor
	DD	FLAT:??_C@_04EGCGMNMH@0NOT?$AA@
	DD	FLAT:_P_not
	DD	FLAT:??_C@_06GELFJCJH@0SHIFT?$AA@
	DD	FLAT:_P_shift
	DD	FLAT:??_C@_06FGDCFGFD@0DEPTH?$AA@
	DD	FLAT:_P_depth
	DD	FLAT:??_C@_06ILCADIHH@0CLEAR?$AA@
	DD	FLAT:_P_clear
	DD	FLAT:??_C@_04FMEGMOAB@0DUP?$AA@
	DD	FLAT:_P_dup
	DD	FLAT:??_C@_05EHENPHPI@0DROP?$AA@
	DD	FLAT:_P_drop
	DD	FLAT:??_C@_05KIMNGBFC@0SWAP?$AA@
	DD	FLAT:_P_swap
	DD	FLAT:??_C@_05IAFOLGOK@0OVER?$AA@
	DD	FLAT:_P_over
	DD	FLAT:??_C@_05PFBJCENK@0PICK?$AA@
	DD	FLAT:_P_pick
	DD	FLAT:??_C@_04FMOJCFOA@0ROT?$AA@
	DD	FLAT:_P_rot
	DD	FLAT:??_C@_05LHADCHMA@0?9ROT?$AA@
	DD	FLAT:_P_minusrot
	DD	FLAT:??_C@_05OOKPPJJM@0ROLL?$AA@
	DD	FLAT:_P_roll
	DD	FLAT:??_C@_03IIOICPAO@0?$DOR?$AA@
	DD	FLAT:_P_tor
	DD	FLAT:??_C@_03GNDJOB@0R?$DO?$AA@
	DD	FLAT:_P_rfrom
	DD	FLAT:??_C@_03LBNBGNJJ@0R?$EA?$AA@
	DD	FLAT:_P_rfetch
	DD	FLAT:??_C@_03HNEJKKIM@01?$CL?$AA@
	DD	FLAT:_P_1plus
	DD	FLAT:??_C@_03HPAPBENF@02?$CL?$AA@
	DD	FLAT:_P_2plus
	DD	FLAT:??_C@_03CLBDANAK@01?9?$AA@
	DD	FLAT:_P_1minus
	DD	FLAT:??_C@_03CJFFLDFD@02?9?$AA@
	DD	FLAT:_P_2minus
	DD	FLAT:??_C@_03GGBECFJE@02?$CK?$AA@
	DD	FLAT:_P_2times
	DD	FLAT:??_C@_03BLGDNBNB@02?1?$AA@
	DD	FLAT:_P_2div
	DD	FLAT:??_C@_03GABDHFGM@00?$DN?$AA@
	DD	FLAT:_P_0equal
	DD	FLAT:??_C@_04EGDEPEM@00?$DM?$DO?$AA@
	DD	FLAT:_P_0notequal
	DD	FLAT:??_C@_03ELDOCGKP@00?$DO?$AA@
	DD	FLAT:_P_0gtr
	DD	FLAT:??_C@_03HJAIEECN@00?$DM?$AA@
	DD	FLAT:_P_0lss
	DD	FLAT:??_C@_05FFBMMMHC@02DUP?$AA@
	DD	FLAT:_P_2dup
	DD	FLAT:??_C@_06IOEIINHM@02DROP?$AA@
	DD	FLAT:_P_2drop
	DD	FLAT:??_C@_06GBMIBLNG@02SWAP?$AA@
	DD	FLAT:_P_2swap
	DD	FLAT:??_C@_06EJFLMMGO@02OVER?$AA@
	DD	FLAT:_P_2over
	DD	FLAT:??_C@_05FFLDCHJD@02ROT?$AA@
	DD	FLAT:_P_2rot
	DD	FLAT:??_C@_0L@IHGCABE@02VARIABLE?$AA@
	DD	FLAT:_P_2variable
	DD	FLAT:??_C@_0L@BDHAKCDN@02CONSTANT?$AA@
	DD	FLAT:_P_2constant
	DD	FLAT:??_C@_03IFOAPMFP@02?$CB?$AA@
	DD	FLAT:_P_2bang
	DD	FLAT:??_C@_03PJAGKGLJ@02?$EA?$AA@
	DD	FLAT:_P_2at
	DD	FLAT:??_C@_09KMOEGCKP@0VARIABLE?$AA@
	DD	FLAT:_P_variable
	DD	FLAT:??_C@_09LHOCOAIG@0CONSTANT?$AA@
	DD	FLAT:_P_constant
	DD	FLAT:??_C@_02KIEKNGJO@0?$CB?$AA@
	DD	FLAT:_P_bang
	DD	FLAT:??_C@_02NEKMIMHI@0?$EA?$AA@
	DD	FLAT:_P_at
	DD	FLAT:??_C@_03JGBHGEKA@0?$CL?$CB?$AA@
	DD	FLAT:_P_plusbang
	DD	FLAT:??_C@_06OHCEFMHK@0ALLOT?$AA@
	DD	FLAT:_P_allot
	DD	FLAT:??_C@_02BNOEKIND@0?0?$AA@
	DD	FLAT:_P_comma
	DD	FLAT:??_C@_03NANDPODI@0C?$CB?$AA@
	DD	FLAT:_P_cbang
	DD	FLAT:??_C@_03KMDFKENO@0C?$EA?$AA@
	DD	FLAT:_P_cat
	DD	FLAT:??_C@_03GFHNIAHF@0C?0?$AA@
	DD	FLAT:_P_ccomma
	DD	FLAT:??_C@_03DGKEKDGF@0C?$DN?$AA@
	DD	FLAT:_P_cequal
	DD	FLAT:??_C@_05GMDIKDOI@0HERE?$AA@
	DD	FLAT:_P_here
	DD	FLAT:??_C@_06DHACAGHC@0ARRAY?$AA@
	DD	FLAT:_P_array
	DD	FLAT:??_C@_09FEDGBOAP@0?$CISTRLIT?$CJ?$AA@
	DD	FLAT:_P_strlit
	DD	FLAT:??_C@_07PLMBDIDE@0STRING?$AA@
	DD	FLAT:_P_string
	DD	FLAT:??_C@_07FGIFGJPF@0STRCPY?$AA@
	DD	FLAT:_P_strcpy
	DD	FLAT:??_C@_03MMPFFNEI@0S?$CB?$AA@
	DD	FLAT:_P_strcpy
	DD	FLAT:??_C@_07POMPNOPP@0STRCAT?$AA@
	DD	FLAT:_P_strcat
	DD	FLAT:??_C@_03DGBKLFMC@0S?$CL?$AA@
	DD	FLAT:_P_strcat
	DD	FLAT:??_C@_07BBIIJMKO@0STRLEN?$AA@
	DD	FLAT:_P_strlen
	DD	FLAT:??_C@_07JDLJOCJP@0STRCMP?$AA@
	DD	FLAT:_P_strcmp
	DD	FLAT:??_C@_08MCJEDBJE@0STRCHAR?$AA@
	DD	FLAT:_P_strchar
	DD	FLAT:??_C@_07EJNNALFK@0SUBSTR?$AA@
	DD	FLAT:_P_substr
	DD	FLAT:??_C@_08GINNEDKC@0COMPARE?$AA@
	DD	FLAT:_P_strcmp
	DD	FLAT:??_C@_08EEJJJFOK@0STRFORM?$AA@
	DD	FLAT:_P_strform
	DD	FLAT:??_C@_09KKFANBFF@0FSTRFORM?$AA@
	DD	FLAT:_P_fstrform
	DD	FLAT:??_C@_07JKCOHJKG@0STRINT?$AA@
	DD	FLAT:_P_strint
	DD	FLAT:??_C@_08LJDPGIKE@0STRREAL?$AA@
	DD	FLAT:_P_strreal
	DD	FLAT:??_C@_07GOKPFGBJ@0?$CIFLIT?$CJ?$AA@
	DD	FLAT:_P_flit
	DD	FLAT:??_C@_03CMPHNEFJ@0F?$CL?$AA@
	DD	FLAT:_P_fplus
	DD	FLAT:??_C@_03HKKNHDNP@0F?9?$AA@
	DD	FLAT:_P_fminus
	DD	FLAT:??_C@_03DFOMOFBI@0F?$CK?$AA@
	DD	FLAT:_P_ftimes
	DD	FLAT:??_C@_03EIJLBBFN@0F?1?$AA@
	DD	FLAT:_P_fdiv
	DD	FLAT:??_C@_05OFDLKADM@0FMIN?$AA@
	DD	FLAT:_P_fmin
	DD	FLAT:??_C@_05PHLAEEFD@0FMAX?$AA@
	DD	FLAT:_P_fmax
	DD	FLAT:??_C@_08LMFEPDDP@0FNEGATE?$AA@
	DD	FLAT:_P_fneg
	DD	FLAT:??_C@_05FMNEJMHJ@0FABS?$AA@
	DD	FLAT:_P_fabs
	DD	FLAT:??_C@_03DAGPGBIO@0F?$DN?$AA@
	DD	FLAT:_P_fequal
	DD	FLAT:??_C@_04EKDHLAAM@0F?$DM?$DO?$AA@
	DD	FLAT:_P_funequal
	DD	FLAT:??_C@_03BLECDCEN@0F?$DO?$AA@
	DD	FLAT:_P_fgtr
	DD	FLAT:??_C@_03CJHEFAMP@0F?$DM?$AA@
	DD	FLAT:_P_flss
	DD	FLAT:??_C@_04GCJODHKB@0F?$DO?$DN?$AA@
	DD	FLAT:_P_fgeq
	DD	FLAT:??_C@_04GBBKODMP@0F?$DM?$DN?$AA@
	DD	FLAT:_P_fleq
	DD	FLAT:??_C@_03FBIACABM@0F?4?$AA@
	DD	FLAT:_P_fdot
	DD	FLAT:??_C@_06OCAKOOCG@0FLOAT?$AA@
	DD	FLAT:_P_float
	DD	FLAT:??_C@_04CLKKNGJG@0FIX?$AA@
	DD	FLAT:_P_fix
	DD	FLAT:??_C@_05EMCFBLLB@0ACOS?$AA@
	DD	FLAT:_P_acos
	DD	FLAT:??_C@_05OHNNFMIA@0ASIN?$AA@
	DD	FLAT:_P_asin
	DD	FLAT:??_C@_05HEBJDFIB@0ATAN?$AA@
	DD	FLAT:_P_atan
	DD	FLAT:??_C@_06HHLLPOPC@0ATAN2?$AA@
	DD	FLAT:_P_atan2
	DD	FLAT:??_C@_04PLANIDNN@0COS?$AA@
	DD	FLAT:_P_cos
	DD	FLAT:??_C@_04OMCCDKDH@0EXP?$AA@
	DD	FLAT:_P_exp
	DD	FLAT:??_C@_04INMAEENO@0LOG?$AA@
	DD	FLAT:_P_log
	DD	FLAT:??_C@_04NNMNLOKI@0POW?$AA@
	DD	FLAT:_P_pow
	DD	FLAT:??_C@_04FAPFMEOM@0SIN?$AA@
	DD	FLAT:_P_sin
	DD	FLAT:??_C@_05PHKKOGKD@0SQRT?$AA@
	DD	FLAT:_P_sqrt
	DD	FLAT:??_C@_04MDDBKNON@0TAN?$AA@
	DD	FLAT:_P_tan
	DD	FLAT:??_C@_07LAEIABPO@0?$CINEST?$CJ?$AA@
	DD	FLAT:_P_nest
	DD	FLAT:??_C@_05HFHBIHJK@0EXIT?$AA@
	DD	FLAT:_P_exit
	DD	FLAT:??_C@_06HFODLJPA@0?$CILIT?$CJ?$AA@
	DD	FLAT:_P_dolit
	DD	FLAT:??_C@_07NJOGBGCE@0BRANCH?$AA@
	DD	FLAT:_P_branch
	DD	FLAT:??_C@_08KNNMAPJN@0?$DPBRANCH?$AA@
	DD	FLAT:_P_qbranch
	DD	FLAT:??_C@_03EPEEOBOL@1IF?$AA@
	DD	FLAT:_P_if
	DD	FLAT:??_C@_05CDDOJBEB@1ELSE?$AA@
	DD	FLAT:_P_else
	DD	FLAT:??_C@_05KIDLOCN@1THEN?$AA@
	DD	FLAT:_P_then
	DD	FLAT:??_C@_05KNIMAIMD@0?$DPDUP?$AA@
	DD	FLAT:_P_qdup
	DD	FLAT:??_C@_06KJHGEGHJ@1BEGIN?$AA@
	DD	FLAT:_P_begin
	DD	FLAT:??_C@_06LAOPNPLI@1UNTIL?$AA@
	DD	FLAT:_P_until
	DD	FLAT:??_C@_06HAEJDIGL@1AGAIN?$AA@
	DD	FLAT:_P_again
	DD	FLAT:??_C@_06HBNHNPD@1WHILE?$AA@
	DD	FLAT:_P_while
	DD	FLAT:??_C@_07DDDAIFH@1REPEAT?$AA@
	DD	FLAT:_P_repeat
	DD	FLAT:??_C@_03JGFOMJPB@1DO?$AA@
	DD	FLAT:_P_do
	DD	FLAT:??_C@_04NKGAHPF@1?$DPDO?$AA@
	DD	FLAT:_P_qdo
	DD	FLAT:??_C@_05BOBCOANO@1LOOP?$AA@
	DD	FLAT:_P_loop
	DD	FLAT:??_C@_06JOOFBBBI@1?$CLLOOP?$AA@
	DD	FLAT:_P_ploop
	DD	FLAT:??_C@_06CJKBMPO@0?$CIXDO?$CJ?$AA@
	DD	FLAT:_P_xdo
	DD	FLAT:??_C@_07LBIDLKB@0?$CIX?$DPDO?$CJ?$AA@
	DD	FLAT:_P_xqdo
	DD	FLAT:??_C@_08EENKAJAP@0?$CIXLOOP?$CJ?$AA@
	DD	FLAT:_P_xloop
	DD	FLAT:??_C@_09LADNBAGF@0?$CI?$CLXLOOP?$CJ?$AA@
	DD	FLAT:_P_xploop
	DD	FLAT:??_C@_06OEOOEOOH@0LEAVE?$AA@
	DD	FLAT:_P_leave
	DD	FLAT:??_C@_02FGODHDB@0I?$AA@
	DD	FLAT:_P_i
	DD	FLAT:??_C@_02COEDGEPC@0J?$AA@
	DD	FLAT:_P_j
	DD	FLAT:??_C@_05BCHLGOAF@0QUIT?$AA@
	DD	FLAT:_P_quit
	DD	FLAT:??_C@_06FOFPHNNG@0ABORT?$AA@
	DD	FLAT:_P_abort
	DD	FLAT:??_C@_07EPGGOCC@1ABORT?$CC?$AA@
	DD	FLAT:_P_abortq
	DD	FLAT:??_C@_07COPGIKHD@0SYSTEM?$AA@
	DD	FLAT:_P_system
	DD	FLAT:??_C@_06MDEGOEBI@0TRACE?$AA@
	DD	FLAT:_P_trace
	DD	FLAT:??_C@_09BHMIPPJ@0WALKBACK?$AA@
	DD	FLAT:_P_walkback
	DD	FLAT:??_C@_0L@KDKOLN@0WORDSUSED?$AA@
	DD	FLAT:_P_wordsused
	DD	FLAT:??_C@_0N@JACHHCHC@0WORDSUNUSED?$AA@
	DD	FLAT:_P_wordsunused
	DD	FLAT:??_C@_02BHMBNAE@0?3?$AA@
	DD	FLAT:_P_colon
	DD	FLAT:??_C@_02BJKFEGHC@1?$DL?$AA@
	DD	FLAT:_P_semicolon
	DD	FLAT:??_C@_0L@FBPCDAOB@0IMMEDIATE?$AA@
	DD	FLAT:_P_immediate
	DD	FLAT:??_C@_02HMFICNNF@1?$FL?$AA@
	DD	FLAT:_P_lbrack
	DD	FLAT:??_C@_02CLMAOAGE@0?$FN?$AA@
	DD	FLAT:_P_rbrack
	DD	FLAT:??_C@_07HOLFGALO@0CREATE?$AA@
	DD	FLAT:_P_create
	DD	FLAT:??_C@_07CKFDKAEF@0FORGET?$AA@
	DD	FLAT:_P_forget
	DD	FLAT:??_C@_06HGPCBKK@0DOES?$DO?$AA@
	DD	FLAT:_P_does
	DD	FLAT:??_C@_02POBAHBBI@0?8?$AA@
	DD	FLAT:_P_tick
	DD	FLAT:??_C@_04ILIHGCAL@1?$FL?8?$FN?$AA@
	DD	FLAT:_P_bracktick
	DD	FLAT:??_C@_08BMCODLCA@0EXECUTE?$AA@
	DD	FLAT:_P_execute
	DD	FLAT:??_C@_06JCOGDEN@0?$DOBODY?$AA@
	DD	FLAT:_P_body
	DD	FLAT:??_C@_06EIGKJEPF@0STATE?$AA@
	DD	FLAT:_P_state
	DD	FLAT:??_C@_05JFPJMJGE@0FIND?$AA@
	DD	FLAT:_P_find
	DD	FLAT:??_C@_06MFKHJPKN@0?$DONAME?$AA@
	DD	FLAT:_P_toname
	DD	FLAT:??_C@_06OGBGHHPF@0?$DOLINK?$AA@
	DD	FLAT:_P_tolink
	DD	FLAT:??_C@_06GEBNCAAE@0BODY?$DO?$AA@
	DD	FLAT:_P_frombody
	DD	FLAT:??_C@_06MENLELIA@0NAME?$DO?$AA@
	DD	FLAT:_P_fromname
	DD	FLAT:??_C@_06KBEICDKO@0LINK?$DO?$AA@
	DD	FLAT:_P_fromlink
	DD	FLAT:??_C@_07CHMCIPOJ@0N?$DOLINK?$AA@
	DD	FLAT:_P_nametolink
	DD	FLAT:??_C@_07JDOMHGJI@0L?$DONAME?$AA@
	DD	FLAT:_P_linktoname
	DD	FLAT:??_C@_08DIOIEBIC@0NAME?$DOS?$CB?$AA@
	DD	FLAT:_P_fetchname
	DD	FLAT:??_C@_08NHEDMBGE@0S?$DONAME?$CB?$AA@
	DD	FLAT:_P_storename
	DD	FLAT:??_C@_0L@PPPNOFDC@1?$FLCOMPILE?$FN?$AA@
	DD	FLAT:_P_brackcompile
	DD	FLAT:??_C@_08MEIBGFMH@1LITERAL?$AA@
	DD	FLAT:_P_literal
	DD	FLAT:??_C@_08LLNBOFDH@0COMPILE?$AA@
	DD	FLAT:_P_compile
	DD	FLAT:??_C@_06EGDGINLF@0?$DMMARK?$AA@
	DD	FLAT:_P_backmark
	DD	FLAT:??_C@_09NJPHDDBE@0?$DMRESOLVE?$AA@
	DD	FLAT:_P_backresolve
	DD	FLAT:??_C@_06LPOCMLO@0?$DOMARK?$AA@
	DD	FLAT:_P_fwdmark
	DD	FLAT:??_C@_09PHABBLJC@0?$DORESOLVE?$AA@
	DD	FLAT:_P_fwdresolve
	DD	FLAT:??_C@_02CPNCMKFB@0?4?$AA@
	DD	FLAT:_P_dot
	DD	FLAT:??_C@_02HMALOJEB@0?$DP?$AA@
	DD	FLAT:_P_question
	DD	FLAT:??_C@_03NEMBNEAN@0CR?$AA@
	DD	FLAT:_P_cr
	DD	FLAT:??_C@_03INNFLNDP@0?4S?$AA@
	DD	FLAT:_P_dots
	DD	FLAT:??_C@_03DENJCON@1?4?$CC?$AA@
	DD	FLAT:_P_dotquote
	DD	FLAT:??_C@_03PJKCHKGH@1?4?$CI?$AA@
	DD	FLAT:_P_dotparen
	DD	FLAT:??_C@_05NAGDOFCC@0TYPE?$AA@
	DD	FLAT:_P_type
	DD	FLAT:??_C@_06IGNJJOKG@0WORDS?$AA@
	DD	FLAT:_P_words
	DD	FLAT:??_C@_05IPGGCMEL@0FILE?$AA@
	DD	FLAT:_P_file
	DD	FLAT:??_C@_06BKPEIBDI@0FOPEN?$AA@
	DD	FLAT:_P_fopen
	DD	FLAT:??_C@_07MIHJNOA@0FCLOSE?$AA@
	DD	FLAT:_P_fclose
	DD	FLAT:??_C@_08OAJGAKDH@0FDELETE?$AA@
	DD	FLAT:_P_fdelete
	DD	FLAT:??_C@_06KPMLMIAP@0FGETS?$AA@
	DD	FLAT:_P_fgetline
	DD	FLAT:??_C@_06CNBCNEAC@0FPUTS?$AA@
	DD	FLAT:_P_fputline
	DD	FLAT:??_C@_06BIKFDFPA@0FREAD?$AA@
	DD	FLAT:_P_fread
	DD	FLAT:??_C@_07GLDELNNH@0FWRITE?$AA@
	DD	FLAT:_P_fwrite
	DD	FLAT:??_C@_06OFAJNKFO@0FGETC?$AA@
	DD	FLAT:_P_fgetc
	DD	FLAT:??_C@_06GHNAMGFD@0FPUTC?$AA@
	DD	FLAT:_P_fputc
	DD	FLAT:??_C@_06FHOENJAL@0FTELL?$AA@
	DD	FLAT:_P_ftell
	DD	FLAT:??_C@_06KFFEKIFD@0FSEEK?$AA@
	DD	FLAT:_P_fseek
	DD	FLAT:??_C@_06KIMIPMHH@0FLOAD?$AA@
	DD	FLAT:_P_fload
	DD	FLAT:??_C@_09NMMMFPKN@0EVALUATE?$AA@
	DD	FLAT:_P_evaluate
	DD	00H
	DD	00H
?stdfiles@?8??atl_init@@9@9 DD FLAT:??_C@_05MHDFGKA@STDIN?$AA@ ; `atl_init'::`9'::stdfiles
	DD	00H
	DD	FLAT:??_C@_06DNBFFLKD@STDOUT?$AA@
	DD	00H
	DD	FLAT:??_C@_06BLNAKME@STDERR?$AA@
	DD	00H
?proname@?1??atl_prologue@@9@9 DD FLAT:??_C@_06OCMIFJOD@STACK?5?$AA@ ; `atl_prologue'::`2'::proname
	DD	FLAT:_atl_stklen
	DD	FLAT:??_C@_07NIFKNEP@RSTACK?5?$AA@
	DD	FLAT:_atl_rstklen
	DD	FLAT:??_C@_05OHLFDECO@HEAP?5?$AA@
	DD	FLAT:_atl_heaplen
	DD	FLAT:??_C@_09GDELENAF@TEMPSTRL?5?$AA@
	DD	FLAT:_atl_ltempstr
	DD	FLAT:??_C@_09GAMPJJGL@TEMPSTRN?5?$AA@
	DD	FLAT:_atl_ntempstr
_DATA	ENDS
PUBLIC	_getopt
EXTRN	__RTC_CheckEsp:PROC
EXTRN	__RTC_Shutdown:PROC
EXTRN	__RTC_InitBase:PROC
;	COMDAT rtc$TMZ
; File c:\a15\facultate\forth\atlast-2.0\getopt.h
rtc$TMZ	SEGMENT
__RTC_Shutdown.rtc$TMZ DD FLAT:__RTC_Shutdown
rtc$TMZ	ENDS
;	COMDAT rtc$IMZ
rtc$IMZ	SEGMENT
__RTC_InitBase.rtc$IMZ DD FLAT:__RTC_InitBase
; Function compile flags: /Odtp /RTCsu /ZI
rtc$IMZ	ENDS
;	COMDAT _getopt
_TEXT	SEGMENT
_nargc$ = 8						; size = 4
_nargv$ = 12						; size = 4
_options$ = 16						; size = 4
_getopt	PROC						; COMDAT

; 222  : {

  00000	55		 push	 ebp
  00001	8b ec		 mov	 ebp, esp
  00003	81 ec c0 00 00
	00		 sub	 esp, 192		; 000000c0H
  00009	53		 push	 ebx
  0000a	56		 push	 esi
  0000b	57		 push	 edi
  0000c	8d bd 40 ff ff
	ff		 lea	 edi, DWORD PTR [ebp-192]
  00012	b9 30 00 00 00	 mov	 ecx, 48			; 00000030H
  00017	b8 cc cc cc cc	 mov	 eax, -858993460		; ccccccccH
  0001c	f3 ab		 rep stosd

; 223  : 
; 224  : 	/*
; 225  : 	 * We don't pass FLAG_PERMUTE to getopt_internal() since
; 226  : 	 * the BSD getopt(3) (unlike GNU) has never done this.
; 227  : 	 *
; 228  : 	 * Furthermore, since many privileged programs call getopt()
; 229  : 	 * before dropping privileges it makes sense to keep things
; 230  : 	 * as simple (and bug-free) as possible.
; 231  : 	 */
; 232  : 	return (getopt_internal(nargc, nargv, options, NULL, NULL, 0));

  0001e	6a 00		 push	 0
  00020	6a 00		 push	 0
  00022	6a 00		 push	 0
  00024	8b 45 10	 mov	 eax, DWORD PTR _options$[ebp]
  00027	50		 push	 eax
  00028	8b 4d 0c	 mov	 ecx, DWORD PTR _nargv$[ebp]
  0002b	51		 push	 ecx
  0002c	8b 55 08	 mov	 edx, DWORD PTR _nargc$[ebp]
  0002f	52		 push	 edx
  00030	e8 00 00 00 00	 call	 _getopt_internal
  00035	83 c4 18	 add	 esp, 24			; 00000018H

; 233  : }

  00038	5f		 pop	 edi
  00039	5e		 pop	 esi
  0003a	5b		 pop	 ebx
  0003b	81 c4 c0 00 00
	00		 add	 esp, 192		; 000000c0H
  00041	3b ec		 cmp	 ebp, esp
  00043	e8 00 00 00 00	 call	 __RTC_CheckEsp
  00048	8b e5		 mov	 esp, ebp
  0004a	5d		 pop	 ebp
  0004b	c3		 ret	 0
_getopt	ENDP
_TEXT	ENDS
PUBLIC	??_C@_0BA@DMNGMDNL@POSIXLY_CORRECT?$AA@		; `string'
EXTRN	__imp__strchr:PROC
EXTRN	__imp__getenv:PROC
;	COMDAT ??_C@_0BA@DMNGMDNL@POSIXLY_CORRECT?$AA@
CONST	SEGMENT
??_C@_0BA@DMNGMDNL@POSIXLY_CORRECT?$AA@ DB 'POSIXLY_CORRECT', 00H ; `string'
; Function compile flags: /Odtp /RTCsu /ZI
CONST	ENDS
;	COMDAT _getopt_internal
_TEXT	SEGMENT
tv203 = -232						; size = 4
_short_too$ = -32					; size = 4
_optchar$ = -20						; size = 4
_oli$ = -8						; size = 4
_nargc$ = 8						; size = 4
_nargv$ = 12						; size = 4
_options$ = 16						; size = 4
_long_options$ = 20					; size = 4
_idx$ = 24						; size = 4
_flags$ = 28						; size = 4
_getopt_internal PROC					; COMDAT

; 420  : {

  00000	55		 push	 ebp
  00001	8b ec		 mov	 ebp, esp
  00003	81 ec e8 00 00
	00		 sub	 esp, 232		; 000000e8H
  00009	53		 push	 ebx
  0000a	56		 push	 esi
  0000b	57		 push	 edi
  0000c	8d bd 18 ff ff
	ff		 lea	 edi, DWORD PTR [ebp-232]
  00012	b9 3a 00 00 00	 mov	 ecx, 58			; 0000003aH
  00017	b8 cc cc cc cc	 mov	 eax, -858993460		; ccccccccH
  0001c	f3 ab		 rep stosd

; 421  : 	char *oli;				/* option letter list index */
; 422  : 	int optchar, short_too;
; 423  : 	static int posixly_correct = -1;
; 424  : 
; 425  : 	if (options == NULL)

  0001e	83 7d 10 00	 cmp	 DWORD PTR _options$[ebp], 0
  00022	75 08		 jne	 SHORT $LN54@getopt_int

; 426  : 		return (-1);

  00024	83 c8 ff	 or	 eax, -1
  00027	e9 c6 06 00 00	 jmp	 $LN55@getopt_int
$LN54@getopt_int:

; 427  : 
; 428  : 	/*
; 429  : 	 * XXX Some GNU programs (like cvs) set optind to 0 instead of
; 430  : 	 * XXX using optreset.  Work around this braindamage.
; 431  : 	 */
; 432  : 	if (optind == 0)

  0002c	83 3d 00 00 00
	00 00		 cmp	 DWORD PTR _optind, 0
  00033	75 14		 jne	 SHORT $LN53@getopt_int

; 433  : 		optind = optreset = 1;

  00035	c7 05 00 00 00
	00 01 00 00 00	 mov	 DWORD PTR ___mingw_optreset, 1
  0003f	a1 00 00 00 00	 mov	 eax, DWORD PTR ___mingw_optreset
  00044	a3 00 00 00 00	 mov	 DWORD PTR _optind, eax
$LN53@getopt_int:

; 434  : 
; 435  : 	/*
; 436  : 	 * Disable GNU extensions if POSIXLY_CORRECT is set or options
; 437  : 	 * string begins with a '+'.
; 438  : 	 *
; 439  : 	 * CV, 2009-12-14: Check POSIXLY_CORRECT anew if optind == 0 or
; 440  : 	 *                 optreset != 0 for GNU compatibility.
; 441  : 	 */
; 442  : 	if (posixly_correct == -1 || optreset != 0)

  00049	83 3d 00 00 00
	00 ff		 cmp	 DWORD PTR ?posixly_correct@?1??getopt_internal@@9@9, -1
  00050	74 09		 je	 SHORT $LN51@getopt_int
  00052	83 3d 00 00 00
	00 00		 cmp	 DWORD PTR ___mingw_optreset, 0
  00059	74 22		 je	 SHORT $LN52@getopt_int
$LN51@getopt_int:

; 443  : 		posixly_correct = (getenv("POSIXLY_CORRECT") != NULL);

  0005b	8b f4		 mov	 esi, esp
  0005d	68 00 00 00 00	 push	 OFFSET ??_C@_0BA@DMNGMDNL@POSIXLY_CORRECT?$AA@
  00062	ff 15 00 00 00
	00		 call	 DWORD PTR __imp__getenv
  00068	83 c4 04	 add	 esp, 4
  0006b	3b f4		 cmp	 esi, esp
  0006d	e8 00 00 00 00	 call	 __RTC_CheckEsp
  00072	f7 d8		 neg	 eax
  00074	1b c0		 sbb	 eax, eax
  00076	f7 d8		 neg	 eax
  00078	a3 00 00 00 00	 mov	 DWORD PTR ?posixly_correct@?1??getopt_internal@@9@9, eax
$LN52@getopt_int:

; 444  : 	if (*options == '-')

  0007d	8b 45 10	 mov	 eax, DWORD PTR _options$[ebp]
  00080	0f be 08	 movsx	 ecx, BYTE PTR [eax]
  00083	83 f9 2d	 cmp	 ecx, 45			; 0000002dH
  00086	75 0b		 jne	 SHORT $LN50@getopt_int

; 445  : 		flags |= FLAG_ALLARGS;

  00088	8b 45 1c	 mov	 eax, DWORD PTR _flags$[ebp]
  0008b	83 c8 02	 or	 eax, 2
  0008e	89 45 1c	 mov	 DWORD PTR _flags$[ebp], eax
  00091	eb 1d		 jmp	 SHORT $LN49@getopt_int
$LN50@getopt_int:

; 446  : 	else if (posixly_correct || *options == '+')

  00093	83 3d 00 00 00
	00 00		 cmp	 DWORD PTR ?posixly_correct@?1??getopt_internal@@9@9, 0
  0009a	75 0b		 jne	 SHORT $LN47@getopt_int
  0009c	8b 45 10	 mov	 eax, DWORD PTR _options$[ebp]
  0009f	0f be 08	 movsx	 ecx, BYTE PTR [eax]
  000a2	83 f9 2b	 cmp	 ecx, 43			; 0000002bH
  000a5	75 09		 jne	 SHORT $LN49@getopt_int
$LN47@getopt_int:

; 447  : 		flags &= ~FLAG_PERMUTE;

  000a7	8b 45 1c	 mov	 eax, DWORD PTR _flags$[ebp]
  000aa	83 e0 fe	 and	 eax, -2			; fffffffeH
  000ad	89 45 1c	 mov	 DWORD PTR _flags$[ebp], eax
$LN49@getopt_int:

; 448  : 	if (*options == '+' || *options == '-')

  000b0	8b 45 10	 mov	 eax, DWORD PTR _options$[ebp]
  000b3	0f be 08	 movsx	 ecx, BYTE PTR [eax]
  000b6	83 f9 2b	 cmp	 ecx, 43			; 0000002bH
  000b9	74 0b		 je	 SHORT $LN45@getopt_int
  000bb	8b 45 10	 mov	 eax, DWORD PTR _options$[ebp]
  000be	0f be 08	 movsx	 ecx, BYTE PTR [eax]
  000c1	83 f9 2d	 cmp	 ecx, 45			; 0000002dH
  000c4	75 09		 jne	 SHORT $LN46@getopt_int
$LN45@getopt_int:

; 449  : 		options++;

  000c6	8b 45 10	 mov	 eax, DWORD PTR _options$[ebp]
  000c9	83 c0 01	 add	 eax, 1
  000cc	89 45 10	 mov	 DWORD PTR _options$[ebp], eax
$LN46@getopt_int:

; 450  : 
; 451  : 	optarg = NULL;

  000cf	c7 05 00 00 00
	00 00 00 00 00	 mov	 DWORD PTR _optarg, 0

; 452  : 	if (optreset)

  000d9	83 3d 00 00 00
	00 00		 cmp	 DWORD PTR ___mingw_optreset, 0
  000e0	74 14		 je	 SHORT $start$82039

; 453  : 		nonopt_start = nonopt_end = -1;

  000e2	c7 05 00 00 00
	00 ff ff ff ff	 mov	 DWORD PTR _nonopt_end, -1
  000ec	a1 00 00 00 00	 mov	 eax, DWORD PTR _nonopt_end
  000f1	a3 00 00 00 00	 mov	 DWORD PTR _nonopt_start, eax
$start$82039:

; 454  : start:
; 455  : 	if (optreset || !*place) {		/* update scanning pointer */

  000f6	83 3d 00 00 00
	00 00		 cmp	 DWORD PTR ___mingw_optreset, 0
  000fd	75 10		 jne	 SHORT $LN42@getopt_int
  000ff	a1 00 00 00 00	 mov	 eax, DWORD PTR _place
  00104	0f be 08	 movsx	 ecx, BYTE PTR [eax]
  00107	85 c9		 test	 ecx, ecx
  00109	0f 85 6b 02 00
	00		 jne	 $LN43@getopt_int
$LN42@getopt_int:

; 456  : 		optreset = 0;

  0010f	c7 05 00 00 00
	00 00 00 00 00	 mov	 DWORD PTR ___mingw_optreset, 0

; 457  : 		if (optind >= nargc) {          /* end of argument vector */

  00119	a1 00 00 00 00	 mov	 eax, DWORD PTR _optind
  0011e	3b 45 08	 cmp	 eax, DWORD PTR _nargc$[ebp]
  00121	7c 7d		 jl	 SHORT $LN41@getopt_int

; 458  : 			place = EMSG;

  00123	c7 05 00 00 00
	00 00 00 00 00	 mov	 DWORD PTR _place, OFFSET ??_C@_00CNPNBAHC@?$AA@

; 459  : 			if (nonopt_end != -1) {

  0012d	83 3d 00 00 00
	00 ff		 cmp	 DWORD PTR _nonopt_end, -1
  00134	74 3b		 je	 SHORT $LN40@getopt_int

; 460  : 				/* do permutation, if we have to */
; 461  : 				permute_args(nonopt_start, nonopt_end,
; 462  : 				    optind, nargv);

  00136	8b 45 0c	 mov	 eax, DWORD PTR _nargv$[ebp]
  00139	50		 push	 eax
  0013a	8b 0d 00 00 00
	00		 mov	 ecx, DWORD PTR _optind
  00140	51		 push	 ecx
  00141	8b 15 00 00 00
	00		 mov	 edx, DWORD PTR _nonopt_end
  00147	52		 push	 edx
  00148	a1 00 00 00 00	 mov	 eax, DWORD PTR _nonopt_start
  0014d	50		 push	 eax
  0014e	e8 00 00 00 00	 call	 _permute_args
  00153	83 c4 10	 add	 esp, 16			; 00000010H

; 463  : 				optind -= nonopt_end - nonopt_start;

  00156	a1 00 00 00 00	 mov	 eax, DWORD PTR _nonopt_end
  0015b	2b 05 00 00 00
	00		 sub	 eax, DWORD PTR _nonopt_start
  00161	8b 0d 00 00 00
	00		 mov	 ecx, DWORD PTR _optind
  00167	2b c8		 sub	 ecx, eax
  00169	89 0d 00 00 00
	00		 mov	 DWORD PTR _optind, ecx
  0016f	eb 13		 jmp	 SHORT $LN39@getopt_int
$LN40@getopt_int:

; 464  : 			}
; 465  : 			else if (nonopt_start != -1) {

  00171	83 3d 00 00 00
	00 ff		 cmp	 DWORD PTR _nonopt_start, -1
  00178	74 0a		 je	 SHORT $LN39@getopt_int

; 466  : 				/*
; 467  : 				 * If we skipped non-options, set optind
; 468  : 				 * to the first of them.
; 469  : 				 */
; 470  : 				optind = nonopt_start;

  0017a	a1 00 00 00 00	 mov	 eax, DWORD PTR _nonopt_start
  0017f	a3 00 00 00 00	 mov	 DWORD PTR _optind, eax
$LN39@getopt_int:

; 471  : 			}
; 472  : 			nonopt_start = nonopt_end = -1;

  00184	c7 05 00 00 00
	00 ff ff ff ff	 mov	 DWORD PTR _nonopt_end, -1
  0018e	a1 00 00 00 00	 mov	 eax, DWORD PTR _nonopt_end
  00193	a3 00 00 00 00	 mov	 DWORD PTR _nonopt_start, eax

; 473  : 			return (-1);

  00198	83 c8 ff	 or	 eax, -1
  0019b	e9 52 05 00 00	 jmp	 $LN55@getopt_int
$LN41@getopt_int:

; 474  : 		}
; 475  : 		if (*(place = nargv[optind]) != '-' ||
; 476  : 		    (place[1] == '\0' && strchr(options, '-') == NULL)) {

  001a0	a1 00 00 00 00	 mov	 eax, DWORD PTR _optind
  001a5	8b 4d 0c	 mov	 ecx, DWORD PTR _nargv$[ebp]
  001a8	8b 14 81	 mov	 edx, DWORD PTR [ecx+eax*4]
  001ab	89 15 00 00 00
	00		 mov	 DWORD PTR _place, edx
  001b1	a1 00 00 00 00	 mov	 eax, DWORD PTR _place
  001b6	0f be 08	 movsx	 ecx, BYTE PTR [eax]
  001b9	83 f9 2d	 cmp	 ecx, 45			; 0000002dH
  001bc	75 31		 jne	 SHORT $LN36@getopt_int
  001be	a1 00 00 00 00	 mov	 eax, DWORD PTR _place
  001c3	0f be 48 01	 movsx	 ecx, BYTE PTR [eax+1]
  001c7	85 c9		 test	 ecx, ecx
  001c9	0f 85 dd 00 00
	00		 jne	 $LN37@getopt_int
  001cf	8b f4		 mov	 esi, esp
  001d1	6a 2d		 push	 45			; 0000002dH
  001d3	8b 45 10	 mov	 eax, DWORD PTR _options$[ebp]
  001d6	50		 push	 eax
  001d7	ff 15 00 00 00
	00		 call	 DWORD PTR __imp__strchr
  001dd	83 c4 08	 add	 esp, 8
  001e0	3b f4		 cmp	 esi, esp
  001e2	e8 00 00 00 00	 call	 __RTC_CheckEsp
  001e7	85 c0		 test	 eax, eax
  001e9	0f 85 bd 00 00
	00		 jne	 $LN37@getopt_int
$LN36@getopt_int:

; 477  : 			place = EMSG;		/* found non-option */

  001ef	c7 05 00 00 00
	00 00 00 00 00	 mov	 DWORD PTR _place, OFFSET ??_C@_00CNPNBAHC@?$AA@

; 478  : 			if (flags & FLAG_ALLARGS) {

  001f9	8b 45 1c	 mov	 eax, DWORD PTR _flags$[ebp]
  001fc	83 e0 02	 and	 eax, 2
  001ff	74 28		 je	 SHORT $LN35@getopt_int

; 479  : 				/*
; 480  : 				 * GNU extension:
; 481  : 				 * return non-option as argument to option 1
; 482  : 				 */
; 483  : 				optarg = nargv[optind++];

  00201	a1 00 00 00 00	 mov	 eax, DWORD PTR _optind
  00206	8b 4d 0c	 mov	 ecx, DWORD PTR _nargv$[ebp]
  00209	8b 14 81	 mov	 edx, DWORD PTR [ecx+eax*4]
  0020c	89 15 00 00 00
	00		 mov	 DWORD PTR _optarg, edx
  00212	a1 00 00 00 00	 mov	 eax, DWORD PTR _optind
  00217	83 c0 01	 add	 eax, 1
  0021a	a3 00 00 00 00	 mov	 DWORD PTR _optind, eax

; 484  : 				return (INORDER);

  0021f	b8 01 00 00 00	 mov	 eax, 1
  00224	e9 c9 04 00 00	 jmp	 $LN55@getopt_int
$LN35@getopt_int:

; 485  : 			}
; 486  : 			if (!(flags & FLAG_PERMUTE)) {

  00229	8b 45 1c	 mov	 eax, DWORD PTR _flags$[ebp]
  0022c	83 e0 01	 and	 eax, 1
  0022f	75 08		 jne	 SHORT $LN34@getopt_int

; 487  : 				/*
; 488  : 				 * If no permutation wanted, stop parsing
; 489  : 				 * at first non-option.
; 490  : 				 */
; 491  : 				return (-1);

  00231	83 c8 ff	 or	 eax, -1
  00234	e9 b9 04 00 00	 jmp	 $LN55@getopt_int
$LN34@getopt_int:

; 492  : 			}
; 493  : 			/* do permutation */
; 494  : 			if (nonopt_start == -1)

  00239	83 3d 00 00 00
	00 ff		 cmp	 DWORD PTR _nonopt_start, -1
  00240	75 0c		 jne	 SHORT $LN33@getopt_int

; 495  : 				nonopt_start = optind;

  00242	a1 00 00 00 00	 mov	 eax, DWORD PTR _optind
  00247	a3 00 00 00 00	 mov	 DWORD PTR _nonopt_start, eax
  0024c	eb 4c		 jmp	 SHORT $LN32@getopt_int
$LN33@getopt_int:

; 496  : 			else if (nonopt_end != -1) {

  0024e	83 3d 00 00 00
	00 ff		 cmp	 DWORD PTR _nonopt_end, -1
  00255	74 43		 je	 SHORT $LN32@getopt_int

; 497  : 				permute_args(nonopt_start, nonopt_end,
; 498  : 				    optind, nargv);

  00257	8b 45 0c	 mov	 eax, DWORD PTR _nargv$[ebp]
  0025a	50		 push	 eax
  0025b	8b 0d 00 00 00
	00		 mov	 ecx, DWORD PTR _optind
  00261	51		 push	 ecx
  00262	8b 15 00 00 00
	00		 mov	 edx, DWORD PTR _nonopt_end
  00268	52		 push	 edx
  00269	a1 00 00 00 00	 mov	 eax, DWORD PTR _nonopt_start
  0026e	50		 push	 eax
  0026f	e8 00 00 00 00	 call	 _permute_args
  00274	83 c4 10	 add	 esp, 16			; 00000010H

; 499  : 				nonopt_start = optind -
; 500  : 				    (nonopt_end - nonopt_start);

  00277	a1 00 00 00 00	 mov	 eax, DWORD PTR _nonopt_end
  0027c	2b 05 00 00 00
	00		 sub	 eax, DWORD PTR _nonopt_start
  00282	8b 0d 00 00 00
	00		 mov	 ecx, DWORD PTR _optind
  00288	2b c8		 sub	 ecx, eax
  0028a	89 0d 00 00 00
	00		 mov	 DWORD PTR _nonopt_start, ecx

; 501  : 				nonopt_end = -1;

  00290	c7 05 00 00 00
	00 ff ff ff ff	 mov	 DWORD PTR _nonopt_end, -1
$LN32@getopt_int:

; 502  : 			}
; 503  : 			optind++;

  0029a	a1 00 00 00 00	 mov	 eax, DWORD PTR _optind
  0029f	83 c0 01	 add	 eax, 1
  002a2	a3 00 00 00 00	 mov	 DWORD PTR _optind, eax

; 504  : 			/* process next argument */
; 505  : 			goto start;

  002a7	e9 4a fe ff ff	 jmp	 $start$82039
$LN37@getopt_int:

; 506  : 		}
; 507  : 		if (nonopt_start != -1 && nonopt_end == -1)

  002ac	83 3d 00 00 00
	00 ff		 cmp	 DWORD PTR _nonopt_start, -1
  002b3	74 13		 je	 SHORT $LN30@getopt_int
  002b5	83 3d 00 00 00
	00 ff		 cmp	 DWORD PTR _nonopt_end, -1
  002bc	75 0a		 jne	 SHORT $LN30@getopt_int

; 508  : 			nonopt_end = optind;

  002be	a1 00 00 00 00	 mov	 eax, DWORD PTR _optind
  002c3	a3 00 00 00 00	 mov	 DWORD PTR _nonopt_end, eax
$LN30@getopt_int:

; 509  : 
; 510  : 		/*
; 511  : 		 * If we have "-" do nothing, if "--" we are done.
; 512  : 		 */
; 513  : 		if (place[1] != '\0' && *++place == '-' && place[1] == '\0') {

  002c8	a1 00 00 00 00	 mov	 eax, DWORD PTR _place
  002cd	0f be 48 01	 movsx	 ecx, BYTE PTR [eax+1]
  002d1	85 c9		 test	 ecx, ecx
  002d3	0f 84 a1 00 00
	00		 je	 $LN43@getopt_int
  002d9	a1 00 00 00 00	 mov	 eax, DWORD PTR _place
  002de	83 c0 01	 add	 eax, 1
  002e1	a3 00 00 00 00	 mov	 DWORD PTR _place, eax
  002e6	8b 0d 00 00 00
	00		 mov	 ecx, DWORD PTR _place
  002ec	0f be 11	 movsx	 edx, BYTE PTR [ecx]
  002ef	83 fa 2d	 cmp	 edx, 45			; 0000002dH
  002f2	0f 85 82 00 00
	00		 jne	 $LN43@getopt_int
  002f8	a1 00 00 00 00	 mov	 eax, DWORD PTR _place
  002fd	0f be 48 01	 movsx	 ecx, BYTE PTR [eax+1]
  00301	85 c9		 test	 ecx, ecx
  00303	75 75		 jne	 SHORT $LN43@getopt_int

; 514  : 			optind++;

  00305	a1 00 00 00 00	 mov	 eax, DWORD PTR _optind
  0030a	83 c0 01	 add	 eax, 1
  0030d	a3 00 00 00 00	 mov	 DWORD PTR _optind, eax

; 515  : 			place = EMSG;

  00312	c7 05 00 00 00
	00 00 00 00 00	 mov	 DWORD PTR _place, OFFSET ??_C@_00CNPNBAHC@?$AA@

; 516  : 			/*
; 517  : 			 * We found an option (--), so if we skipped
; 518  : 			 * non-options, we have to permute.
; 519  : 			 */
; 520  : 			if (nonopt_end != -1) {

  0031c	83 3d 00 00 00
	00 ff		 cmp	 DWORD PTR _nonopt_end, -1
  00323	74 39		 je	 SHORT $LN28@getopt_int

; 521  : 				permute_args(nonopt_start, nonopt_end,
; 522  : 				    optind, nargv);

  00325	8b 45 0c	 mov	 eax, DWORD PTR _nargv$[ebp]
  00328	50		 push	 eax
  00329	8b 0d 00 00 00
	00		 mov	 ecx, DWORD PTR _optind
  0032f	51		 push	 ecx
  00330	8b 15 00 00 00
	00		 mov	 edx, DWORD PTR _nonopt_end
  00336	52		 push	 edx
  00337	a1 00 00 00 00	 mov	 eax, DWORD PTR _nonopt_start
  0033c	50		 push	 eax
  0033d	e8 00 00 00 00	 call	 _permute_args
  00342	83 c4 10	 add	 esp, 16			; 00000010H

; 523  : 				optind -= nonopt_end - nonopt_start;

  00345	a1 00 00 00 00	 mov	 eax, DWORD PTR _nonopt_end
  0034a	2b 05 00 00 00
	00		 sub	 eax, DWORD PTR _nonopt_start
  00350	8b 0d 00 00 00
	00		 mov	 ecx, DWORD PTR _optind
  00356	2b c8		 sub	 ecx, eax
  00358	89 0d 00 00 00
	00		 mov	 DWORD PTR _optind, ecx
$LN28@getopt_int:

; 524  : 			}
; 525  : 			nonopt_start = nonopt_end = -1;

  0035e	c7 05 00 00 00
	00 ff ff ff ff	 mov	 DWORD PTR _nonopt_end, -1
  00368	a1 00 00 00 00	 mov	 eax, DWORD PTR _nonopt_end
  0036d	a3 00 00 00 00	 mov	 DWORD PTR _nonopt_start, eax

; 526  : 			return (-1);

  00372	83 c8 ff	 or	 eax, -1
  00375	e9 78 03 00 00	 jmp	 $LN55@getopt_int
$LN43@getopt_int:

; 527  : 		}
; 528  : 	}
; 529  : 
; 530  : 	/*
; 531  : 	 * Check long options if:
; 532  : 	 *  1) we were passed some
; 533  : 	 *  2) the arg is not just "-"
; 534  : 	 *  3) either the arg starts with -- we are getopt_long_only()
; 535  : 	 */
; 536  : 	if (long_options != NULL && place != nargv[optind] &&
; 537  : 	    (*place == '-' || (flags & FLAG_LONGONLY))) {

  0037a	83 7d 14 00	 cmp	 DWORD PTR _long_options$[ebp], 0
  0037e	0f 84 c1 00 00
	00		 je	 $LN27@getopt_int
  00384	a1 00 00 00 00	 mov	 eax, DWORD PTR _optind
  00389	8b 4d 0c	 mov	 ecx, DWORD PTR _nargv$[ebp]
  0038c	8b 15 00 00 00
	00		 mov	 edx, DWORD PTR _place
  00392	3b 14 81	 cmp	 edx, DWORD PTR [ecx+eax*4]
  00395	0f 84 aa 00 00
	00		 je	 $LN27@getopt_int
  0039b	a1 00 00 00 00	 mov	 eax, DWORD PTR _place
  003a0	0f be 08	 movsx	 ecx, BYTE PTR [eax]
  003a3	83 f9 2d	 cmp	 ecx, 45			; 0000002dH
  003a6	74 0c		 je	 SHORT $LN26@getopt_int
  003a8	8b 45 1c	 mov	 eax, DWORD PTR _flags$[ebp]
  003ab	83 e0 04	 and	 eax, 4
  003ae	0f 84 91 00 00
	00		 je	 $LN27@getopt_int
$LN26@getopt_int:

; 538  : 		short_too = 0;

  003b4	c7 45 e0 00 00
	00 00		 mov	 DWORD PTR _short_too$[ebp], 0

; 539  : 		if (*place == '-')

  003bb	a1 00 00 00 00	 mov	 eax, DWORD PTR _place
  003c0	0f be 08	 movsx	 ecx, BYTE PTR [eax]
  003c3	83 f9 2d	 cmp	 ecx, 45			; 0000002dH
  003c6	75 0f		 jne	 SHORT $LN25@getopt_int

; 540  : 			place++;		/* --foo long option */

  003c8	a1 00 00 00 00	 mov	 eax, DWORD PTR _place
  003cd	83 c0 01	 add	 eax, 1
  003d0	a3 00 00 00 00	 mov	 DWORD PTR _place, eax
  003d5	eb 37		 jmp	 SHORT $LN24@getopt_int
$LN25@getopt_int:

; 541  : 		else if (*place != ':' && strchr(options, *place) != NULL)

  003d7	a1 00 00 00 00	 mov	 eax, DWORD PTR _place
  003dc	0f be 08	 movsx	 ecx, BYTE PTR [eax]
  003df	83 f9 3a	 cmp	 ecx, 58			; 0000003aH
  003e2	74 2a		 je	 SHORT $LN24@getopt_int
  003e4	a1 00 00 00 00	 mov	 eax, DWORD PTR _place
  003e9	0f be 08	 movsx	 ecx, BYTE PTR [eax]
  003ec	8b f4		 mov	 esi, esp
  003ee	51		 push	 ecx
  003ef	8b 55 10	 mov	 edx, DWORD PTR _options$[ebp]
  003f2	52		 push	 edx
  003f3	ff 15 00 00 00
	00		 call	 DWORD PTR __imp__strchr
  003f9	83 c4 08	 add	 esp, 8
  003fc	3b f4		 cmp	 esi, esp
  003fe	e8 00 00 00 00	 call	 __RTC_CheckEsp
  00403	85 c0		 test	 eax, eax
  00405	74 07		 je	 SHORT $LN24@getopt_int

; 542  : 			short_too = 1;		/* could be short option too */

  00407	c7 45 e0 01 00
	00 00		 mov	 DWORD PTR _short_too$[ebp], 1
$LN24@getopt_int:

; 543  : 
; 544  : 		optchar = parse_long_options(nargv, options, long_options,
; 545  : 		    idx, short_too);

  0040e	8b 45 e0	 mov	 eax, DWORD PTR _short_too$[ebp]
  00411	50		 push	 eax
  00412	8b 4d 18	 mov	 ecx, DWORD PTR _idx$[ebp]
  00415	51		 push	 ecx
  00416	8b 55 14	 mov	 edx, DWORD PTR _long_options$[ebp]
  00419	52		 push	 edx
  0041a	8b 45 10	 mov	 eax, DWORD PTR _options$[ebp]
  0041d	50		 push	 eax
  0041e	8b 4d 0c	 mov	 ecx, DWORD PTR _nargv$[ebp]
  00421	51		 push	 ecx
  00422	e8 00 00 00 00	 call	 _parse_long_options
  00427	83 c4 14	 add	 esp, 20			; 00000014H
  0042a	89 45 ec	 mov	 DWORD PTR _optchar$[ebp], eax

; 546  : 		if (optchar != -1) {

  0042d	83 7d ec ff	 cmp	 DWORD PTR _optchar$[ebp], -1
  00431	74 12		 je	 SHORT $LN27@getopt_int

; 547  : 			place = EMSG;

  00433	c7 05 00 00 00
	00 00 00 00 00	 mov	 DWORD PTR _place, OFFSET ??_C@_00CNPNBAHC@?$AA@

; 548  : 			return (optchar);

  0043d	8b 45 ec	 mov	 eax, DWORD PTR _optchar$[ebp]
  00440	e9 ad 02 00 00	 jmp	 $LN55@getopt_int
$LN27@getopt_int:

; 549  : 		}
; 550  : 	}
; 551  : 
; 552  : 	if ((optchar = (int)*place++) == (int)':' ||
; 553  : 	    (optchar == (int)'-' && *place != '\0') ||
; 554  : 	    (oli = (char*)strchr(options, optchar)) == NULL) {

  00445	a1 00 00 00 00	 mov	 eax, DWORD PTR _place
  0044a	0f be 08	 movsx	 ecx, BYTE PTR [eax]
  0044d	89 4d ec	 mov	 DWORD PTR _optchar$[ebp], ecx
  00450	8b 55 ec	 mov	 edx, DWORD PTR _optchar$[ebp]
  00453	a1 00 00 00 00	 mov	 eax, DWORD PTR _place
  00458	83 c0 01	 add	 eax, 1
  0045b	a3 00 00 00 00	 mov	 DWORD PTR _place, eax
  00460	83 fa 3a	 cmp	 edx, 58			; 0000003aH
  00463	75 0c		 jne	 SHORT $LN57@getopt_int
  00465	c7 85 18 ff ff
	ff 01 00 00 00	 mov	 DWORD PTR tv203[ebp], 1
  0046f	eb 0a		 jmp	 SHORT $LN58@getopt_int
$LN57@getopt_int:
  00471	c7 85 18 ff ff
	ff 00 00 00 00	 mov	 DWORD PTR tv203[ebp], 0
$LN58@getopt_int:
  0047b	83 bd 18 ff ff
	ff 00		 cmp	 DWORD PTR tv203[ebp], 0
  00482	75 35		 jne	 SHORT $LN20@getopt_int
  00484	83 7d ec 2d	 cmp	 DWORD PTR _optchar$[ebp], 45 ; 0000002dH
  00488	75 0c		 jne	 SHORT $LN19@getopt_int
  0048a	a1 00 00 00 00	 mov	 eax, DWORD PTR _place
  0048f	0f be 08	 movsx	 ecx, BYTE PTR [eax]
  00492	85 c9		 test	 ecx, ecx
  00494	75 23		 jne	 SHORT $LN20@getopt_int
$LN19@getopt_int:
  00496	8b f4		 mov	 esi, esp
  00498	8b 45 ec	 mov	 eax, DWORD PTR _optchar$[ebp]
  0049b	50		 push	 eax
  0049c	8b 4d 10	 mov	 ecx, DWORD PTR _options$[ebp]
  0049f	51		 push	 ecx
  004a0	ff 15 00 00 00
	00		 call	 DWORD PTR __imp__strchr
  004a6	83 c4 08	 add	 esp, 8
  004a9	3b f4		 cmp	 esi, esp
  004ab	e8 00 00 00 00	 call	 __RTC_CheckEsp
  004b0	89 45 f8	 mov	 DWORD PTR _oli$[ebp], eax
  004b3	83 7d f8 00	 cmp	 DWORD PTR _oli$[ebp], 0
  004b7	75 6a		 jne	 SHORT $LN21@getopt_int
$LN20@getopt_int:

; 555  : 		/*
; 556  : 		 * If the user specified "-" and  '-' isn't listed in
; 557  : 		 * options, return -1 (non-option) as per POSIX.
; 558  : 		 * Otherwise, it is an unknown option character (or ':').
; 559  : 		 */
; 560  : 		if (optchar == (int)'-' && *place == '\0')

  004b9	83 7d ec 2d	 cmp	 DWORD PTR _optchar$[ebp], 45 ; 0000002dH
  004bd	75 14		 jne	 SHORT $LN18@getopt_int
  004bf	a1 00 00 00 00	 mov	 eax, DWORD PTR _place
  004c4	0f be 08	 movsx	 ecx, BYTE PTR [eax]
  004c7	85 c9		 test	 ecx, ecx
  004c9	75 08		 jne	 SHORT $LN18@getopt_int

; 561  : 			return (-1);

  004cb	83 c8 ff	 or	 eax, -1
  004ce	e9 1f 02 00 00	 jmp	 $LN55@getopt_int
$LN18@getopt_int:

; 562  : 		if (!*place)

  004d3	a1 00 00 00 00	 mov	 eax, DWORD PTR _place
  004d8	0f be 08	 movsx	 ecx, BYTE PTR [eax]
  004db	85 c9		 test	 ecx, ecx
  004dd	75 0d		 jne	 SHORT $LN17@getopt_int

; 563  : 			++optind;

  004df	a1 00 00 00 00	 mov	 eax, DWORD PTR _optind
  004e4	83 c0 01	 add	 eax, 1
  004e7	a3 00 00 00 00	 mov	 DWORD PTR _optind, eax
$LN17@getopt_int:

; 564  : 		if (PRINT_ERROR)

  004ec	83 3d 00 00 00
	00 00		 cmp	 DWORD PTR _opterr, 0
  004f3	74 1c		 je	 SHORT $LN16@getopt_int
  004f5	8b 45 10	 mov	 eax, DWORD PTR _options$[ebp]
  004f8	0f be 08	 movsx	 ecx, BYTE PTR [eax]
  004fb	83 f9 3a	 cmp	 ecx, 58			; 0000003aH
  004fe	74 11		 je	 SHORT $LN16@getopt_int

; 565  : 			warnx(illoptchar, optchar);

  00500	8b 45 ec	 mov	 eax, DWORD PTR _optchar$[ebp]
  00503	50		 push	 eax
  00504	68 00 00 00 00	 push	 OFFSET _illoptchar
  00509	e8 00 00 00 00	 call	 _warnx
  0050e	83 c4 08	 add	 esp, 8
$LN16@getopt_int:

; 566  : 		optopt = optchar;

  00511	8b 45 ec	 mov	 eax, DWORD PTR _optchar$[ebp]
  00514	a3 00 00 00 00	 mov	 DWORD PTR _optopt, eax

; 567  : 		return (BADCH);

  00519	b8 3f 00 00 00	 mov	 eax, 63			; 0000003fH
  0051e	e9 cf 01 00 00	 jmp	 $LN55@getopt_int
$LN21@getopt_int:

; 568  : 	}
; 569  : 	if (long_options != NULL && optchar == 'W' && oli[1] == ';') {

  00523	83 7d 14 00	 cmp	 DWORD PTR _long_options$[ebp], 0
  00527	0f 84 d1 00 00
	00		 je	 $LN15@getopt_int
  0052d	83 7d ec 57	 cmp	 DWORD PTR _optchar$[ebp], 87 ; 00000057H
  00531	0f 85 c7 00 00
	00		 jne	 $LN15@getopt_int
  00537	8b 45 f8	 mov	 eax, DWORD PTR _oli$[ebp]
  0053a	0f be 48 01	 movsx	 ecx, BYTE PTR [eax+1]
  0053e	83 f9 3b	 cmp	 ecx, 59			; 0000003bH
  00541	0f 85 b7 00 00
	00		 jne	 $LN15@getopt_int

; 570  : 		/* -W long-option */
; 571  : 		if (*place)			/* no space */

  00547	a1 00 00 00 00	 mov	 eax, DWORD PTR _place
  0054c	0f be 08	 movsx	 ecx, BYTE PTR [eax]
  0054f	85 c9		 test	 ecx, ecx
  00551	74 02		 je	 SHORT $LN14@getopt_int
  00553	eb 7a		 jmp	 SHORT $LN13@getopt_int
$LN14@getopt_int:

; 572  : 			/* NOTHING */;
; 573  : 		else if (++optind >= nargc) {	/* no arg */

  00555	a1 00 00 00 00	 mov	 eax, DWORD PTR _optind
  0055a	83 c0 01	 add	 eax, 1
  0055d	a3 00 00 00 00	 mov	 DWORD PTR _optind, eax
  00562	8b 0d 00 00 00
	00		 mov	 ecx, DWORD PTR _optind
  00568	3b 4d 08	 cmp	 ecx, DWORD PTR _nargc$[ebp]
  0056b	7c 51		 jl	 SHORT $LN12@getopt_int

; 574  : 			place = EMSG;

  0056d	c7 05 00 00 00
	00 00 00 00 00	 mov	 DWORD PTR _place, OFFSET ??_C@_00CNPNBAHC@?$AA@

; 575  : 			if (PRINT_ERROR)

  00577	83 3d 00 00 00
	00 00		 cmp	 DWORD PTR _opterr, 0
  0057e	74 1c		 je	 SHORT $LN11@getopt_int
  00580	8b 45 10	 mov	 eax, DWORD PTR _options$[ebp]
  00583	0f be 08	 movsx	 ecx, BYTE PTR [eax]
  00586	83 f9 3a	 cmp	 ecx, 58			; 0000003aH
  00589	74 11		 je	 SHORT $LN11@getopt_int

; 576  : 				warnx(recargchar, optchar);

  0058b	8b 45 ec	 mov	 eax, DWORD PTR _optchar$[ebp]
  0058e	50		 push	 eax
  0058f	68 00 00 00 00	 push	 OFFSET _recargchar
  00594	e8 00 00 00 00	 call	 _warnx
  00599	83 c4 08	 add	 esp, 8
$LN11@getopt_int:

; 577  : 			optopt = optchar;

  0059c	8b 45 ec	 mov	 eax, DWORD PTR _optchar$[ebp]
  0059f	a3 00 00 00 00	 mov	 DWORD PTR _optopt, eax

; 578  : 			return (BADARG);

  005a4	8b 45 10	 mov	 eax, DWORD PTR _options$[ebp]
  005a7	0f be 00	 movsx	 eax, BYTE PTR [eax]
  005aa	83 e8 3a	 sub	 eax, 58			; 0000003aH
  005ad	f7 d8		 neg	 eax
  005af	1b c0		 sbb	 eax, eax
  005b1	83 e0 05	 and	 eax, 5
  005b4	83 c0 3a	 add	 eax, 58			; 0000003aH
  005b7	e9 36 01 00 00	 jmp	 $LN55@getopt_int

; 579  : 		} else				/* white space */

  005bc	eb 11		 jmp	 SHORT $LN13@getopt_int
$LN12@getopt_int:

; 580  : 			place = nargv[optind];

  005be	a1 00 00 00 00	 mov	 eax, DWORD PTR _optind
  005c3	8b 4d 0c	 mov	 ecx, DWORD PTR _nargv$[ebp]
  005c6	8b 14 81	 mov	 edx, DWORD PTR [ecx+eax*4]
  005c9	89 15 00 00 00
	00		 mov	 DWORD PTR _place, edx
$LN13@getopt_int:

; 581  : 		optchar = parse_long_options(nargv, options, long_options,
; 582  : 		    idx, 0);

  005cf	6a 00		 push	 0
  005d1	8b 45 18	 mov	 eax, DWORD PTR _idx$[ebp]
  005d4	50		 push	 eax
  005d5	8b 4d 14	 mov	 ecx, DWORD PTR _long_options$[ebp]
  005d8	51		 push	 ecx
  005d9	8b 55 10	 mov	 edx, DWORD PTR _options$[ebp]
  005dc	52		 push	 edx
  005dd	8b 45 0c	 mov	 eax, DWORD PTR _nargv$[ebp]
  005e0	50		 push	 eax
  005e1	e8 00 00 00 00	 call	 _parse_long_options
  005e6	83 c4 14	 add	 esp, 20			; 00000014H
  005e9	89 45 ec	 mov	 DWORD PTR _optchar$[ebp], eax

; 583  : 		place = EMSG;

  005ec	c7 05 00 00 00
	00 00 00 00 00	 mov	 DWORD PTR _place, OFFSET ??_C@_00CNPNBAHC@?$AA@

; 584  : 		return (optchar);

  005f6	8b 45 ec	 mov	 eax, DWORD PTR _optchar$[ebp]
  005f9	e9 f4 00 00 00	 jmp	 $LN55@getopt_int
$LN15@getopt_int:

; 585  : 	}
; 586  : 	if (*++oli != ':') {			/* doesn't take argument */

  005fe	8b 45 f8	 mov	 eax, DWORD PTR _oli$[ebp]
  00601	83 c0 01	 add	 eax, 1
  00604	89 45 f8	 mov	 DWORD PTR _oli$[ebp], eax
  00607	8b 4d f8	 mov	 ecx, DWORD PTR _oli$[ebp]
  0060a	0f be 11	 movsx	 edx, BYTE PTR [ecx]
  0060d	83 fa 3a	 cmp	 edx, 58			; 0000003aH
  00610	74 1e		 je	 SHORT $LN9@getopt_int

; 587  : 		if (!*place)

  00612	a1 00 00 00 00	 mov	 eax, DWORD PTR _place
  00617	0f be 08	 movsx	 ecx, BYTE PTR [eax]
  0061a	85 c9		 test	 ecx, ecx
  0061c	75 0d		 jne	 SHORT $LN8@getopt_int

; 588  : 			++optind;

  0061e	a1 00 00 00 00	 mov	 eax, DWORD PTR _optind
  00623	83 c0 01	 add	 eax, 1
  00626	a3 00 00 00 00	 mov	 DWORD PTR _optind, eax
$LN8@getopt_int:

; 589  : 	} else {				/* takes (optional) argument */

  0062b	e9 bf 00 00 00	 jmp	 $LN7@getopt_int
$LN9@getopt_int:

; 590  : 		optarg = NULL;

  00630	c7 05 00 00 00
	00 00 00 00 00	 mov	 DWORD PTR _optarg, 0

; 591  : 		if (*place)			/* no white space */

  0063a	a1 00 00 00 00	 mov	 eax, DWORD PTR _place
  0063f	0f be 08	 movsx	 ecx, BYTE PTR [eax]
  00642	85 c9		 test	 ecx, ecx
  00644	74 0f		 je	 SHORT $LN6@getopt_int

; 592  : 			optarg = place;

  00646	a1 00 00 00 00	 mov	 eax, DWORD PTR _place
  0064b	a3 00 00 00 00	 mov	 DWORD PTR _optarg, eax
  00650	e9 83 00 00 00	 jmp	 $LN5@getopt_int
$LN6@getopt_int:

; 593  : 		else if (oli[1] != ':') {	/* arg not optional */

  00655	8b 45 f8	 mov	 eax, DWORD PTR _oli$[ebp]
  00658	0f be 48 01	 movsx	 ecx, BYTE PTR [eax+1]
  0065c	83 f9 3a	 cmp	 ecx, 58			; 0000003aH
  0065f	74 77		 je	 SHORT $LN5@getopt_int

; 594  : 			if (++optind >= nargc) {	/* no arg */

  00661	a1 00 00 00 00	 mov	 eax, DWORD PTR _optind
  00666	83 c0 01	 add	 eax, 1
  00669	a3 00 00 00 00	 mov	 DWORD PTR _optind, eax
  0066e	8b 0d 00 00 00
	00		 mov	 ecx, DWORD PTR _optind
  00674	3b 4d 08	 cmp	 ecx, DWORD PTR _nargc$[ebp]
  00677	7c 4e		 jl	 SHORT $LN3@getopt_int

; 595  : 				place = EMSG;

  00679	c7 05 00 00 00
	00 00 00 00 00	 mov	 DWORD PTR _place, OFFSET ??_C@_00CNPNBAHC@?$AA@

; 596  : 				if (PRINT_ERROR)

  00683	83 3d 00 00 00
	00 00		 cmp	 DWORD PTR _opterr, 0
  0068a	74 1c		 je	 SHORT $LN2@getopt_int
  0068c	8b 45 10	 mov	 eax, DWORD PTR _options$[ebp]
  0068f	0f be 08	 movsx	 ecx, BYTE PTR [eax]
  00692	83 f9 3a	 cmp	 ecx, 58			; 0000003aH
  00695	74 11		 je	 SHORT $LN2@getopt_int

; 597  : 					warnx(recargchar, optchar);

  00697	8b 45 ec	 mov	 eax, DWORD PTR _optchar$[ebp]
  0069a	50		 push	 eax
  0069b	68 00 00 00 00	 push	 OFFSET _recargchar
  006a0	e8 00 00 00 00	 call	 _warnx
  006a5	83 c4 08	 add	 esp, 8
$LN2@getopt_int:

; 598  : 				optopt = optchar;

  006a8	8b 45 ec	 mov	 eax, DWORD PTR _optchar$[ebp]
  006ab	a3 00 00 00 00	 mov	 DWORD PTR _optopt, eax

; 599  : 				return (BADARG);

  006b0	8b 45 10	 mov	 eax, DWORD PTR _options$[ebp]
  006b3	0f be 00	 movsx	 eax, BYTE PTR [eax]
  006b6	83 e8 3a	 sub	 eax, 58			; 0000003aH
  006b9	f7 d8		 neg	 eax
  006bb	1b c0		 sbb	 eax, eax
  006bd	83 e0 05	 and	 eax, 5
  006c0	83 c0 3a	 add	 eax, 58			; 0000003aH
  006c3	eb 2d		 jmp	 SHORT $LN55@getopt_int

; 600  : 			} else

  006c5	eb 11		 jmp	 SHORT $LN5@getopt_int
$LN3@getopt_int:

; 601  : 				optarg = nargv[optind];

  006c7	a1 00 00 00 00	 mov	 eax, DWORD PTR _optind
  006cc	8b 4d 0c	 mov	 ecx, DWORD PTR _nargv$[ebp]
  006cf	8b 14 81	 mov	 edx, DWORD PTR [ecx+eax*4]
  006d2	89 15 00 00 00
	00		 mov	 DWORD PTR _optarg, edx
$LN5@getopt_int:

; 602  : 		}
; 603  : 		place = EMSG;

  006d8	c7 05 00 00 00
	00 00 00 00 00	 mov	 DWORD PTR _place, OFFSET ??_C@_00CNPNBAHC@?$AA@

; 604  : 		++optind;

  006e2	a1 00 00 00 00	 mov	 eax, DWORD PTR _optind
  006e7	83 c0 01	 add	 eax, 1
  006ea	a3 00 00 00 00	 mov	 DWORD PTR _optind, eax
$LN7@getopt_int:

; 605  : 	}
; 606  : 	/* dump back option letter */
; 607  : 	return (optchar);

  006ef	8b 45 ec	 mov	 eax, DWORD PTR _optchar$[ebp]
$LN55@getopt_int:

; 608  : }

  006f2	5f		 pop	 edi
  006f3	5e		 pop	 esi
  006f4	5b		 pop	 ebx
  006f5	81 c4 e8 00 00
	00		 add	 esp, 232		; 000000e8H
  006fb	3b ec		 cmp	 ebp, esp
  006fd	e8 00 00 00 00	 call	 __RTC_CheckEsp
  00702	8b e5		 mov	 esp, ebp
  00704	5d		 pop	 ebp
  00705	c3		 ret	 0
_getopt_internal ENDP
; Function compile flags: /Odtp /RTCsu /ZI
_TEXT	ENDS
;	COMDAT _warnx
_TEXT	SEGMENT
_ap$ = -8						; size = 4
_fmt$ = 8						; size = 4
_warnx	PROC						; COMDAT

; 151  : {

  00000	55		 push	 ebp
  00001	8b ec		 mov	 ebp, esp
  00003	81 ec cc 00 00
	00		 sub	 esp, 204		; 000000ccH
  00009	53		 push	 ebx
  0000a	56		 push	 esi
  0000b	57		 push	 edi
  0000c	8d bd 34 ff ff
	ff		 lea	 edi, DWORD PTR [ebp-204]
  00012	b9 33 00 00 00	 mov	 ecx, 51			; 00000033H
  00017	b8 cc cc cc cc	 mov	 eax, -858993460		; ccccccccH
  0001c	f3 ab		 rep stosd

; 152  :   va_list ap;
; 153  :   va_start(ap,fmt);

  0001e	8d 45 0c	 lea	 eax, DWORD PTR _fmt$[ebp+4]
  00021	89 45 f8	 mov	 DWORD PTR _ap$[ebp], eax

; 154  :   _vwarnx(fmt,ap);

  00024	8b 45 f8	 mov	 eax, DWORD PTR _ap$[ebp]
  00027	50		 push	 eax
  00028	8b 4d 08	 mov	 ecx, DWORD PTR _fmt$[ebp]
  0002b	51		 push	 ecx
  0002c	e8 00 00 00 00	 call	 __vwarnx
  00031	83 c4 08	 add	 esp, 8

; 155  :   va_end(ap);

  00034	c7 45 f8 00 00
	00 00		 mov	 DWORD PTR _ap$[ebp], 0

; 156  : }

  0003b	5f		 pop	 edi
  0003c	5e		 pop	 esi
  0003d	5b		 pop	 ebx
  0003e	81 c4 cc 00 00
	00		 add	 esp, 204		; 000000ccH
  00044	3b ec		 cmp	 ebp, esp
  00046	e8 00 00 00 00	 call	 __RTC_CheckEsp
  0004b	8b e5		 mov	 esp, ebp
  0004d	5d		 pop	 ebp
  0004e	c3		 ret	 0
_warnx	ENDP
_TEXT	ENDS
PUBLIC	??_C@_01EEMJAFIK@?6?$AA@			; `string'
PUBLIC	??_C@_04PFAOODAA@?$CFs?3?5?$AA@			; `string'
EXTRN	__imp__vfprintf:PROC
EXTRN	__imp__fprintf:PROC
EXTRN	__imp____iob_func:PROC
EXTRN	__imp____argv:DWORD
;	COMDAT ??_C@_01EEMJAFIK@?6?$AA@
CONST	SEGMENT
??_C@_01EEMJAFIK@?6?$AA@ DB 0aH, 00H			; `string'
CONST	ENDS
;	COMDAT ??_C@_04PFAOODAA@?$CFs?3?5?$AA@
CONST	SEGMENT
??_C@_04PFAOODAA@?$CFs?3?5?$AA@ DB '%s: ', 00H		; `string'
; Function compile flags: /Odtp /RTCsu /ZI
CONST	ENDS
;	COMDAT __vwarnx
_TEXT	SEGMENT
_fmt$ = 8						; size = 4
_ap$ = 12						; size = 4
__vwarnx PROC						; COMDAT

; 142  : {

  00000	55		 push	 ebp
  00001	8b ec		 mov	 ebp, esp
  00003	81 ec c0 00 00
	00		 sub	 esp, 192		; 000000c0H
  00009	53		 push	 ebx
  0000a	56		 push	 esi
  0000b	57		 push	 edi
  0000c	8d bd 40 ff ff
	ff		 lea	 edi, DWORD PTR [ebp-192]
  00012	b9 30 00 00 00	 mov	 ecx, 48			; 00000030H
  00017	b8 cc cc cc cc	 mov	 eax, -858993460		; ccccccccH
  0001c	f3 ab		 rep stosd

; 143  :   (void)fprintf(stderr,"%s: ",__progname);

  0001e	a1 00 00 00 00	 mov	 eax, DWORD PTR __imp____argv
  00023	8b 08		 mov	 ecx, DWORD PTR [eax]
  00025	8b f4		 mov	 esi, esp
  00027	8b 11		 mov	 edx, DWORD PTR [ecx]
  00029	52		 push	 edx
  0002a	68 00 00 00 00	 push	 OFFSET ??_C@_04PFAOODAA@?$CFs?3?5?$AA@
  0002f	8b fc		 mov	 edi, esp
  00031	ff 15 00 00 00
	00		 call	 DWORD PTR __imp____iob_func
  00037	3b fc		 cmp	 edi, esp
  00039	e8 00 00 00 00	 call	 __RTC_CheckEsp
  0003e	83 c0 40	 add	 eax, 64			; 00000040H
  00041	50		 push	 eax
  00042	ff 15 00 00 00
	00		 call	 DWORD PTR __imp__fprintf
  00048	83 c4 0c	 add	 esp, 12			; 0000000cH
  0004b	3b f4		 cmp	 esi, esp
  0004d	e8 00 00 00 00	 call	 __RTC_CheckEsp

; 144  :   if (fmt != NULL)

  00052	83 7d 08 00	 cmp	 DWORD PTR _fmt$[ebp], 0
  00056	74 2d		 je	 SHORT $LN1@vwarnx

; 145  :     (void)vfprintf(stderr,fmt,ap);

  00058	8b f4		 mov	 esi, esp
  0005a	8b 45 0c	 mov	 eax, DWORD PTR _ap$[ebp]
  0005d	50		 push	 eax
  0005e	8b 4d 08	 mov	 ecx, DWORD PTR _fmt$[ebp]
  00061	51		 push	 ecx
  00062	8b fc		 mov	 edi, esp
  00064	ff 15 00 00 00
	00		 call	 DWORD PTR __imp____iob_func
  0006a	3b fc		 cmp	 edi, esp
  0006c	e8 00 00 00 00	 call	 __RTC_CheckEsp
  00071	83 c0 40	 add	 eax, 64			; 00000040H
  00074	50		 push	 eax
  00075	ff 15 00 00 00
	00		 call	 DWORD PTR __imp__vfprintf
  0007b	83 c4 0c	 add	 esp, 12			; 0000000cH
  0007e	3b f4		 cmp	 esi, esp
  00080	e8 00 00 00 00	 call	 __RTC_CheckEsp
$LN1@vwarnx:

; 146  :   (void)fprintf(stderr,"\n");

  00085	8b f4		 mov	 esi, esp
  00087	68 00 00 00 00	 push	 OFFSET ??_C@_01EEMJAFIK@?6?$AA@
  0008c	8b fc		 mov	 edi, esp
  0008e	ff 15 00 00 00
	00		 call	 DWORD PTR __imp____iob_func
  00094	3b fc		 cmp	 edi, esp
  00096	e8 00 00 00 00	 call	 __RTC_CheckEsp
  0009b	83 c0 40	 add	 eax, 64			; 00000040H
  0009e	50		 push	 eax
  0009f	ff 15 00 00 00
	00		 call	 DWORD PTR __imp__fprintf
  000a5	83 c4 08	 add	 esp, 8
  000a8	3b f4		 cmp	 esi, esp
  000aa	e8 00 00 00 00	 call	 __RTC_CheckEsp

; 147  : }

  000af	5f		 pop	 edi
  000b0	5e		 pop	 esi
  000b1	5b		 pop	 ebx
  000b2	81 c4 c0 00 00
	00		 add	 esp, 192		; 000000c0H
  000b8	3b ec		 cmp	 ebp, esp
  000ba	e8 00 00 00 00	 call	 __RTC_CheckEsp
  000bf	8b e5		 mov	 esp, ebp
  000c1	5d		 pop	 ebp
  000c2	c3		 ret	 0
__vwarnx ENDP
; Function compile flags: /Odtp /RTCsu /ZI
_TEXT	ENDS
;	COMDAT _permute_args
_TEXT	SEGMENT
_swap$ = -104						; size = 4
_pos$ = -92						; size = 4
_nopts$ = -80						; size = 4
_nnonopts$ = -68					; size = 4
_ncycle$ = -56						; size = 4
_j$ = -44						; size = 4
_i$ = -32						; size = 4
_cyclelen$ = -20					; size = 4
_cstart$ = -8						; size = 4
_panonopt_start$ = 8					; size = 4
_panonopt_end$ = 12					; size = 4
_opt_end$ = 16						; size = 4
_nargv$ = 20						; size = 4
_permute_args PROC					; COMDAT

; 184  : {

  00000	55		 push	 ebp
  00001	8b ec		 mov	 ebp, esp
  00003	81 ec 2c 01 00
	00		 sub	 esp, 300		; 0000012cH
  00009	53		 push	 ebx
  0000a	56		 push	 esi
  0000b	57		 push	 edi
  0000c	8d bd d4 fe ff
	ff		 lea	 edi, DWORD PTR [ebp-300]
  00012	b9 4b 00 00 00	 mov	 ecx, 75			; 0000004bH
  00017	b8 cc cc cc cc	 mov	 eax, -858993460		; ccccccccH
  0001c	f3 ab		 rep stosd

; 185  : 	int cstart, cyclelen, i, j, ncycle, nnonopts, nopts, pos;
; 186  : 	char *swap;
; 187  : 
; 188  : 	/*
; 189  : 	 * compute lengths of blocks and number and size of cycles
; 190  : 	 */
; 191  : 	nnonopts = panonopt_end - panonopt_start;

  0001e	8b 45 0c	 mov	 eax, DWORD PTR _panonopt_end$[ebp]
  00021	2b 45 08	 sub	 eax, DWORD PTR _panonopt_start$[ebp]
  00024	89 45 bc	 mov	 DWORD PTR _nnonopts$[ebp], eax

; 192  : 	nopts = opt_end - panonopt_end;

  00027	8b 45 10	 mov	 eax, DWORD PTR _opt_end$[ebp]
  0002a	2b 45 0c	 sub	 eax, DWORD PTR _panonopt_end$[ebp]
  0002d	89 45 b0	 mov	 DWORD PTR _nopts$[ebp], eax

; 193  : 	ncycle = gcd(nnonopts, nopts);

  00030	8b 45 b0	 mov	 eax, DWORD PTR _nopts$[ebp]
  00033	50		 push	 eax
  00034	8b 4d bc	 mov	 ecx, DWORD PTR _nnonopts$[ebp]
  00037	51		 push	 ecx
  00038	e8 00 00 00 00	 call	 _gcd
  0003d	83 c4 08	 add	 esp, 8
  00040	89 45 c8	 mov	 DWORD PTR _ncycle$[ebp], eax

; 194  : 	cyclelen = (opt_end - panonopt_start) / ncycle;

  00043	8b 45 10	 mov	 eax, DWORD PTR _opt_end$[ebp]
  00046	2b 45 08	 sub	 eax, DWORD PTR _panonopt_start$[ebp]
  00049	99		 cdq
  0004a	f7 7d c8	 idiv	 DWORD PTR _ncycle$[ebp]
  0004d	89 45 ec	 mov	 DWORD PTR _cyclelen$[ebp], eax

; 195  : 
; 196  : 	for (i = 0; i < ncycle; i++) {

  00050	c7 45 e0 00 00
	00 00		 mov	 DWORD PTR _i$[ebp], 0
  00057	eb 09		 jmp	 SHORT $LN8@permute_ar
$LN7@permute_ar:
  00059	8b 45 e0	 mov	 eax, DWORD PTR _i$[ebp]
  0005c	83 c0 01	 add	 eax, 1
  0005f	89 45 e0	 mov	 DWORD PTR _i$[ebp], eax
$LN8@permute_ar:
  00062	8b 45 e0	 mov	 eax, DWORD PTR _i$[ebp]
  00065	3b 45 c8	 cmp	 eax, DWORD PTR _ncycle$[ebp]
  00068	7d 76		 jge	 SHORT $LN9@permute_ar

; 197  : 		cstart = panonopt_end+i;

  0006a	8b 45 0c	 mov	 eax, DWORD PTR _panonopt_end$[ebp]
  0006d	03 45 e0	 add	 eax, DWORD PTR _i$[ebp]
  00070	89 45 f8	 mov	 DWORD PTR _cstart$[ebp], eax

; 198  : 		pos = cstart;

  00073	8b 45 f8	 mov	 eax, DWORD PTR _cstart$[ebp]
  00076	89 45 a4	 mov	 DWORD PTR _pos$[ebp], eax

; 199  : 		for (j = 0; j < cyclelen; j++) {

  00079	c7 45 d4 00 00
	00 00		 mov	 DWORD PTR _j$[ebp], 0
  00080	eb 09		 jmp	 SHORT $LN5@permute_ar
$LN4@permute_ar:
  00082	8b 45 d4	 mov	 eax, DWORD PTR _j$[ebp]
  00085	83 c0 01	 add	 eax, 1
  00088	89 45 d4	 mov	 DWORD PTR _j$[ebp], eax
$LN5@permute_ar:
  0008b	8b 45 d4	 mov	 eax, DWORD PTR _j$[ebp]
  0008e	3b 45 ec	 cmp	 eax, DWORD PTR _cyclelen$[ebp]
  00091	7d 48		 jge	 SHORT $LN3@permute_ar

; 200  : 			if (pos >= panonopt_end)

  00093	8b 45 a4	 mov	 eax, DWORD PTR _pos$[ebp]
  00096	3b 45 0c	 cmp	 eax, DWORD PTR _panonopt_end$[ebp]
  00099	7c 0b		 jl	 SHORT $LN2@permute_ar

; 201  : 				pos -= nnonopts;

  0009b	8b 45 a4	 mov	 eax, DWORD PTR _pos$[ebp]
  0009e	2b 45 bc	 sub	 eax, DWORD PTR _nnonopts$[ebp]
  000a1	89 45 a4	 mov	 DWORD PTR _pos$[ebp], eax

; 202  : 			else

  000a4	eb 09		 jmp	 SHORT $LN1@permute_ar
$LN2@permute_ar:

; 203  : 				pos += nopts;

  000a6	8b 45 a4	 mov	 eax, DWORD PTR _pos$[ebp]
  000a9	03 45 b0	 add	 eax, DWORD PTR _nopts$[ebp]
  000ac	89 45 a4	 mov	 DWORD PTR _pos$[ebp], eax
$LN1@permute_ar:

; 204  : 			swap = nargv[pos];

  000af	8b 45 a4	 mov	 eax, DWORD PTR _pos$[ebp]
  000b2	8b 4d 14	 mov	 ecx, DWORD PTR _nargv$[ebp]
  000b5	8b 14 81	 mov	 edx, DWORD PTR [ecx+eax*4]
  000b8	89 55 98	 mov	 DWORD PTR _swap$[ebp], edx

; 205  : 			/* LINTED const cast */
; 206  : 			((char **) nargv)[pos] = nargv[cstart];

  000bb	8b 45 a4	 mov	 eax, DWORD PTR _pos$[ebp]
  000be	8b 4d 14	 mov	 ecx, DWORD PTR _nargv$[ebp]
  000c1	8b 55 f8	 mov	 edx, DWORD PTR _cstart$[ebp]
  000c4	8b 75 14	 mov	 esi, DWORD PTR _nargv$[ebp]
  000c7	8b 14 96	 mov	 edx, DWORD PTR [esi+edx*4]
  000ca	89 14 81	 mov	 DWORD PTR [ecx+eax*4], edx

; 207  : 			/* LINTED const cast */
; 208  : 			((char **)nargv)[cstart] = swap;

  000cd	8b 45 f8	 mov	 eax, DWORD PTR _cstart$[ebp]
  000d0	8b 4d 14	 mov	 ecx, DWORD PTR _nargv$[ebp]
  000d3	8b 55 98	 mov	 edx, DWORD PTR _swap$[ebp]
  000d6	89 14 81	 mov	 DWORD PTR [ecx+eax*4], edx

; 209  : 		}

  000d9	eb a7		 jmp	 SHORT $LN4@permute_ar
$LN3@permute_ar:

; 210  : 	}

  000db	e9 79 ff ff ff	 jmp	 $LN7@permute_ar
$LN9@permute_ar:

; 211  : }

  000e0	5f		 pop	 edi
  000e1	5e		 pop	 esi
  000e2	5b		 pop	 ebx
  000e3	81 c4 2c 01 00
	00		 add	 esp, 300		; 0000012cH
  000e9	3b ec		 cmp	 ebp, esp
  000eb	e8 00 00 00 00	 call	 __RTC_CheckEsp
  000f0	8b e5		 mov	 esp, ebp
  000f2	5d		 pop	 ebp
  000f3	c3		 ret	 0
_permute_args ENDP
; Function compile flags: /Odtp /RTCsu /ZI
_TEXT	ENDS
;	COMDAT _gcd
_TEXT	SEGMENT
_c$ = -8						; size = 4
_a$ = 8							; size = 4
_b$ = 12						; size = 4
_gcd	PROC						; COMDAT

; 163  : {

  00000	55		 push	 ebp
  00001	8b ec		 mov	 ebp, esp
  00003	81 ec cc 00 00
	00		 sub	 esp, 204		; 000000ccH
  00009	53		 push	 ebx
  0000a	56		 push	 esi
  0000b	57		 push	 edi
  0000c	8d bd 34 ff ff
	ff		 lea	 edi, DWORD PTR [ebp-204]
  00012	b9 33 00 00 00	 mov	 ecx, 51			; 00000033H
  00017	b8 cc cc cc cc	 mov	 eax, -858993460		; ccccccccH
  0001c	f3 ab		 rep stosd

; 164  : 	int c;
; 165  : 
; 166  : 	c = a % b;

  0001e	8b 45 08	 mov	 eax, DWORD PTR _a$[ebp]
  00021	99		 cdq
  00022	f7 7d 0c	 idiv	 DWORD PTR _b$[ebp]
  00025	89 55 f8	 mov	 DWORD PTR _c$[ebp], edx
$LN2@gcd:

; 167  : 	while (c != 0) {

  00028	83 7d f8 00	 cmp	 DWORD PTR _c$[ebp], 0
  0002c	74 18		 je	 SHORT $LN1@gcd

; 168  : 		a = b;

  0002e	8b 45 0c	 mov	 eax, DWORD PTR _b$[ebp]
  00031	89 45 08	 mov	 DWORD PTR _a$[ebp], eax

; 169  : 		b = c;

  00034	8b 45 f8	 mov	 eax, DWORD PTR _c$[ebp]
  00037	89 45 0c	 mov	 DWORD PTR _b$[ebp], eax

; 170  : 		c = a % b;

  0003a	8b 45 08	 mov	 eax, DWORD PTR _a$[ebp]
  0003d	99		 cdq
  0003e	f7 7d 0c	 idiv	 DWORD PTR _b$[ebp]
  00041	89 55 f8	 mov	 DWORD PTR _c$[ebp], edx

; 171  : 	}

  00044	eb e2		 jmp	 SHORT $LN2@gcd
$LN1@gcd:

; 172  : 
; 173  : 	return (b);

  00046	8b 45 0c	 mov	 eax, DWORD PTR _b$[ebp]

; 174  : }

  00049	5f		 pop	 edi
  0004a	5e		 pop	 esi
  0004b	5b		 pop	 ebx
  0004c	8b e5		 mov	 esp, ebp
  0004e	5d		 pop	 ebp
  0004f	c3		 ret	 0
_gcd	ENDP
_TEXT	ENDS
EXTRN	__imp__strncmp:PROC
EXTRN	_strlen:PROC
; Function compile flags: /Odtp /RTCsu /ZI
;	COMDAT _parse_long_options
_TEXT	SEGMENT
_match$ = -68						; size = 4
_ambiguous$ = -56					; size = 4
_i$ = -44						; size = 4
_current_argv_len$ = -32				; size = 4
_has_equal$ = -20					; size = 4
_current_argv$ = -8					; size = 4
_nargv$ = 8						; size = 4
_options$ = 12						; size = 4
_long_options$ = 16					; size = 4
_idx$ = 20						; size = 4
_short_too$ = 24					; size = 4
_parse_long_options PROC				; COMDAT

; 292  : {

  00000	55		 push	 ebp
  00001	8b ec		 mov	 ebp, esp
  00003	81 ec 08 01 00
	00		 sub	 esp, 264		; 00000108H
  00009	53		 push	 ebx
  0000a	56		 push	 esi
  0000b	57		 push	 edi
  0000c	8d bd f8 fe ff
	ff		 lea	 edi, DWORD PTR [ebp-264]
  00012	b9 42 00 00 00	 mov	 ecx, 66			; 00000042H
  00017	b8 cc cc cc cc	 mov	 eax, -858993460		; ccccccccH
  0001c	f3 ab		 rep stosd

; 293  : 	char *current_argv, *has_equal;
; 294  : 	size_t current_argv_len;
; 295  : 	int i, ambiguous, match;
; 296  : 
; 297  : #define IDENTICAL_INTERPRETATION(_x, _y)                                \
; 298  : 	(long_options[(_x)].has_arg == long_options[(_y)].has_arg &&    \
; 299  : 	 long_options[(_x)].flag == long_options[(_y)].flag &&          \
; 300  : 	 long_options[(_x)].val == long_options[(_y)].val)
; 301  : 
; 302  : 	current_argv = place;

  0001e	a1 00 00 00 00	 mov	 eax, DWORD PTR _place
  00023	89 45 f8	 mov	 DWORD PTR _current_argv$[ebp], eax

; 303  : 	match = -1;

  00026	c7 45 bc ff ff
	ff ff		 mov	 DWORD PTR _match$[ebp], -1

; 304  : 	ambiguous = 0;

  0002d	c7 45 c8 00 00
	00 00		 mov	 DWORD PTR _ambiguous$[ebp], 0

; 305  : 
; 306  : 	optind++;

  00034	a1 00 00 00 00	 mov	 eax, DWORD PTR _optind
  00039	83 c0 01	 add	 eax, 1
  0003c	a3 00 00 00 00	 mov	 DWORD PTR _optind, eax

; 307  : 
; 308  : 	if ((has_equal = strchr(current_argv, '=')) != NULL) {

  00041	8b f4		 mov	 esi, esp
  00043	6a 3d		 push	 61			; 0000003dH
  00045	8b 45 f8	 mov	 eax, DWORD PTR _current_argv$[ebp]
  00048	50		 push	 eax
  00049	ff 15 00 00 00
	00		 call	 DWORD PTR __imp__strchr
  0004f	83 c4 08	 add	 esp, 8
  00052	3b f4		 cmp	 esi, esp
  00054	e8 00 00 00 00	 call	 __RTC_CheckEsp
  00059	89 45 ec	 mov	 DWORD PTR _has_equal$[ebp], eax
  0005c	83 7d ec 00	 cmp	 DWORD PTR _has_equal$[ebp], 0
  00060	74 14		 je	 SHORT $LN34@parse_long

; 309  : 		/* argument found (--option=arg) */
; 310  : 		current_argv_len = has_equal - current_argv;

  00062	8b 45 ec	 mov	 eax, DWORD PTR _has_equal$[ebp]
  00065	2b 45 f8	 sub	 eax, DWORD PTR _current_argv$[ebp]
  00068	89 45 e0	 mov	 DWORD PTR _current_argv_len$[ebp], eax

; 311  : 		has_equal++;

  0006b	8b 45 ec	 mov	 eax, DWORD PTR _has_equal$[ebp]
  0006e	83 c0 01	 add	 eax, 1
  00071	89 45 ec	 mov	 DWORD PTR _has_equal$[ebp], eax

; 312  : 	} else

  00074	eb 0f		 jmp	 SHORT $LN33@parse_long
$LN34@parse_long:

; 313  : 		current_argv_len = strlen(current_argv);

  00076	8b 45 f8	 mov	 eax, DWORD PTR _current_argv$[ebp]
  00079	50		 push	 eax
  0007a	e8 00 00 00 00	 call	 _strlen
  0007f	83 c4 04	 add	 esp, 4
  00082	89 45 e0	 mov	 DWORD PTR _current_argv_len$[ebp], eax
$LN33@parse_long:

; 314  : 
; 315  : 	for (i = 0; long_options[i].name; i++) {

  00085	c7 45 d4 00 00
	00 00		 mov	 DWORD PTR _i$[ebp], 0
  0008c	eb 09		 jmp	 SHORT $LN32@parse_long
$LN31@parse_long:
  0008e	8b 45 d4	 mov	 eax, DWORD PTR _i$[ebp]
  00091	83 c0 01	 add	 eax, 1
  00094	89 45 d4	 mov	 DWORD PTR _i$[ebp], eax
$LN32@parse_long:
  00097	8b 45 d4	 mov	 eax, DWORD PTR _i$[ebp]
  0009a	c1 e0 04	 shl	 eax, 4
  0009d	8b 4d 10	 mov	 ecx, DWORD PTR _long_options$[ebp]
  000a0	83 3c 01 00	 cmp	 DWORD PTR [ecx+eax], 0
  000a4	0f 84 d2 00 00
	00		 je	 $LN30@parse_long

; 316  : 		/* find matching long option */
; 317  : 		if (strncmp(current_argv, long_options[i].name,
; 318  : 		    current_argv_len))

  000aa	8b f4		 mov	 esi, esp
  000ac	8b 45 e0	 mov	 eax, DWORD PTR _current_argv_len$[ebp]
  000af	50		 push	 eax
  000b0	8b 4d d4	 mov	 ecx, DWORD PTR _i$[ebp]
  000b3	c1 e1 04	 shl	 ecx, 4
  000b6	8b 55 10	 mov	 edx, DWORD PTR _long_options$[ebp]
  000b9	8b 04 0a	 mov	 eax, DWORD PTR [edx+ecx]
  000bc	50		 push	 eax
  000bd	8b 4d f8	 mov	 ecx, DWORD PTR _current_argv$[ebp]
  000c0	51		 push	 ecx
  000c1	ff 15 00 00 00
	00		 call	 DWORD PTR __imp__strncmp
  000c7	83 c4 0c	 add	 esp, 12			; 0000000cH
  000ca	3b f4		 cmp	 esi, esp
  000cc	e8 00 00 00 00	 call	 __RTC_CheckEsp
  000d1	85 c0		 test	 eax, eax
  000d3	74 02		 je	 SHORT $LN29@parse_long

; 319  : 			continue;

  000d5	eb b7		 jmp	 SHORT $LN31@parse_long
$LN29@parse_long:

; 320  : 
; 321  : 		if (strlen(long_options[i].name) == current_argv_len) {

  000d7	8b 45 d4	 mov	 eax, DWORD PTR _i$[ebp]
  000da	c1 e0 04	 shl	 eax, 4
  000dd	8b 4d 10	 mov	 ecx, DWORD PTR _long_options$[ebp]
  000e0	8b 14 01	 mov	 edx, DWORD PTR [ecx+eax]
  000e3	52		 push	 edx
  000e4	e8 00 00 00 00	 call	 _strlen
  000e9	83 c4 04	 add	 esp, 4
  000ec	3b 45 e0	 cmp	 eax, DWORD PTR _current_argv_len$[ebp]
  000ef	75 0f		 jne	 SHORT $LN28@parse_long

; 322  : 			/* exact match */
; 323  : 			match = i;

  000f1	8b 45 d4	 mov	 eax, DWORD PTR _i$[ebp]
  000f4	89 45 bc	 mov	 DWORD PTR _match$[ebp], eax

; 324  : 			ambiguous = 0;

  000f7	c7 45 c8 00 00
	00 00		 mov	 DWORD PTR _ambiguous$[ebp], 0

; 325  : 			break;

  000fe	eb 7c		 jmp	 SHORT $LN30@parse_long
$LN28@parse_long:

; 326  : 		}
; 327  : 		/*
; 328  : 		 * If this is a known short option, don't allow
; 329  : 		 * a partial match of a single character.
; 330  : 		 */
; 331  : 		if (short_too && current_argv_len == 1)

  00100	83 7d 18 00	 cmp	 DWORD PTR _short_too$[ebp], 0
  00104	74 08		 je	 SHORT $LN27@parse_long
  00106	83 7d e0 01	 cmp	 DWORD PTR _current_argv_len$[ebp], 1
  0010a	75 02		 jne	 SHORT $LN27@parse_long

; 332  : 			continue;

  0010c	eb 80		 jmp	 SHORT $LN31@parse_long
$LN27@parse_long:

; 333  : 
; 334  : 		if (match == -1)	/* partial match */

  0010e	83 7d bc ff	 cmp	 DWORD PTR _match$[ebp], -1
  00112	75 08		 jne	 SHORT $LN26@parse_long

; 335  : 			match = i;

  00114	8b 45 d4	 mov	 eax, DWORD PTR _i$[ebp]
  00117	89 45 bc	 mov	 DWORD PTR _match$[ebp], eax
  0011a	eb 5b		 jmp	 SHORT $LN25@parse_long
$LN26@parse_long:

; 336  : 		else if (!IDENTICAL_INTERPRETATION(i, match))

  0011c	8b 45 d4	 mov	 eax, DWORD PTR _i$[ebp]
  0011f	c1 e0 04	 shl	 eax, 4
  00122	8b 4d bc	 mov	 ecx, DWORD PTR _match$[ebp]
  00125	c1 e1 04	 shl	 ecx, 4
  00128	8b 55 10	 mov	 edx, DWORD PTR _long_options$[ebp]
  0012b	8b 75 10	 mov	 esi, DWORD PTR _long_options$[ebp]
  0012e	8b 44 02 04	 mov	 eax, DWORD PTR [edx+eax+4]
  00132	3b 44 0e 04	 cmp	 eax, DWORD PTR [esi+ecx+4]
  00136	75 38		 jne	 SHORT $LN23@parse_long
  00138	8b 45 d4	 mov	 eax, DWORD PTR _i$[ebp]
  0013b	c1 e0 04	 shl	 eax, 4
  0013e	8b 4d bc	 mov	 ecx, DWORD PTR _match$[ebp]
  00141	c1 e1 04	 shl	 ecx, 4
  00144	8b 55 10	 mov	 edx, DWORD PTR _long_options$[ebp]
  00147	8b 75 10	 mov	 esi, DWORD PTR _long_options$[ebp]
  0014a	8b 44 02 08	 mov	 eax, DWORD PTR [edx+eax+8]
  0014e	3b 44 0e 08	 cmp	 eax, DWORD PTR [esi+ecx+8]
  00152	75 1c		 jne	 SHORT $LN23@parse_long
  00154	8b 45 d4	 mov	 eax, DWORD PTR _i$[ebp]
  00157	c1 e0 04	 shl	 eax, 4
  0015a	8b 4d bc	 mov	 ecx, DWORD PTR _match$[ebp]
  0015d	c1 e1 04	 shl	 ecx, 4
  00160	8b 55 10	 mov	 edx, DWORD PTR _long_options$[ebp]
  00163	8b 75 10	 mov	 esi, DWORD PTR _long_options$[ebp]
  00166	8b 44 02 0c	 mov	 eax, DWORD PTR [edx+eax+12]
  0016a	3b 44 0e 0c	 cmp	 eax, DWORD PTR [esi+ecx+12]
  0016e	74 07		 je	 SHORT $LN25@parse_long
$LN23@parse_long:

; 337  : 			ambiguous = 1;

  00170	c7 45 c8 01 00
	00 00		 mov	 DWORD PTR _ambiguous$[ebp], 1
$LN25@parse_long:

; 338  : 	}

  00177	e9 12 ff ff ff	 jmp	 $LN31@parse_long
$LN30@parse_long:

; 339  : 	if (ambiguous) {

  0017c	83 7d c8 00	 cmp	 DWORD PTR _ambiguous$[ebp], 0
  00180	74 3d		 je	 SHORT $LN22@parse_long

; 340  : 		/* ambiguous abbreviation */
; 341  : 		if (PRINT_ERROR)

  00182	83 3d 00 00 00
	00 00		 cmp	 DWORD PTR _opterr, 0
  00189	74 20		 je	 SHORT $LN21@parse_long
  0018b	8b 45 0c	 mov	 eax, DWORD PTR _options$[ebp]
  0018e	0f be 08	 movsx	 ecx, BYTE PTR [eax]
  00191	83 f9 3a	 cmp	 ecx, 58			; 0000003aH
  00194	74 15		 je	 SHORT $LN21@parse_long

; 342  : 			warnx(ambig, (int)current_argv_len,
; 343  : 			     current_argv);

  00196	8b 45 f8	 mov	 eax, DWORD PTR _current_argv$[ebp]
  00199	50		 push	 eax
  0019a	8b 4d e0	 mov	 ecx, DWORD PTR _current_argv_len$[ebp]
  0019d	51		 push	 ecx
  0019e	68 00 00 00 00	 push	 OFFSET _ambig
  001a3	e8 00 00 00 00	 call	 _warnx
  001a8	83 c4 0c	 add	 esp, 12			; 0000000cH
$LN21@parse_long:

; 344  : 		optopt = 0;

  001ab	c7 05 00 00 00
	00 00 00 00 00	 mov	 DWORD PTR _optopt, 0

; 345  : 		return (BADCH);

  001b5	b8 3f 00 00 00	 mov	 eax, 63			; 0000003fH
  001ba	e9 24 02 00 00	 jmp	 $LN35@parse_long
$LN22@parse_long:

; 346  : 	}
; 347  : 	if (match != -1) {		/* option found */

  001bf	83 7d bc ff	 cmp	 DWORD PTR _match$[ebp], -1
  001c3	0f 84 7c 01 00
	00		 je	 $LN20@parse_long

; 348  : 		if (long_options[match].has_arg == no_argument
; 349  : 		    && has_equal) {

  001c9	8b 45 bc	 mov	 eax, DWORD PTR _match$[ebp]
  001cc	c1 e0 04	 shl	 eax, 4
  001cf	8b 4d 10	 mov	 ecx, DWORD PTR _long_options$[ebp]
  001d2	83 7c 01 04 00	 cmp	 DWORD PTR [ecx+eax+4], 0
  001d7	75 76		 jne	 SHORT $LN19@parse_long
  001d9	83 7d ec 00	 cmp	 DWORD PTR _has_equal$[ebp], 0
  001dd	74 70		 je	 SHORT $LN19@parse_long

; 350  : 			if (PRINT_ERROR)

  001df	83 3d 00 00 00
	00 00		 cmp	 DWORD PTR _opterr, 0
  001e6	74 20		 je	 SHORT $LN18@parse_long
  001e8	8b 45 0c	 mov	 eax, DWORD PTR _options$[ebp]
  001eb	0f be 08	 movsx	 ecx, BYTE PTR [eax]
  001ee	83 f9 3a	 cmp	 ecx, 58			; 0000003aH
  001f1	74 15		 je	 SHORT $LN18@parse_long

; 351  : 				warnx(noarg, (int)current_argv_len,
; 352  : 				     current_argv);

  001f3	8b 45 f8	 mov	 eax, DWORD PTR _current_argv$[ebp]
  001f6	50		 push	 eax
  001f7	8b 4d e0	 mov	 ecx, DWORD PTR _current_argv_len$[ebp]
  001fa	51		 push	 ecx
  001fb	68 00 00 00 00	 push	 OFFSET _noarg
  00200	e8 00 00 00 00	 call	 _warnx
  00205	83 c4 0c	 add	 esp, 12			; 0000000cH
$LN18@parse_long:

; 353  : 			/*
; 354  : 			 * XXX: GNU sets optopt to val regardless of flag
; 355  : 			 */
; 356  : 			if (long_options[match].flag == NULL)

  00208	8b 45 bc	 mov	 eax, DWORD PTR _match$[ebp]
  0020b	c1 e0 04	 shl	 eax, 4
  0020e	8b 4d 10	 mov	 ecx, DWORD PTR _long_options$[ebp]
  00211	83 7c 01 08 00	 cmp	 DWORD PTR [ecx+eax+8], 0
  00216	75 15		 jne	 SHORT $LN17@parse_long

; 357  : 				optopt = long_options[match].val;

  00218	8b 45 bc	 mov	 eax, DWORD PTR _match$[ebp]
  0021b	c1 e0 04	 shl	 eax, 4
  0021e	8b 4d 10	 mov	 ecx, DWORD PTR _long_options$[ebp]
  00221	8b 54 01 0c	 mov	 edx, DWORD PTR [ecx+eax+12]
  00225	89 15 00 00 00
	00		 mov	 DWORD PTR _optopt, edx

; 358  : 			else

  0022b	eb 0a		 jmp	 SHORT $LN16@parse_long
$LN17@parse_long:

; 359  : 				optopt = 0;

  0022d	c7 05 00 00 00
	00 00 00 00 00	 mov	 DWORD PTR _optopt, 0
$LN16@parse_long:

; 360  : 			return (BADARG);

  00237	8b 45 0c	 mov	 eax, DWORD PTR _options$[ebp]
  0023a	0f be 00	 movsx	 eax, BYTE PTR [eax]
  0023d	83 e8 3a	 sub	 eax, 58			; 0000003aH
  00240	f7 d8		 neg	 eax
  00242	1b c0		 sbb	 eax, eax
  00244	83 e0 05	 and	 eax, 5
  00247	83 c0 3a	 add	 eax, 58			; 0000003aH
  0024a	e9 94 01 00 00	 jmp	 $LN35@parse_long
$LN19@parse_long:

; 361  : 		}
; 362  : 		if (long_options[match].has_arg == required_argument ||
; 363  : 		    long_options[match].has_arg == optional_argument) {

  0024f	8b 45 bc	 mov	 eax, DWORD PTR _match$[ebp]
  00252	c1 e0 04	 shl	 eax, 4
  00255	8b 4d 10	 mov	 ecx, DWORD PTR _long_options$[ebp]
  00258	83 7c 01 04 01	 cmp	 DWORD PTR [ecx+eax+4], 1
  0025d	74 10		 je	 SHORT $LN14@parse_long
  0025f	8b 45 bc	 mov	 eax, DWORD PTR _match$[ebp]
  00262	c1 e0 04	 shl	 eax, 4
  00265	8b 4d 10	 mov	 ecx, DWORD PTR _long_options$[ebp]
  00268	83 7c 01 04 02	 cmp	 DWORD PTR [ecx+eax+4], 2
  0026d	75 3e		 jne	 SHORT $LN15@parse_long
$LN14@parse_long:

; 364  : 			if (has_equal)

  0026f	83 7d ec 00	 cmp	 DWORD PTR _has_equal$[ebp], 0
  00273	74 0a		 je	 SHORT $LN13@parse_long

; 365  : 				optarg = has_equal;

  00275	8b 45 ec	 mov	 eax, DWORD PTR _has_equal$[ebp]
  00278	a3 00 00 00 00	 mov	 DWORD PTR _optarg, eax

; 366  : 			else if (long_options[match].has_arg ==

  0027d	eb 2e		 jmp	 SHORT $LN15@parse_long
$LN13@parse_long:

; 367  : 			    required_argument) {

  0027f	8b 45 bc	 mov	 eax, DWORD PTR _match$[ebp]
  00282	c1 e0 04	 shl	 eax, 4
  00285	8b 4d 10	 mov	 ecx, DWORD PTR _long_options$[ebp]
  00288	83 7c 01 04 01	 cmp	 DWORD PTR [ecx+eax+4], 1
  0028d	75 1e		 jne	 SHORT $LN15@parse_long

; 368  : 				/*
; 369  : 				 * optional argument doesn't use next nargv
; 370  : 				 */
; 371  : 				optarg = nargv[optind++];

  0028f	a1 00 00 00 00	 mov	 eax, DWORD PTR _optind
  00294	8b 4d 08	 mov	 ecx, DWORD PTR _nargv$[ebp]
  00297	8b 14 81	 mov	 edx, DWORD PTR [ecx+eax*4]
  0029a	89 15 00 00 00
	00		 mov	 DWORD PTR _optarg, edx
  002a0	a1 00 00 00 00	 mov	 eax, DWORD PTR _optind
  002a5	83 c0 01	 add	 eax, 1
  002a8	a3 00 00 00 00	 mov	 DWORD PTR _optind, eax
$LN15@parse_long:

; 372  : 			}
; 373  : 		}
; 374  : 		if ((long_options[match].has_arg == required_argument)
; 375  : 		    && (optarg == NULL)) {

  002ad	8b 45 bc	 mov	 eax, DWORD PTR _match$[ebp]
  002b0	c1 e0 04	 shl	 eax, 4
  002b3	8b 4d 10	 mov	 ecx, DWORD PTR _long_options$[ebp]
  002b6	83 7c 01 04 01	 cmp	 DWORD PTR [ecx+eax+4], 1
  002bb	0f 85 82 00 00
	00		 jne	 $LN10@parse_long
  002c1	83 3d 00 00 00
	00 00		 cmp	 DWORD PTR _optarg, 0
  002c8	75 79		 jne	 SHORT $LN10@parse_long

; 376  : 			/*
; 377  : 			 * Missing argument; leading ':' indicates no error
; 378  : 			 * should be generated.
; 379  : 			 */
; 380  : 			if (PRINT_ERROR)

  002ca	83 3d 00 00 00
	00 00		 cmp	 DWORD PTR _opterr, 0
  002d1	74 1c		 je	 SHORT $LN9@parse_long
  002d3	8b 45 0c	 mov	 eax, DWORD PTR _options$[ebp]
  002d6	0f be 08	 movsx	 ecx, BYTE PTR [eax]
  002d9	83 f9 3a	 cmp	 ecx, 58			; 0000003aH
  002dc	74 11		 je	 SHORT $LN9@parse_long

; 381  : 				warnx(recargstring,
; 382  : 				    current_argv);

  002de	8b 45 f8	 mov	 eax, DWORD PTR _current_argv$[ebp]
  002e1	50		 push	 eax
  002e2	68 00 00 00 00	 push	 OFFSET _recargstring
  002e7	e8 00 00 00 00	 call	 _warnx
  002ec	83 c4 08	 add	 esp, 8
$LN9@parse_long:

; 383  : 			/*
; 384  : 			 * XXX: GNU sets optopt to val regardless of flag
; 385  : 			 */
; 386  : 			if (long_options[match].flag == NULL)

  002ef	8b 45 bc	 mov	 eax, DWORD PTR _match$[ebp]
  002f2	c1 e0 04	 shl	 eax, 4
  002f5	8b 4d 10	 mov	 ecx, DWORD PTR _long_options$[ebp]
  002f8	83 7c 01 08 00	 cmp	 DWORD PTR [ecx+eax+8], 0
  002fd	75 15		 jne	 SHORT $LN8@parse_long

; 387  : 				optopt = long_options[match].val;

  002ff	8b 45 bc	 mov	 eax, DWORD PTR _match$[ebp]
  00302	c1 e0 04	 shl	 eax, 4
  00305	8b 4d 10	 mov	 ecx, DWORD PTR _long_options$[ebp]
  00308	8b 54 01 0c	 mov	 edx, DWORD PTR [ecx+eax+12]
  0030c	89 15 00 00 00
	00		 mov	 DWORD PTR _optopt, edx

; 388  : 			else

  00312	eb 0a		 jmp	 SHORT $LN7@parse_long
$LN8@parse_long:

; 389  : 				optopt = 0;

  00314	c7 05 00 00 00
	00 00 00 00 00	 mov	 DWORD PTR _optopt, 0
$LN7@parse_long:

; 390  : 			--optind;

  0031e	a1 00 00 00 00	 mov	 eax, DWORD PTR _optind
  00323	83 e8 01	 sub	 eax, 1
  00326	a3 00 00 00 00	 mov	 DWORD PTR _optind, eax

; 391  : 			return (BADARG);

  0032b	8b 45 0c	 mov	 eax, DWORD PTR _options$[ebp]
  0032e	0f be 00	 movsx	 eax, BYTE PTR [eax]
  00331	83 e8 3a	 sub	 eax, 58			; 0000003aH
  00334	f7 d8		 neg	 eax
  00336	1b c0		 sbb	 eax, eax
  00338	83 e0 05	 and	 eax, 5
  0033b	83 c0 3a	 add	 eax, 58			; 0000003aH
  0033e	e9 a0 00 00 00	 jmp	 $LN35@parse_long
$LN10@parse_long:

; 392  : 		}
; 393  : 	} else {			/* unknown option */

  00343	eb 51		 jmp	 SHORT $LN6@parse_long
$LN20@parse_long:

; 394  : 		if (short_too) {

  00345	83 7d 18 00	 cmp	 DWORD PTR _short_too$[ebp], 0
  00349	74 15		 je	 SHORT $LN5@parse_long

; 395  : 			--optind;

  0034b	a1 00 00 00 00	 mov	 eax, DWORD PTR _optind
  00350	83 e8 01	 sub	 eax, 1
  00353	a3 00 00 00 00	 mov	 DWORD PTR _optind, eax

; 396  : 			return (-1);

  00358	83 c8 ff	 or	 eax, -1
  0035b	e9 83 00 00 00	 jmp	 $LN35@parse_long
$LN5@parse_long:

; 397  : 		}
; 398  : 		if (PRINT_ERROR)

  00360	83 3d 00 00 00
	00 00		 cmp	 DWORD PTR _opterr, 0
  00367	74 1c		 je	 SHORT $LN4@parse_long
  00369	8b 45 0c	 mov	 eax, DWORD PTR _options$[ebp]
  0036c	0f be 08	 movsx	 ecx, BYTE PTR [eax]
  0036f	83 f9 3a	 cmp	 ecx, 58			; 0000003aH
  00372	74 11		 je	 SHORT $LN4@parse_long

; 399  : 			warnx(illoptstring, current_argv);

  00374	8b 45 f8	 mov	 eax, DWORD PTR _current_argv$[ebp]
  00377	50		 push	 eax
  00378	68 00 00 00 00	 push	 OFFSET _illoptstring
  0037d	e8 00 00 00 00	 call	 _warnx
  00382	83 c4 08	 add	 esp, 8
$LN4@parse_long:

; 400  : 		optopt = 0;

  00385	c7 05 00 00 00
	00 00 00 00 00	 mov	 DWORD PTR _optopt, 0

; 401  : 		return (BADCH);

  0038f	b8 3f 00 00 00	 mov	 eax, 63			; 0000003fH
  00394	eb 4d		 jmp	 SHORT $LN35@parse_long
$LN6@parse_long:

; 402  : 	}
; 403  : 	if (idx)

  00396	83 7d 14 00	 cmp	 DWORD PTR _idx$[ebp], 0
  0039a	74 08		 je	 SHORT $LN3@parse_long

; 404  : 		*idx = match;

  0039c	8b 45 14	 mov	 eax, DWORD PTR _idx$[ebp]
  0039f	8b 4d bc	 mov	 ecx, DWORD PTR _match$[ebp]
  003a2	89 08		 mov	 DWORD PTR [eax], ecx
$LN3@parse_long:

; 405  : 	if (long_options[match].flag) {

  003a4	8b 45 bc	 mov	 eax, DWORD PTR _match$[ebp]
  003a7	c1 e0 04	 shl	 eax, 4
  003aa	8b 4d 10	 mov	 ecx, DWORD PTR _long_options$[ebp]
  003ad	83 7c 01 08 00	 cmp	 DWORD PTR [ecx+eax+8], 0
  003b2	74 22		 je	 SHORT $LN2@parse_long

; 406  : 		*long_options[match].flag = long_options[match].val;

  003b4	8b 45 bc	 mov	 eax, DWORD PTR _match$[ebp]
  003b7	c1 e0 04	 shl	 eax, 4
  003ba	8b 4d bc	 mov	 ecx, DWORD PTR _match$[ebp]
  003bd	c1 e1 04	 shl	 ecx, 4
  003c0	8b 55 10	 mov	 edx, DWORD PTR _long_options$[ebp]
  003c3	8b 4c 0a 08	 mov	 ecx, DWORD PTR [edx+ecx+8]
  003c7	8b 55 10	 mov	 edx, DWORD PTR _long_options$[ebp]
  003ca	8b 44 02 0c	 mov	 eax, DWORD PTR [edx+eax+12]
  003ce	89 01		 mov	 DWORD PTR [ecx], eax

; 407  : 		return (0);

  003d0	33 c0		 xor	 eax, eax
  003d2	eb 0f		 jmp	 SHORT $LN35@parse_long

; 408  : 	} else

  003d4	eb 0d		 jmp	 SHORT $LN35@parse_long
$LN2@parse_long:

; 409  : 		return (long_options[match].val);

  003d6	8b 45 bc	 mov	 eax, DWORD PTR _match$[ebp]
  003d9	c1 e0 04	 shl	 eax, 4
  003dc	8b 4d 10	 mov	 ecx, DWORD PTR _long_options$[ebp]
  003df	8b 44 01 0c	 mov	 eax, DWORD PTR [ecx+eax+12]
$LN35@parse_long:

; 410  : #undef IDENTICAL_INTERPRETATION
; 411  : }

  003e3	5f		 pop	 edi
  003e4	5e		 pop	 esi
  003e5	5b		 pop	 ebx
  003e6	81 c4 08 01 00
	00		 add	 esp, 264		; 00000108H
  003ec	3b ec		 cmp	 ebp, esp
  003ee	e8 00 00 00 00	 call	 __RTC_CheckEsp
  003f3	8b e5		 mov	 esp, ebp
  003f5	5d		 pop	 ebp
  003f6	c3		 ret	 0
_parse_long_options ENDP
_TEXT	ENDS
PUBLIC	_getopt_long
; Function compile flags: /Odtp /RTCsu /ZI
;	COMDAT _getopt_long
_TEXT	SEGMENT
_nargc$ = 8						; size = 4
_nargv$ = 12						; size = 4
_options$ = 16						; size = 4
_long_options$ = 20					; size = 4
_idx$ = 24						; size = 4
_getopt_long PROC					; COMDAT

; 617  : {

  00000	55		 push	 ebp
  00001	8b ec		 mov	 ebp, esp
  00003	81 ec c0 00 00
	00		 sub	 esp, 192		; 000000c0H
  00009	53		 push	 ebx
  0000a	56		 push	 esi
  0000b	57		 push	 edi
  0000c	8d bd 40 ff ff
	ff		 lea	 edi, DWORD PTR [ebp-192]
  00012	b9 30 00 00 00	 mov	 ecx, 48			; 00000030H
  00017	b8 cc cc cc cc	 mov	 eax, -858993460		; ccccccccH
  0001c	f3 ab		 rep stosd

; 618  : 
; 619  : 	return (getopt_internal(nargc, nargv, options, long_options, idx,
; 620  : 	    FLAG_PERMUTE));

  0001e	6a 01		 push	 1
  00020	8b 45 18	 mov	 eax, DWORD PTR _idx$[ebp]
  00023	50		 push	 eax
  00024	8b 4d 14	 mov	 ecx, DWORD PTR _long_options$[ebp]
  00027	51		 push	 ecx
  00028	8b 55 10	 mov	 edx, DWORD PTR _options$[ebp]
  0002b	52		 push	 edx
  0002c	8b 45 0c	 mov	 eax, DWORD PTR _nargv$[ebp]
  0002f	50		 push	 eax
  00030	8b 4d 08	 mov	 ecx, DWORD PTR _nargc$[ebp]
  00033	51		 push	 ecx
  00034	e8 00 00 00 00	 call	 _getopt_internal
  00039	83 c4 18	 add	 esp, 24			; 00000018H

; 621  : }

  0003c	5f		 pop	 edi
  0003d	5e		 pop	 esi
  0003e	5b		 pop	 ebx
  0003f	81 c4 c0 00 00
	00		 add	 esp, 192		; 000000c0H
  00045	3b ec		 cmp	 ebp, esp
  00047	e8 00 00 00 00	 call	 __RTC_CheckEsp
  0004c	8b e5		 mov	 esp, ebp
  0004e	5d		 pop	 ebp
  0004f	c3		 ret	 0
_getopt_long ENDP
_TEXT	ENDS
PUBLIC	_getopt_long_only
; Function compile flags: /Odtp /RTCsu /ZI
;	COMDAT _getopt_long_only
_TEXT	SEGMENT
_nargc$ = 8						; size = 4
_nargv$ = 12						; size = 4
_options$ = 16						; size = 4
_long_options$ = 20					; size = 4
_idx$ = 24						; size = 4
_getopt_long_only PROC					; COMDAT

; 630  : {

  00000	55		 push	 ebp
  00001	8b ec		 mov	 ebp, esp
  00003	81 ec c0 00 00
	00		 sub	 esp, 192		; 000000c0H
  00009	53		 push	 ebx
  0000a	56		 push	 esi
  0000b	57		 push	 edi
  0000c	8d bd 40 ff ff
	ff		 lea	 edi, DWORD PTR [ebp-192]
  00012	b9 30 00 00 00	 mov	 ecx, 48			; 00000030H
  00017	b8 cc cc cc cc	 mov	 eax, -858993460		; ccccccccH
  0001c	f3 ab		 rep stosd

; 631  : 
; 632  : 	return (getopt_internal(nargc, nargv, options, long_options, idx,
; 633  : 	    FLAG_PERMUTE|FLAG_LONGONLY));

  0001e	6a 05		 push	 5
  00020	8b 45 18	 mov	 eax, DWORD PTR _idx$[ebp]
  00023	50		 push	 eax
  00024	8b 4d 14	 mov	 ecx, DWORD PTR _long_options$[ebp]
  00027	51		 push	 ecx
  00028	8b 55 10	 mov	 edx, DWORD PTR _options$[ebp]
  0002b	52		 push	 edx
  0002c	8b 45 0c	 mov	 eax, DWORD PTR _nargv$[ebp]
  0002f	50		 push	 eax
  00030	8b 4d 08	 mov	 ecx, DWORD PTR _nargc$[ebp]
  00033	51		 push	 ecx
  00034	e8 00 00 00 00	 call	 _getopt_internal
  00039	83 c4 18	 add	 esp, 24			; 00000018H

; 634  : }

  0003c	5f		 pop	 edi
  0003d	5e		 pop	 esi
  0003e	5b		 pop	 ebx
  0003f	81 c4 c0 00 00
	00		 add	 esp, 192		; 000000c0H
  00045	3b ec		 cmp	 ebp, esp
  00047	e8 00 00 00 00	 call	 __RTC_CheckEsp
  0004c	8b e5		 mov	 esp, ebp
  0004e	5d		 pop	 ebp
  0004f	c3		 ret	 0
_getopt_long_only ENDP
_TEXT	ENDS
_BSS	SEGMENT
_stk	DD	01H DUP (?)
; Function compile flags: /Odtp /RTCsu /ZI
; File c:\a15\facultate\forth\atlast-2.0\atlast.c
_BSS	ENDS
;	COMDAT _P_plus
_TEXT	SEGMENT
_P_plus	PROC						; COMDAT

; 587  : {

  00000	55		 push	 ebp
  00001	8b ec		 mov	 ebp, esp
  00003	81 ec c0 00 00
	00		 sub	 esp, 192		; 000000c0H
  00009	53		 push	 ebx
  0000a	56		 push	 esi
  0000b	57		 push	 edi
  0000c	8d bd 40 ff ff
	ff		 lea	 edi, DWORD PTR [ebp-192]
  00012	b9 30 00 00 00	 mov	 ecx, 48			; 00000030H
  00017	b8 cc cc cc cc	 mov	 eax, -858993460		; ccccccccH
  0001c	f3 ab		 rep stosd

; 588  :     Sl(2);

  0001e	a1 00 00 00 00	 mov	 eax, DWORD PTR _stk
  00023	2b 05 00 00 00
	00		 sub	 eax, DWORD PTR _stack
  00029	c1 f8 03	 sar	 eax, 3
  0002c	83 f8 02	 cmp	 eax, 2
  0002f	7d 07		 jge	 SHORT $LN1@P_plus
  00031	e8 00 00 00 00	 call	 _stakunder
  00036	eb 30		 jmp	 SHORT $LN2@P_plus
$LN1@P_plus:

; 589  : /* printf("PLUS %lx + %lx = %lx\n", S1, S0, (S1 + S0)); */
; 590  :     S1 += S0;

  00038	a1 00 00 00 00	 mov	 eax, DWORD PTR _stk
  0003d	8b 0d 00 00 00
	00		 mov	 ecx, DWORD PTR _stk
  00043	8b 50 f0	 mov	 edx, DWORD PTR [eax-16]
  00046	03 51 f8	 add	 edx, DWORD PTR [ecx-8]
  00049	8b 40 f4	 mov	 eax, DWORD PTR [eax-12]
  0004c	13 41 fc	 adc	 eax, DWORD PTR [ecx-4]
  0004f	8b 0d 00 00 00
	00		 mov	 ecx, DWORD PTR _stk
  00055	89 51 f0	 mov	 DWORD PTR [ecx-16], edx
  00058	89 41 f4	 mov	 DWORD PTR [ecx-12], eax

; 591  :     Pop;

  0005b	a1 00 00 00 00	 mov	 eax, DWORD PTR _stk
  00060	83 e8 08	 sub	 eax, 8
  00063	a3 00 00 00 00	 mov	 DWORD PTR _stk, eax
$LN2@P_plus:

; 592  : }

  00068	5f		 pop	 edi
  00069	5e		 pop	 esi
  0006a	5b		 pop	 ebx
  0006b	81 c4 c0 00 00
	00		 add	 esp, 192		; 000000c0H
  00071	3b ec		 cmp	 ebp, esp
  00073	e8 00 00 00 00	 call	 __RTC_CheckEsp
  00078	8b e5		 mov	 esp, ebp
  0007a	5d		 pop	 ebp
  0007b	c3		 ret	 0
_P_plus	ENDP
; Function compile flags: /Odtp /RTCsu /ZI
_TEXT	ENDS
;	COMDAT _P_minus
_TEXT	SEGMENT
_P_minus PROC						; COMDAT

; 595  : {

  00000	55		 push	 ebp
  00001	8b ec		 mov	 ebp, esp
  00003	81 ec c0 00 00
	00		 sub	 esp, 192		; 000000c0H
  00009	53		 push	 ebx
  0000a	56		 push	 esi
  0000b	57		 push	 edi
  0000c	8d bd 40 ff ff
	ff		 lea	 edi, DWORD PTR [ebp-192]
  00012	b9 30 00 00 00	 mov	 ecx, 48			; 00000030H
  00017	b8 cc cc cc cc	 mov	 eax, -858993460		; ccccccccH
  0001c	f3 ab		 rep stosd

; 596  :     Sl(2);

  0001e	a1 00 00 00 00	 mov	 eax, DWORD PTR _stk
  00023	2b 05 00 00 00
	00		 sub	 eax, DWORD PTR _stack
  00029	c1 f8 03	 sar	 eax, 3
  0002c	83 f8 02	 cmp	 eax, 2
  0002f	7d 07		 jge	 SHORT $LN1@P_minus
  00031	e8 00 00 00 00	 call	 _stakunder
  00036	eb 30		 jmp	 SHORT $LN2@P_minus
$LN1@P_minus:

; 597  :     S1 -= S0;

  00038	a1 00 00 00 00	 mov	 eax, DWORD PTR _stk
  0003d	8b 0d 00 00 00
	00		 mov	 ecx, DWORD PTR _stk
  00043	8b 50 f0	 mov	 edx, DWORD PTR [eax-16]
  00046	2b 51 f8	 sub	 edx, DWORD PTR [ecx-8]
  00049	8b 40 f4	 mov	 eax, DWORD PTR [eax-12]
  0004c	1b 41 fc	 sbb	 eax, DWORD PTR [ecx-4]
  0004f	8b 0d 00 00 00
	00		 mov	 ecx, DWORD PTR _stk
  00055	89 51 f0	 mov	 DWORD PTR [ecx-16], edx
  00058	89 41 f4	 mov	 DWORD PTR [ecx-12], eax

; 598  :     Pop;

  0005b	a1 00 00 00 00	 mov	 eax, DWORD PTR _stk
  00060	83 e8 08	 sub	 eax, 8
  00063	a3 00 00 00 00	 mov	 DWORD PTR _stk, eax
$LN2@P_minus:

; 599  : }

  00068	5f		 pop	 edi
  00069	5e		 pop	 esi
  0006a	5b		 pop	 ebx
  0006b	81 c4 c0 00 00
	00		 add	 esp, 192		; 000000c0H
  00071	3b ec		 cmp	 ebp, esp
  00073	e8 00 00 00 00	 call	 __RTC_CheckEsp
  00078	8b e5		 mov	 esp, ebp
  0007a	5d		 pop	 ebp
  0007b	c3		 ret	 0
_P_minus ENDP
_TEXT	ENDS
EXTRN	__allmul:PROC
; Function compile flags: /Odtp /RTCsu /ZI
;	COMDAT _P_times
_TEXT	SEGMENT
_P_times PROC						; COMDAT

; 602  : {

  00000	55		 push	 ebp
  00001	8b ec		 mov	 ebp, esp
  00003	81 ec c0 00 00
	00		 sub	 esp, 192		; 000000c0H
  00009	53		 push	 ebx
  0000a	56		 push	 esi
  0000b	57		 push	 edi
  0000c	8d bd 40 ff ff
	ff		 lea	 edi, DWORD PTR [ebp-192]
  00012	b9 30 00 00 00	 mov	 ecx, 48			; 00000030H
  00017	b8 cc cc cc cc	 mov	 eax, -858993460		; ccccccccH
  0001c	f3 ab		 rep stosd

; 603  :     Sl(2);

  0001e	a1 00 00 00 00	 mov	 eax, DWORD PTR _stk
  00023	2b 05 00 00 00
	00		 sub	 eax, DWORD PTR _stack
  00029	c1 f8 03	 sar	 eax, 3
  0002c	83 f8 02	 cmp	 eax, 2
  0002f	7d 07		 jge	 SHORT $LN1@P_times
  00031	e8 00 00 00 00	 call	 _stakunder
  00036	eb 39		 jmp	 SHORT $LN2@P_times
$LN1@P_times:

; 604  :     S1 *= S0;

  00038	a1 00 00 00 00	 mov	 eax, DWORD PTR _stk
  0003d	8b 0d 00 00 00
	00		 mov	 ecx, DWORD PTR _stk
  00043	8b 51 fc	 mov	 edx, DWORD PTR [ecx-4]
  00046	52		 push	 edx
  00047	8b 49 f8	 mov	 ecx, DWORD PTR [ecx-8]
  0004a	51		 push	 ecx
  0004b	8b 50 f4	 mov	 edx, DWORD PTR [eax-12]
  0004e	52		 push	 edx
  0004f	8b 40 f0	 mov	 eax, DWORD PTR [eax-16]
  00052	50		 push	 eax
  00053	e8 00 00 00 00	 call	 __allmul
  00058	8b 0d 00 00 00
	00		 mov	 ecx, DWORD PTR _stk
  0005e	89 41 f0	 mov	 DWORD PTR [ecx-16], eax
  00061	89 51 f4	 mov	 DWORD PTR [ecx-12], edx

; 605  :     Pop;

  00064	a1 00 00 00 00	 mov	 eax, DWORD PTR _stk
  00069	83 e8 08	 sub	 eax, 8
  0006c	a3 00 00 00 00	 mov	 DWORD PTR _stk, eax
$LN2@P_times:

; 606  : }

  00071	5f		 pop	 edi
  00072	5e		 pop	 esi
  00073	5b		 pop	 ebx
  00074	81 c4 c0 00 00
	00		 add	 esp, 192		; 000000c0H
  0007a	3b ec		 cmp	 ebp, esp
  0007c	e8 00 00 00 00	 call	 __RTC_CheckEsp
  00081	8b e5		 mov	 esp, ebp
  00083	5d		 pop	 ebp
  00084	c3		 ret	 0
_P_times ENDP
_TEXT	ENDS
EXTRN	__alldiv:PROC
; Function compile flags: /Odtp /RTCsu /ZI
;	COMDAT _P_div
_TEXT	SEGMENT
tv76 = -196						; size = 4
_P_div	PROC						; COMDAT

; 609  : {

  00000	55		 push	 ebp
  00001	8b ec		 mov	 ebp, esp
  00003	81 ec c4 00 00
	00		 sub	 esp, 196		; 000000c4H
  00009	53		 push	 ebx
  0000a	56		 push	 esi
  0000b	57		 push	 edi
  0000c	8d bd 3c ff ff
	ff		 lea	 edi, DWORD PTR [ebp-196]
  00012	b9 31 00 00 00	 mov	 ecx, 49			; 00000031H
  00017	b8 cc cc cc cc	 mov	 eax, -858993460		; ccccccccH
  0001c	f3 ab		 rep stosd

; 610  :     Sl(2);

  0001e	a1 00 00 00 00	 mov	 eax, DWORD PTR _stk
  00023	2b 05 00 00 00
	00		 sub	 eax, DWORD PTR _stack
  00029	c1 f8 03	 sar	 eax, 3
  0002c	83 f8 02	 cmp	 eax, 2
  0002f	7d 07		 jge	 SHORT $LN2@P_div
  00031	e8 00 00 00 00	 call	 _stakunder
  00036	eb 5f		 jmp	 SHORT $LN3@P_div
$LN2@P_div:

; 611  : #ifndef NOMEMCHECK
; 612  :     if (S0 == 0) {

  00038	a1 00 00 00 00	 mov	 eax, DWORD PTR _stk
  0003d	89 85 3c ff ff
	ff		 mov	 DWORD PTR tv76[ebp], eax
  00043	8b 8d 3c ff ff
	ff		 mov	 ecx, DWORD PTR tv76[ebp]
  00049	8b 95 3c ff ff
	ff		 mov	 edx, DWORD PTR tv76[ebp]
  0004f	8b 41 f8	 mov	 eax, DWORD PTR [ecx-8]
  00052	0b 42 fc	 or	 eax, DWORD PTR [edx-4]
  00055	75 07		 jne	 SHORT $LN1@P_div

; 613  : 	divzero();

  00057	e8 00 00 00 00	 call	 _divzero

; 614  : 	return;

  0005c	eb 39		 jmp	 SHORT $LN3@P_div
$LN1@P_div:

; 615  :     }
; 616  : #endif /* NOMEMCHECK */
; 617  :     S1 /= S0;

  0005e	a1 00 00 00 00	 mov	 eax, DWORD PTR _stk
  00063	8b 0d 00 00 00
	00		 mov	 ecx, DWORD PTR _stk
  00069	8b 51 fc	 mov	 edx, DWORD PTR [ecx-4]
  0006c	52		 push	 edx
  0006d	8b 49 f8	 mov	 ecx, DWORD PTR [ecx-8]
  00070	51		 push	 ecx
  00071	8b 50 f4	 mov	 edx, DWORD PTR [eax-12]
  00074	52		 push	 edx
  00075	8b 40 f0	 mov	 eax, DWORD PTR [eax-16]
  00078	50		 push	 eax
  00079	e8 00 00 00 00	 call	 __alldiv
  0007e	8b 0d 00 00 00
	00		 mov	 ecx, DWORD PTR _stk
  00084	89 41 f0	 mov	 DWORD PTR [ecx-16], eax
  00087	89 51 f4	 mov	 DWORD PTR [ecx-12], edx

; 618  :     Pop;

  0008a	a1 00 00 00 00	 mov	 eax, DWORD PTR _stk
  0008f	83 e8 08	 sub	 eax, 8
  00092	a3 00 00 00 00	 mov	 DWORD PTR _stk, eax
$LN3@P_div:

; 619  : }

  00097	5f		 pop	 edi
  00098	5e		 pop	 esi
  00099	5b		 pop	 ebx
  0009a	81 c4 c4 00 00
	00		 add	 esp, 196		; 000000c4H
  000a0	3b ec		 cmp	 ebp, esp
  000a2	e8 00 00 00 00	 call	 __RTC_CheckEsp
  000a7	8b e5		 mov	 esp, ebp
  000a9	5d		 pop	 ebp
  000aa	c3		 ret	 0
_P_div	ENDP
_TEXT	ENDS
EXTRN	__allrem:PROC
; Function compile flags: /Odtp /RTCsu /ZI
;	COMDAT _P_mod
_TEXT	SEGMENT
tv76 = -196						; size = 4
_P_mod	PROC						; COMDAT

; 622  : {

  00000	55		 push	 ebp
  00001	8b ec		 mov	 ebp, esp
  00003	81 ec c4 00 00
	00		 sub	 esp, 196		; 000000c4H
  00009	53		 push	 ebx
  0000a	56		 push	 esi
  0000b	57		 push	 edi
  0000c	8d bd 3c ff ff
	ff		 lea	 edi, DWORD PTR [ebp-196]
  00012	b9 31 00 00 00	 mov	 ecx, 49			; 00000031H
  00017	b8 cc cc cc cc	 mov	 eax, -858993460		; ccccccccH
  0001c	f3 ab		 rep stosd

; 623  :     Sl(2);

  0001e	a1 00 00 00 00	 mov	 eax, DWORD PTR _stk
  00023	2b 05 00 00 00
	00		 sub	 eax, DWORD PTR _stack
  00029	c1 f8 03	 sar	 eax, 3
  0002c	83 f8 02	 cmp	 eax, 2
  0002f	7d 07		 jge	 SHORT $LN2@P_mod
  00031	e8 00 00 00 00	 call	 _stakunder
  00036	eb 5f		 jmp	 SHORT $LN3@P_mod
$LN2@P_mod:

; 624  : #ifndef NOMEMCHECK
; 625  :     if (S0 == 0) {

  00038	a1 00 00 00 00	 mov	 eax, DWORD PTR _stk
  0003d	89 85 3c ff ff
	ff		 mov	 DWORD PTR tv76[ebp], eax
  00043	8b 8d 3c ff ff
	ff		 mov	 ecx, DWORD PTR tv76[ebp]
  00049	8b 95 3c ff ff
	ff		 mov	 edx, DWORD PTR tv76[ebp]
  0004f	8b 41 f8	 mov	 eax, DWORD PTR [ecx-8]
  00052	0b 42 fc	 or	 eax, DWORD PTR [edx-4]
  00055	75 07		 jne	 SHORT $LN1@P_mod

; 626  : 	divzero();

  00057	e8 00 00 00 00	 call	 _divzero

; 627  : 	return;

  0005c	eb 39		 jmp	 SHORT $LN3@P_mod
$LN1@P_mod:

; 628  :     }
; 629  : #endif /* NOMEMCHECK */
; 630  :     S1 %= S0;

  0005e	a1 00 00 00 00	 mov	 eax, DWORD PTR _stk
  00063	8b 0d 00 00 00
	00		 mov	 ecx, DWORD PTR _stk
  00069	8b 51 fc	 mov	 edx, DWORD PTR [ecx-4]
  0006c	52		 push	 edx
  0006d	8b 49 f8	 mov	 ecx, DWORD PTR [ecx-8]
  00070	51		 push	 ecx
  00071	8b 50 f4	 mov	 edx, DWORD PTR [eax-12]
  00074	52		 push	 edx
  00075	8b 40 f0	 mov	 eax, DWORD PTR [eax-16]
  00078	50		 push	 eax
  00079	e8 00 00 00 00	 call	 __allrem
  0007e	8b 0d 00 00 00
	00		 mov	 ecx, DWORD PTR _stk
  00084	89 41 f0	 mov	 DWORD PTR [ecx-16], eax
  00087	89 51 f4	 mov	 DWORD PTR [ecx-12], edx

; 631  :     Pop;

  0008a	a1 00 00 00 00	 mov	 eax, DWORD PTR _stk
  0008f	83 e8 08	 sub	 eax, 8
  00092	a3 00 00 00 00	 mov	 DWORD PTR _stk, eax
$LN3@P_mod:

; 632  : }

  00097	5f		 pop	 edi
  00098	5e		 pop	 esi
  00099	5b		 pop	 ebx
  0009a	81 c4 c4 00 00
	00		 add	 esp, 196		; 000000c4H
  000a0	3b ec		 cmp	 ebp, esp
  000a2	e8 00 00 00 00	 call	 __RTC_CheckEsp
  000a7	8b e5		 mov	 esp, ebp
  000a9	5d		 pop	 ebp
  000aa	c3		 ret	 0
_P_mod	ENDP
; Function compile flags: /Odtp /RTCsu /ZI
_TEXT	ENDS
;	COMDAT _P_divmod
_TEXT	SEGMENT
tv79 = -212						; size = 4
_quot$ = -12						; size = 8
_P_divmod PROC						; COMDAT

; 635  : {

  00000	55		 push	 ebp
  00001	8b ec		 mov	 ebp, esp
  00003	81 ec d4 00 00
	00		 sub	 esp, 212		; 000000d4H
  00009	53		 push	 ebx
  0000a	56		 push	 esi
  0000b	57		 push	 edi
  0000c	8d bd 2c ff ff
	ff		 lea	 edi, DWORD PTR [ebp-212]
  00012	b9 35 00 00 00	 mov	 ecx, 53			; 00000035H
  00017	b8 cc cc cc cc	 mov	 eax, -858993460		; ccccccccH
  0001c	f3 ab		 rep stosd

; 636  :     stackitem quot;
; 637  : 
; 638  :     Sl(2);

  0001e	a1 00 00 00 00	 mov	 eax, DWORD PTR _stk
  00023	2b 05 00 00 00
	00		 sub	 eax, DWORD PTR _stack
  00029	c1 f8 03	 sar	 eax, 3
  0002c	83 f8 02	 cmp	 eax, 2
  0002f	7d 0a		 jge	 SHORT $LN2@P_divmod
  00031	e8 00 00 00 00	 call	 _stakunder
  00036	e9 89 00 00 00	 jmp	 $LN3@P_divmod
$LN2@P_divmod:

; 639  : #ifndef NOMEMCHECK
; 640  :     if (S0 == 0) {

  0003b	a1 00 00 00 00	 mov	 eax, DWORD PTR _stk
  00040	89 85 2c ff ff
	ff		 mov	 DWORD PTR tv79[ebp], eax
  00046	8b 8d 2c ff ff
	ff		 mov	 ecx, DWORD PTR tv79[ebp]
  0004c	8b 95 2c ff ff
	ff		 mov	 edx, DWORD PTR tv79[ebp]
  00052	8b 41 f8	 mov	 eax, DWORD PTR [ecx-8]
  00055	0b 42 fc	 or	 eax, DWORD PTR [edx-4]
  00058	75 07		 jne	 SHORT $LN1@P_divmod

; 641  : 	divzero();

  0005a	e8 00 00 00 00	 call	 _divzero

; 642  : 	return;

  0005f	eb 63		 jmp	 SHORT $LN3@P_divmod
$LN1@P_divmod:

; 643  :     }
; 644  : #endif /* NOMEMCHECK */
; 645  :     quot = S1 / S0;

  00061	a1 00 00 00 00	 mov	 eax, DWORD PTR _stk
  00066	8b 0d 00 00 00
	00		 mov	 ecx, DWORD PTR _stk
  0006c	8b 51 fc	 mov	 edx, DWORD PTR [ecx-4]
  0006f	52		 push	 edx
  00070	8b 49 f8	 mov	 ecx, DWORD PTR [ecx-8]
  00073	51		 push	 ecx
  00074	8b 50 f4	 mov	 edx, DWORD PTR [eax-12]
  00077	52		 push	 edx
  00078	8b 40 f0	 mov	 eax, DWORD PTR [eax-16]
  0007b	50		 push	 eax
  0007c	e8 00 00 00 00	 call	 __alldiv
  00081	89 45 f4	 mov	 DWORD PTR _quot$[ebp], eax
  00084	89 55 f8	 mov	 DWORD PTR _quot$[ebp+4], edx

; 646  :     S1 %= S0;

  00087	a1 00 00 00 00	 mov	 eax, DWORD PTR _stk
  0008c	8b 0d 00 00 00
	00		 mov	 ecx, DWORD PTR _stk
  00092	8b 51 fc	 mov	 edx, DWORD PTR [ecx-4]
  00095	52		 push	 edx
  00096	8b 49 f8	 mov	 ecx, DWORD PTR [ecx-8]
  00099	51		 push	 ecx
  0009a	8b 50 f4	 mov	 edx, DWORD PTR [eax-12]
  0009d	52		 push	 edx
  0009e	8b 40 f0	 mov	 eax, DWORD PTR [eax-16]
  000a1	50		 push	 eax
  000a2	e8 00 00 00 00	 call	 __allrem
  000a7	8b 0d 00 00 00
	00		 mov	 ecx, DWORD PTR _stk
  000ad	89 41 f0	 mov	 DWORD PTR [ecx-16], eax
  000b0	89 51 f4	 mov	 DWORD PTR [ecx-12], edx

; 647  :     S0 = quot;

  000b3	a1 00 00 00 00	 mov	 eax, DWORD PTR _stk
  000b8	8b 4d f4	 mov	 ecx, DWORD PTR _quot$[ebp]
  000bb	89 48 f8	 mov	 DWORD PTR [eax-8], ecx
  000be	8b 55 f8	 mov	 edx, DWORD PTR _quot$[ebp+4]
  000c1	89 50 fc	 mov	 DWORD PTR [eax-4], edx
$LN3@P_divmod:

; 648  : }

  000c4	5f		 pop	 edi
  000c5	5e		 pop	 esi
  000c6	5b		 pop	 ebx
  000c7	81 c4 d4 00 00
	00		 add	 esp, 212		; 000000d4H
  000cd	3b ec		 cmp	 ebp, esp
  000cf	e8 00 00 00 00	 call	 __RTC_CheckEsp
  000d4	8b e5		 mov	 esp, ebp
  000d6	5d		 pop	 ebp
  000d7	c3		 ret	 0
_P_divmod ENDP
; Function compile flags: /Odtp /RTCsu /ZI
_TEXT	ENDS
;	COMDAT _P_min
_TEXT	SEGMENT
tv73 = -208						; size = 8
tv79 = -200						; size = 4
tv78 = -196						; size = 4
_P_min	PROC						; COMDAT

; 651  : {

  00000	55		 push	 ebp
  00001	8b ec		 mov	 ebp, esp
  00003	81 ec d0 00 00
	00		 sub	 esp, 208		; 000000d0H
  00009	53		 push	 ebx
  0000a	56		 push	 esi
  0000b	57		 push	 edi
  0000c	8d bd 30 ff ff
	ff		 lea	 edi, DWORD PTR [ebp-208]
  00012	b9 34 00 00 00	 mov	 ecx, 52			; 00000034H
  00017	b8 cc cc cc cc	 mov	 eax, -858993460		; ccccccccH
  0001c	f3 ab		 rep stosd

; 652  :     Sl(2);

  0001e	a1 00 00 00 00	 mov	 eax, DWORD PTR _stk
  00023	2b 05 00 00 00
	00		 sub	 eax, DWORD PTR _stack
  00029	c1 f8 03	 sar	 eax, 3
  0002c	83 f8 02	 cmp	 eax, 2
  0002f	7d 0a		 jge	 SHORT $LN1@P_min
  00031	e8 00 00 00 00	 call	 _stakunder
  00036	e9 98 00 00 00	 jmp	 $LN2@P_min
$LN1@P_min:

; 653  :     S1 = min(S1, S0);

  0003b	a1 00 00 00 00	 mov	 eax, DWORD PTR _stk
  00040	8b 0d 00 00 00
	00		 mov	 ecx, DWORD PTR _stk
  00046	89 85 3c ff ff
	ff		 mov	 DWORD PTR tv78[ebp], eax
  0004c	89 8d 38 ff ff
	ff		 mov	 DWORD PTR tv79[ebp], ecx
  00052	8b 95 3c ff ff
	ff		 mov	 edx, DWORD PTR tv78[ebp]
  00058	8b 85 38 ff ff
	ff		 mov	 eax, DWORD PTR tv79[ebp]
  0005e	8b 4a f4	 mov	 ecx, DWORD PTR [edx-12]
  00061	3b 48 fc	 cmp	 ecx, DWORD PTR [eax-4]
  00064	7f 30		 jg	 SHORT $LN4@P_min
  00066	7c 14		 jl	 SHORT $LN6@P_min
  00068	8b 95 3c ff ff
	ff		 mov	 edx, DWORD PTR tv78[ebp]
  0006e	8b 85 38 ff ff
	ff		 mov	 eax, DWORD PTR tv79[ebp]
  00074	8b 4a f0	 mov	 ecx, DWORD PTR [edx-16]
  00077	3b 48 f8	 cmp	 ecx, DWORD PTR [eax-8]
  0007a	77 1a		 ja	 SHORT $LN4@P_min
$LN6@P_min:
  0007c	8b 15 00 00 00
	00		 mov	 edx, DWORD PTR _stk
  00082	8b 42 f0	 mov	 eax, DWORD PTR [edx-16]
  00085	89 85 30 ff ff
	ff		 mov	 DWORD PTR tv73[ebp], eax
  0008b	8b 4a f4	 mov	 ecx, DWORD PTR [edx-12]
  0008e	89 8d 34 ff ff
	ff		 mov	 DWORD PTR tv73[ebp+4], ecx
  00094	eb 18		 jmp	 SHORT $LN5@P_min
$LN4@P_min:
  00096	8b 15 00 00 00
	00		 mov	 edx, DWORD PTR _stk
  0009c	8b 42 f8	 mov	 eax, DWORD PTR [edx-8]
  0009f	89 85 30 ff ff
	ff		 mov	 DWORD PTR tv73[ebp], eax
  000a5	8b 4a fc	 mov	 ecx, DWORD PTR [edx-4]
  000a8	89 8d 34 ff ff
	ff		 mov	 DWORD PTR tv73[ebp+4], ecx
$LN5@P_min:
  000ae	8b 15 00 00 00
	00		 mov	 edx, DWORD PTR _stk
  000b4	8b 85 30 ff ff
	ff		 mov	 eax, DWORD PTR tv73[ebp]
  000ba	89 42 f0	 mov	 DWORD PTR [edx-16], eax
  000bd	8b 8d 34 ff ff
	ff		 mov	 ecx, DWORD PTR tv73[ebp+4]
  000c3	89 4a f4	 mov	 DWORD PTR [edx-12], ecx

; 654  :     Pop;

  000c6	a1 00 00 00 00	 mov	 eax, DWORD PTR _stk
  000cb	83 e8 08	 sub	 eax, 8
  000ce	a3 00 00 00 00	 mov	 DWORD PTR _stk, eax
$LN2@P_min:

; 655  : }

  000d3	5f		 pop	 edi
  000d4	5e		 pop	 esi
  000d5	5b		 pop	 ebx
  000d6	81 c4 d0 00 00
	00		 add	 esp, 208		; 000000d0H
  000dc	3b ec		 cmp	 ebp, esp
  000de	e8 00 00 00 00	 call	 __RTC_CheckEsp
  000e3	8b e5		 mov	 esp, ebp
  000e5	5d		 pop	 ebp
  000e6	c3		 ret	 0
_P_min	ENDP
; Function compile flags: /Odtp /RTCsu /ZI
_TEXT	ENDS
;	COMDAT _P_max
_TEXT	SEGMENT
tv73 = -208						; size = 8
tv79 = -200						; size = 4
tv78 = -196						; size = 4
_P_max	PROC						; COMDAT

; 658  : {

  00000	55		 push	 ebp
  00001	8b ec		 mov	 ebp, esp
  00003	81 ec d0 00 00
	00		 sub	 esp, 208		; 000000d0H
  00009	53		 push	 ebx
  0000a	56		 push	 esi
  0000b	57		 push	 edi
  0000c	8d bd 30 ff ff
	ff		 lea	 edi, DWORD PTR [ebp-208]
  00012	b9 34 00 00 00	 mov	 ecx, 52			; 00000034H
  00017	b8 cc cc cc cc	 mov	 eax, -858993460		; ccccccccH
  0001c	f3 ab		 rep stosd

; 659  :     Sl(2);

  0001e	a1 00 00 00 00	 mov	 eax, DWORD PTR _stk
  00023	2b 05 00 00 00
	00		 sub	 eax, DWORD PTR _stack
  00029	c1 f8 03	 sar	 eax, 3
  0002c	83 f8 02	 cmp	 eax, 2
  0002f	7d 0a		 jge	 SHORT $LN1@P_max
  00031	e8 00 00 00 00	 call	 _stakunder
  00036	e9 98 00 00 00	 jmp	 $LN2@P_max
$LN1@P_max:

; 660  :     S1 = max(S1, S0);

  0003b	a1 00 00 00 00	 mov	 eax, DWORD PTR _stk
  00040	8b 0d 00 00 00
	00		 mov	 ecx, DWORD PTR _stk
  00046	89 85 3c ff ff
	ff		 mov	 DWORD PTR tv78[ebp], eax
  0004c	89 8d 38 ff ff
	ff		 mov	 DWORD PTR tv79[ebp], ecx
  00052	8b 95 3c ff ff
	ff		 mov	 edx, DWORD PTR tv78[ebp]
  00058	8b 85 38 ff ff
	ff		 mov	 eax, DWORD PTR tv79[ebp]
  0005e	8b 4a f4	 mov	 ecx, DWORD PTR [edx-12]
  00061	3b 48 fc	 cmp	 ecx, DWORD PTR [eax-4]
  00064	7c 30		 jl	 SHORT $LN4@P_max
  00066	7f 14		 jg	 SHORT $LN6@P_max
  00068	8b 95 3c ff ff
	ff		 mov	 edx, DWORD PTR tv78[ebp]
  0006e	8b 85 38 ff ff
	ff		 mov	 eax, DWORD PTR tv79[ebp]
  00074	8b 4a f0	 mov	 ecx, DWORD PTR [edx-16]
  00077	3b 48 f8	 cmp	 ecx, DWORD PTR [eax-8]
  0007a	76 1a		 jbe	 SHORT $LN4@P_max
$LN6@P_max:
  0007c	8b 15 00 00 00
	00		 mov	 edx, DWORD PTR _stk
  00082	8b 42 f0	 mov	 eax, DWORD PTR [edx-16]
  00085	89 85 30 ff ff
	ff		 mov	 DWORD PTR tv73[ebp], eax
  0008b	8b 4a f4	 mov	 ecx, DWORD PTR [edx-12]
  0008e	89 8d 34 ff ff
	ff		 mov	 DWORD PTR tv73[ebp+4], ecx
  00094	eb 18		 jmp	 SHORT $LN5@P_max
$LN4@P_max:
  00096	8b 15 00 00 00
	00		 mov	 edx, DWORD PTR _stk
  0009c	8b 42 f8	 mov	 eax, DWORD PTR [edx-8]
  0009f	89 85 30 ff ff
	ff		 mov	 DWORD PTR tv73[ebp], eax
  000a5	8b 4a fc	 mov	 ecx, DWORD PTR [edx-4]
  000a8	89 8d 34 ff ff
	ff		 mov	 DWORD PTR tv73[ebp+4], ecx
$LN5@P_max:
  000ae	8b 15 00 00 00
	00		 mov	 edx, DWORD PTR _stk
  000b4	8b 85 30 ff ff
	ff		 mov	 eax, DWORD PTR tv73[ebp]
  000ba	89 42 f0	 mov	 DWORD PTR [edx-16], eax
  000bd	8b 8d 34 ff ff
	ff		 mov	 ecx, DWORD PTR tv73[ebp+4]
  000c3	89 4a f4	 mov	 DWORD PTR [edx-12], ecx

; 661  :     Pop;

  000c6	a1 00 00 00 00	 mov	 eax, DWORD PTR _stk
  000cb	83 e8 08	 sub	 eax, 8
  000ce	a3 00 00 00 00	 mov	 DWORD PTR _stk, eax
$LN2@P_max:

; 662  : }

  000d3	5f		 pop	 edi
  000d4	5e		 pop	 esi
  000d5	5b		 pop	 ebx
  000d6	81 c4 d0 00 00
	00		 add	 esp, 208		; 000000d0H
  000dc	3b ec		 cmp	 ebp, esp
  000de	e8 00 00 00 00	 call	 __RTC_CheckEsp
  000e3	8b e5		 mov	 esp, ebp
  000e5	5d		 pop	 ebp
  000e6	c3		 ret	 0
_P_max	ENDP
; Function compile flags: /Odtp /RTCsu /ZI
_TEXT	ENDS
;	COMDAT _P_neg
_TEXT	SEGMENT
_P_neg	PROC						; COMDAT

; 665  : {

  00000	55		 push	 ebp
  00001	8b ec		 mov	 ebp, esp
  00003	81 ec c0 00 00
	00		 sub	 esp, 192		; 000000c0H
  00009	53		 push	 ebx
  0000a	56		 push	 esi
  0000b	57		 push	 edi
  0000c	8d bd 40 ff ff
	ff		 lea	 edi, DWORD PTR [ebp-192]
  00012	b9 30 00 00 00	 mov	 ecx, 48			; 00000030H
  00017	b8 cc cc cc cc	 mov	 eax, -858993460		; ccccccccH
  0001c	f3 ab		 rep stosd

; 666  :     Sl(1);

  0001e	a1 00 00 00 00	 mov	 eax, DWORD PTR _stk
  00023	2b 05 00 00 00
	00		 sub	 eax, DWORD PTR _stack
  00029	c1 f8 03	 sar	 eax, 3
  0002c	83 f8 01	 cmp	 eax, 1
  0002f	7d 07		 jge	 SHORT $LN1@P_neg
  00031	e8 00 00 00 00	 call	 _stakunder
  00036	eb 1d		 jmp	 SHORT $LN2@P_neg
$LN1@P_neg:

; 667  :     S0 = - S0;

  00038	a1 00 00 00 00	 mov	 eax, DWORD PTR _stk
  0003d	8b 48 f8	 mov	 ecx, DWORD PTR [eax-8]
  00040	f7 d9		 neg	 ecx
  00042	8b 50 fc	 mov	 edx, DWORD PTR [eax-4]
  00045	83 d2 00	 adc	 edx, 0
  00048	f7 da		 neg	 edx
  0004a	a1 00 00 00 00	 mov	 eax, DWORD PTR _stk
  0004f	89 48 f8	 mov	 DWORD PTR [eax-8], ecx
  00052	89 50 fc	 mov	 DWORD PTR [eax-4], edx
$LN2@P_neg:

; 668  : }

  00055	5f		 pop	 edi
  00056	5e		 pop	 esi
  00057	5b		 pop	 ebx
  00058	81 c4 c0 00 00
	00		 add	 esp, 192		; 000000c0H
  0005e	3b ec		 cmp	 ebp, esp
  00060	e8 00 00 00 00	 call	 __RTC_CheckEsp
  00065	8b e5		 mov	 esp, ebp
  00067	5d		 pop	 ebp
  00068	c3		 ret	 0
_P_neg	ENDP
; Function compile flags: /Odtp /RTCsu /ZI
_TEXT	ENDS
;	COMDAT _P_abs
_TEXT	SEGMENT
tv73 = -204						; size = 8
tv76 = -196						; size = 4
_P_abs	PROC						; COMDAT

; 671  : {

  00000	55		 push	 ebp
  00001	8b ec		 mov	 ebp, esp
  00003	81 ec cc 00 00
	00		 sub	 esp, 204		; 000000ccH
  00009	53		 push	 ebx
  0000a	56		 push	 esi
  0000b	57		 push	 edi
  0000c	8d bd 34 ff ff
	ff		 lea	 edi, DWORD PTR [ebp-204]
  00012	b9 33 00 00 00	 mov	 ecx, 51			; 00000033H
  00017	b8 cc cc cc cc	 mov	 eax, -858993460		; ccccccccH
  0001c	f3 ab		 rep stosd

; 672  :     Sl(1);

  0001e	a1 00 00 00 00	 mov	 eax, DWORD PTR _stk
  00023	2b 05 00 00 00
	00		 sub	 eax, DWORD PTR _stack
  00029	c1 f8 03	 sar	 eax, 3
  0002c	83 f8 01	 cmp	 eax, 1
  0002f	7d 07		 jge	 SHORT $LN1@P_abs
  00031	e8 00 00 00 00	 call	 _stakunder
  00036	eb 73		 jmp	 SHORT $LN2@P_abs
$LN1@P_abs:

; 673  :     S0 = abs(S0);

  00038	a1 00 00 00 00	 mov	 eax, DWORD PTR _stk
  0003d	89 85 3c ff ff
	ff		 mov	 DWORD PTR tv76[ebp], eax
  00043	8b 8d 3c ff ff
	ff		 mov	 ecx, DWORD PTR tv76[ebp]
  00049	83 79 fc 00	 cmp	 DWORD PTR [ecx-4], 0
  0004d	7f 2e		 jg	 SHORT $LN4@P_abs
  0004f	7c 0c		 jl	 SHORT $LN6@P_abs
  00051	8b 95 3c ff ff
	ff		 mov	 edx, DWORD PTR tv76[ebp]
  00057	83 7a f8 00	 cmp	 DWORD PTR [edx-8], 0
  0005b	73 20		 jae	 SHORT $LN4@P_abs
$LN6@P_abs:
  0005d	a1 00 00 00 00	 mov	 eax, DWORD PTR _stk
  00062	8b 48 f8	 mov	 ecx, DWORD PTR [eax-8]
  00065	f7 d9		 neg	 ecx
  00067	8b 50 fc	 mov	 edx, DWORD PTR [eax-4]
  0006a	83 d2 00	 adc	 edx, 0
  0006d	f7 da		 neg	 edx
  0006f	89 8d 34 ff ff
	ff		 mov	 DWORD PTR tv73[ebp], ecx
  00075	89 95 38 ff ff
	ff		 mov	 DWORD PTR tv73[ebp+4], edx
  0007b	eb 17		 jmp	 SHORT $LN5@P_abs
$LN4@P_abs:
  0007d	a1 00 00 00 00	 mov	 eax, DWORD PTR _stk
  00082	8b 48 f8	 mov	 ecx, DWORD PTR [eax-8]
  00085	89 8d 34 ff ff
	ff		 mov	 DWORD PTR tv73[ebp], ecx
  0008b	8b 50 fc	 mov	 edx, DWORD PTR [eax-4]
  0008e	89 95 38 ff ff
	ff		 mov	 DWORD PTR tv73[ebp+4], edx
$LN5@P_abs:
  00094	a1 00 00 00 00	 mov	 eax, DWORD PTR _stk
  00099	8b 8d 34 ff ff
	ff		 mov	 ecx, DWORD PTR tv73[ebp]
  0009f	89 48 f8	 mov	 DWORD PTR [eax-8], ecx
  000a2	8b 95 38 ff ff
	ff		 mov	 edx, DWORD PTR tv73[ebp+4]
  000a8	89 50 fc	 mov	 DWORD PTR [eax-4], edx
$LN2@P_abs:

; 674  : }

  000ab	5f		 pop	 edi
  000ac	5e		 pop	 esi
  000ad	5b		 pop	 ebx
  000ae	81 c4 cc 00 00
	00		 add	 esp, 204		; 000000ccH
  000b4	3b ec		 cmp	 ebp, esp
  000b6	e8 00 00 00 00	 call	 __RTC_CheckEsp
  000bb	8b e5		 mov	 esp, ebp
  000bd	5d		 pop	 ebp
  000be	c3		 ret	 0
_P_abs	ENDP
; Function compile flags: /Odtp /RTCsu /ZI
_TEXT	ENDS
;	COMDAT _P_equal
_TEXT	SEGMENT
tv71 = -204						; size = 4
tv78 = -200						; size = 4
tv77 = -196						; size = 4
_P_equal PROC						; COMDAT

; 677  : {

  00000	55		 push	 ebp
  00001	8b ec		 mov	 ebp, esp
  00003	81 ec cc 00 00
	00		 sub	 esp, 204		; 000000ccH
  00009	53		 push	 ebx
  0000a	56		 push	 esi
  0000b	57		 push	 edi
  0000c	8d bd 34 ff ff
	ff		 lea	 edi, DWORD PTR [ebp-204]
  00012	b9 33 00 00 00	 mov	 ecx, 51			; 00000033H
  00017	b8 cc cc cc cc	 mov	 eax, -858993460		; ccccccccH
  0001c	f3 ab		 rep stosd

; 678  :     Sl(2);

  0001e	a1 00 00 00 00	 mov	 eax, DWORD PTR _stk
  00023	2b 05 00 00 00
	00		 sub	 eax, DWORD PTR _stack
  00029	c1 f8 03	 sar	 eax, 3
  0002c	83 f8 02	 cmp	 eax, 2
  0002f	7d 07		 jge	 SHORT $LN1@P_equal
  00031	e8 00 00 00 00	 call	 _stakunder
  00036	eb 75		 jmp	 SHORT $LN2@P_equal
$LN1@P_equal:

; 679  :     S1 = (S1 == S0) ? Truth : Falsity;

  00038	a1 00 00 00 00	 mov	 eax, DWORD PTR _stk
  0003d	8b 0d 00 00 00
	00		 mov	 ecx, DWORD PTR _stk
  00043	89 85 3c ff ff
	ff		 mov	 DWORD PTR tv77[ebp], eax
  00049	89 8d 38 ff ff
	ff		 mov	 DWORD PTR tv78[ebp], ecx
  0004f	8b 95 3c ff ff
	ff		 mov	 edx, DWORD PTR tv77[ebp]
  00055	8b 85 38 ff ff
	ff		 mov	 eax, DWORD PTR tv78[ebp]
  0005b	8b 4a f0	 mov	 ecx, DWORD PTR [edx-16]
  0005e	3b 48 f8	 cmp	 ecx, DWORD PTR [eax-8]
  00061	75 20		 jne	 SHORT $LN4@P_equal
  00063	8b 95 3c ff ff
	ff		 mov	 edx, DWORD PTR tv77[ebp]
  00069	8b 85 38 ff ff
	ff		 mov	 eax, DWORD PTR tv78[ebp]
  0006f	8b 4a f4	 mov	 ecx, DWORD PTR [edx-12]
  00072	3b 48 fc	 cmp	 ecx, DWORD PTR [eax-4]
  00075	75 0c		 jne	 SHORT $LN4@P_equal
  00077	c7 85 34 ff ff
	ff ff ff ff ff	 mov	 DWORD PTR tv71[ebp], -1
  00081	eb 0a		 jmp	 SHORT $LN5@P_equal
$LN4@P_equal:
  00083	c7 85 34 ff ff
	ff 00 00 00 00	 mov	 DWORD PTR tv71[ebp], 0
$LN5@P_equal:
  0008d	8b 85 34 ff ff
	ff		 mov	 eax, DWORD PTR tv71[ebp]
  00093	99		 cdq
  00094	8b 0d 00 00 00
	00		 mov	 ecx, DWORD PTR _stk
  0009a	89 41 f0	 mov	 DWORD PTR [ecx-16], eax
  0009d	89 51 f4	 mov	 DWORD PTR [ecx-12], edx

; 680  :     Pop;

  000a0	a1 00 00 00 00	 mov	 eax, DWORD PTR _stk
  000a5	83 e8 08	 sub	 eax, 8
  000a8	a3 00 00 00 00	 mov	 DWORD PTR _stk, eax
$LN2@P_equal:

; 681  : }

  000ad	5f		 pop	 edi
  000ae	5e		 pop	 esi
  000af	5b		 pop	 ebx
  000b0	81 c4 cc 00 00
	00		 add	 esp, 204		; 000000ccH
  000b6	3b ec		 cmp	 ebp, esp
  000b8	e8 00 00 00 00	 call	 __RTC_CheckEsp
  000bd	8b e5		 mov	 esp, ebp
  000bf	5d		 pop	 ebp
  000c0	c3		 ret	 0
_P_equal ENDP
; Function compile flags: /Odtp /RTCsu /ZI
_TEXT	ENDS
;	COMDAT _P_unequal
_TEXT	SEGMENT
tv71 = -204						; size = 4
tv78 = -200						; size = 4
tv77 = -196						; size = 4
_P_unequal PROC						; COMDAT

; 684  : {

  00000	55		 push	 ebp
  00001	8b ec		 mov	 ebp, esp
  00003	81 ec cc 00 00
	00		 sub	 esp, 204		; 000000ccH
  00009	53		 push	 ebx
  0000a	56		 push	 esi
  0000b	57		 push	 edi
  0000c	8d bd 34 ff ff
	ff		 lea	 edi, DWORD PTR [ebp-204]
  00012	b9 33 00 00 00	 mov	 ecx, 51			; 00000033H
  00017	b8 cc cc cc cc	 mov	 eax, -858993460		; ccccccccH
  0001c	f3 ab		 rep stosd

; 685  :     Sl(2);

  0001e	a1 00 00 00 00	 mov	 eax, DWORD PTR _stk
  00023	2b 05 00 00 00
	00		 sub	 eax, DWORD PTR _stack
  00029	c1 f8 03	 sar	 eax, 3
  0002c	83 f8 02	 cmp	 eax, 2
  0002f	7d 07		 jge	 SHORT $LN1@P_unequal
  00031	e8 00 00 00 00	 call	 _stakunder
  00036	eb 75		 jmp	 SHORT $LN2@P_unequal
$LN1@P_unequal:

; 686  :     S1 = (S1 != S0) ? Truth : Falsity;

  00038	a1 00 00 00 00	 mov	 eax, DWORD PTR _stk
  0003d	8b 0d 00 00 00
	00		 mov	 ecx, DWORD PTR _stk
  00043	89 85 3c ff ff
	ff		 mov	 DWORD PTR tv77[ebp], eax
  00049	89 8d 38 ff ff
	ff		 mov	 DWORD PTR tv78[ebp], ecx
  0004f	8b 95 3c ff ff
	ff		 mov	 edx, DWORD PTR tv77[ebp]
  00055	8b 85 38 ff ff
	ff		 mov	 eax, DWORD PTR tv78[ebp]
  0005b	8b 4a f0	 mov	 ecx, DWORD PTR [edx-16]
  0005e	3b 48 f8	 cmp	 ecx, DWORD PTR [eax-8]
  00061	75 14		 jne	 SHORT $LN6@P_unequal
  00063	8b 95 3c ff ff
	ff		 mov	 edx, DWORD PTR tv77[ebp]
  00069	8b 85 38 ff ff
	ff		 mov	 eax, DWORD PTR tv78[ebp]
  0006f	8b 4a f4	 mov	 ecx, DWORD PTR [edx-12]
  00072	3b 48 fc	 cmp	 ecx, DWORD PTR [eax-4]
  00075	74 0c		 je	 SHORT $LN4@P_unequal
$LN6@P_unequal:
  00077	c7 85 34 ff ff
	ff ff ff ff ff	 mov	 DWORD PTR tv71[ebp], -1
  00081	eb 0a		 jmp	 SHORT $LN5@P_unequal
$LN4@P_unequal:
  00083	c7 85 34 ff ff
	ff 00 00 00 00	 mov	 DWORD PTR tv71[ebp], 0
$LN5@P_unequal:
  0008d	8b 85 34 ff ff
	ff		 mov	 eax, DWORD PTR tv71[ebp]
  00093	99		 cdq
  00094	8b 0d 00 00 00
	00		 mov	 ecx, DWORD PTR _stk
  0009a	89 41 f0	 mov	 DWORD PTR [ecx-16], eax
  0009d	89 51 f4	 mov	 DWORD PTR [ecx-12], edx

; 687  :     Pop;

  000a0	a1 00 00 00 00	 mov	 eax, DWORD PTR _stk
  000a5	83 e8 08	 sub	 eax, 8
  000a8	a3 00 00 00 00	 mov	 DWORD PTR _stk, eax
$LN2@P_unequal:

; 688  : }

  000ad	5f		 pop	 edi
  000ae	5e		 pop	 esi
  000af	5b		 pop	 ebx
  000b0	81 c4 cc 00 00
	00		 add	 esp, 204		; 000000ccH
  000b6	3b ec		 cmp	 ebp, esp
  000b8	e8 00 00 00 00	 call	 __RTC_CheckEsp
  000bd	8b e5		 mov	 esp, ebp
  000bf	5d		 pop	 ebp
  000c0	c3		 ret	 0
_P_unequal ENDP
; Function compile flags: /Odtp /RTCsu /ZI
_TEXT	ENDS
;	COMDAT _P_gtr
_TEXT	SEGMENT
tv71 = -204						; size = 4
tv78 = -200						; size = 4
tv77 = -196						; size = 4
_P_gtr	PROC						; COMDAT

; 691  : {

  00000	55		 push	 ebp
  00001	8b ec		 mov	 ebp, esp
  00003	81 ec cc 00 00
	00		 sub	 esp, 204		; 000000ccH
  00009	53		 push	 ebx
  0000a	56		 push	 esi
  0000b	57		 push	 edi
  0000c	8d bd 34 ff ff
	ff		 lea	 edi, DWORD PTR [ebp-204]
  00012	b9 33 00 00 00	 mov	 ecx, 51			; 00000033H
  00017	b8 cc cc cc cc	 mov	 eax, -858993460		; ccccccccH
  0001c	f3 ab		 rep stosd

; 692  :     Sl(2);

  0001e	a1 00 00 00 00	 mov	 eax, DWORD PTR _stk
  00023	2b 05 00 00 00
	00		 sub	 eax, DWORD PTR _stack
  00029	c1 f8 03	 sar	 eax, 3
  0002c	83 f8 02	 cmp	 eax, 2
  0002f	7d 07		 jge	 SHORT $LN1@P_gtr
  00031	e8 00 00 00 00	 call	 _stakunder
  00036	eb 77		 jmp	 SHORT $LN2@P_gtr
$LN1@P_gtr:

; 693  :     S1 = (S1 > S0) ? Truth : Falsity;

  00038	a1 00 00 00 00	 mov	 eax, DWORD PTR _stk
  0003d	8b 0d 00 00 00
	00		 mov	 ecx, DWORD PTR _stk
  00043	89 85 3c ff ff
	ff		 mov	 DWORD PTR tv77[ebp], eax
  00049	89 8d 38 ff ff
	ff		 mov	 DWORD PTR tv78[ebp], ecx
  0004f	8b 95 3c ff ff
	ff		 mov	 edx, DWORD PTR tv77[ebp]
  00055	8b 85 38 ff ff
	ff		 mov	 eax, DWORD PTR tv78[ebp]
  0005b	8b 4a f4	 mov	 ecx, DWORD PTR [edx-12]
  0005e	3b 48 fc	 cmp	 ecx, DWORD PTR [eax-4]
  00061	7c 22		 jl	 SHORT $LN4@P_gtr
  00063	7f 14		 jg	 SHORT $LN6@P_gtr
  00065	8b 95 3c ff ff
	ff		 mov	 edx, DWORD PTR tv77[ebp]
  0006b	8b 85 38 ff ff
	ff		 mov	 eax, DWORD PTR tv78[ebp]
  00071	8b 4a f0	 mov	 ecx, DWORD PTR [edx-16]
  00074	3b 48 f8	 cmp	 ecx, DWORD PTR [eax-8]
  00077	76 0c		 jbe	 SHORT $LN4@P_gtr
$LN6@P_gtr:
  00079	c7 85 34 ff ff
	ff ff ff ff ff	 mov	 DWORD PTR tv71[ebp], -1
  00083	eb 0a		 jmp	 SHORT $LN5@P_gtr
$LN4@P_gtr:
  00085	c7 85 34 ff ff
	ff 00 00 00 00	 mov	 DWORD PTR tv71[ebp], 0
$LN5@P_gtr:
  0008f	8b 85 34 ff ff
	ff		 mov	 eax, DWORD PTR tv71[ebp]
  00095	99		 cdq
  00096	8b 0d 00 00 00
	00		 mov	 ecx, DWORD PTR _stk
  0009c	89 41 f0	 mov	 DWORD PTR [ecx-16], eax
  0009f	89 51 f4	 mov	 DWORD PTR [ecx-12], edx

; 694  :     Pop;

  000a2	a1 00 00 00 00	 mov	 eax, DWORD PTR _stk
  000a7	83 e8 08	 sub	 eax, 8
  000aa	a3 00 00 00 00	 mov	 DWORD PTR _stk, eax
$LN2@P_gtr:

; 695  : }

  000af	5f		 pop	 edi
  000b0	5e		 pop	 esi
  000b1	5b		 pop	 ebx
  000b2	81 c4 cc 00 00
	00		 add	 esp, 204		; 000000ccH
  000b8	3b ec		 cmp	 ebp, esp
  000ba	e8 00 00 00 00	 call	 __RTC_CheckEsp
  000bf	8b e5		 mov	 esp, ebp
  000c1	5d		 pop	 ebp
  000c2	c3		 ret	 0
_P_gtr	ENDP
; Function compile flags: /Odtp /RTCsu /ZI
_TEXT	ENDS
;	COMDAT _P_lss
_TEXT	SEGMENT
tv71 = -204						; size = 4
tv78 = -200						; size = 4
tv77 = -196						; size = 4
_P_lss	PROC						; COMDAT

; 698  : {

  00000	55		 push	 ebp
  00001	8b ec		 mov	 ebp, esp
  00003	81 ec cc 00 00
	00		 sub	 esp, 204		; 000000ccH
  00009	53		 push	 ebx
  0000a	56		 push	 esi
  0000b	57		 push	 edi
  0000c	8d bd 34 ff ff
	ff		 lea	 edi, DWORD PTR [ebp-204]
  00012	b9 33 00 00 00	 mov	 ecx, 51			; 00000033H
  00017	b8 cc cc cc cc	 mov	 eax, -858993460		; ccccccccH
  0001c	f3 ab		 rep stosd

; 699  :     Sl(2);

  0001e	a1 00 00 00 00	 mov	 eax, DWORD PTR _stk
  00023	2b 05 00 00 00
	00		 sub	 eax, DWORD PTR _stack
  00029	c1 f8 03	 sar	 eax, 3
  0002c	83 f8 02	 cmp	 eax, 2
  0002f	7d 07		 jge	 SHORT $LN1@P_lss
  00031	e8 00 00 00 00	 call	 _stakunder
  00036	eb 77		 jmp	 SHORT $LN2@P_lss
$LN1@P_lss:

; 700  :     S1 = (S1 < S0) ? Truth : Falsity;

  00038	a1 00 00 00 00	 mov	 eax, DWORD PTR _stk
  0003d	8b 0d 00 00 00
	00		 mov	 ecx, DWORD PTR _stk
  00043	89 85 3c ff ff
	ff		 mov	 DWORD PTR tv77[ebp], eax
  00049	89 8d 38 ff ff
	ff		 mov	 DWORD PTR tv78[ebp], ecx
  0004f	8b 95 3c ff ff
	ff		 mov	 edx, DWORD PTR tv77[ebp]
  00055	8b 85 38 ff ff
	ff		 mov	 eax, DWORD PTR tv78[ebp]
  0005b	8b 4a f4	 mov	 ecx, DWORD PTR [edx-12]
  0005e	3b 48 fc	 cmp	 ecx, DWORD PTR [eax-4]
  00061	7f 22		 jg	 SHORT $LN4@P_lss
  00063	7c 14		 jl	 SHORT $LN6@P_lss
  00065	8b 95 3c ff ff
	ff		 mov	 edx, DWORD PTR tv77[ebp]
  0006b	8b 85 38 ff ff
	ff		 mov	 eax, DWORD PTR tv78[ebp]
  00071	8b 4a f0	 mov	 ecx, DWORD PTR [edx-16]
  00074	3b 48 f8	 cmp	 ecx, DWORD PTR [eax-8]
  00077	73 0c		 jae	 SHORT $LN4@P_lss
$LN6@P_lss:
  00079	c7 85 34 ff ff
	ff ff ff ff ff	 mov	 DWORD PTR tv71[ebp], -1
  00083	eb 0a		 jmp	 SHORT $LN5@P_lss
$LN4@P_lss:
  00085	c7 85 34 ff ff
	ff 00 00 00 00	 mov	 DWORD PTR tv71[ebp], 0
$LN5@P_lss:
  0008f	8b 85 34 ff ff
	ff		 mov	 eax, DWORD PTR tv71[ebp]
  00095	99		 cdq
  00096	8b 0d 00 00 00
	00		 mov	 ecx, DWORD PTR _stk
  0009c	89 41 f0	 mov	 DWORD PTR [ecx-16], eax
  0009f	89 51 f4	 mov	 DWORD PTR [ecx-12], edx

; 701  :     Pop;

  000a2	a1 00 00 00 00	 mov	 eax, DWORD PTR _stk
  000a7	83 e8 08	 sub	 eax, 8
  000aa	a3 00 00 00 00	 mov	 DWORD PTR _stk, eax
$LN2@P_lss:

; 702  : }

  000af	5f		 pop	 edi
  000b0	5e		 pop	 esi
  000b1	5b		 pop	 ebx
  000b2	81 c4 cc 00 00
	00		 add	 esp, 204		; 000000ccH
  000b8	3b ec		 cmp	 ebp, esp
  000ba	e8 00 00 00 00	 call	 __RTC_CheckEsp
  000bf	8b e5		 mov	 esp, ebp
  000c1	5d		 pop	 ebp
  000c2	c3		 ret	 0
_P_lss	ENDP
; Function compile flags: /Odtp /RTCsu /ZI
_TEXT	ENDS
;	COMDAT _P_geq
_TEXT	SEGMENT
tv71 = -204						; size = 4
tv78 = -200						; size = 4
tv77 = -196						; size = 4
_P_geq	PROC						; COMDAT

; 705  : {

  00000	55		 push	 ebp
  00001	8b ec		 mov	 ebp, esp
  00003	81 ec cc 00 00
	00		 sub	 esp, 204		; 000000ccH
  00009	53		 push	 ebx
  0000a	56		 push	 esi
  0000b	57		 push	 edi
  0000c	8d bd 34 ff ff
	ff		 lea	 edi, DWORD PTR [ebp-204]
  00012	b9 33 00 00 00	 mov	 ecx, 51			; 00000033H
  00017	b8 cc cc cc cc	 mov	 eax, -858993460		; ccccccccH
  0001c	f3 ab		 rep stosd

; 706  :     Sl(2);

  0001e	a1 00 00 00 00	 mov	 eax, DWORD PTR _stk
  00023	2b 05 00 00 00
	00		 sub	 eax, DWORD PTR _stack
  00029	c1 f8 03	 sar	 eax, 3
  0002c	83 f8 02	 cmp	 eax, 2
  0002f	7d 07		 jge	 SHORT $LN1@P_geq
  00031	e8 00 00 00 00	 call	 _stakunder
  00036	eb 77		 jmp	 SHORT $LN2@P_geq
$LN1@P_geq:

; 707  :     S1 = (S1 >= S0) ? Truth : Falsity;

  00038	a1 00 00 00 00	 mov	 eax, DWORD PTR _stk
  0003d	8b 0d 00 00 00
	00		 mov	 ecx, DWORD PTR _stk
  00043	89 85 3c ff ff
	ff		 mov	 DWORD PTR tv77[ebp], eax
  00049	89 8d 38 ff ff
	ff		 mov	 DWORD PTR tv78[ebp], ecx
  0004f	8b 95 3c ff ff
	ff		 mov	 edx, DWORD PTR tv77[ebp]
  00055	8b 85 38 ff ff
	ff		 mov	 eax, DWORD PTR tv78[ebp]
  0005b	8b 4a f4	 mov	 ecx, DWORD PTR [edx-12]
  0005e	3b 48 fc	 cmp	 ecx, DWORD PTR [eax-4]
  00061	7c 22		 jl	 SHORT $LN4@P_geq
  00063	7f 14		 jg	 SHORT $LN6@P_geq
  00065	8b 95 3c ff ff
	ff		 mov	 edx, DWORD PTR tv77[ebp]
  0006b	8b 85 38 ff ff
	ff		 mov	 eax, DWORD PTR tv78[ebp]
  00071	8b 4a f0	 mov	 ecx, DWORD PTR [edx-16]
  00074	3b 48 f8	 cmp	 ecx, DWORD PTR [eax-8]
  00077	72 0c		 jb	 SHORT $LN4@P_geq
$LN6@P_geq:
  00079	c7 85 34 ff ff
	ff ff ff ff ff	 mov	 DWORD PTR tv71[ebp], -1
  00083	eb 0a		 jmp	 SHORT $LN5@P_geq
$LN4@P_geq:
  00085	c7 85 34 ff ff
	ff 00 00 00 00	 mov	 DWORD PTR tv71[ebp], 0
$LN5@P_geq:
  0008f	8b 85 34 ff ff
	ff		 mov	 eax, DWORD PTR tv71[ebp]
  00095	99		 cdq
  00096	8b 0d 00 00 00
	00		 mov	 ecx, DWORD PTR _stk
  0009c	89 41 f0	 mov	 DWORD PTR [ecx-16], eax
  0009f	89 51 f4	 mov	 DWORD PTR [ecx-12], edx

; 708  :     Pop;

  000a2	a1 00 00 00 00	 mov	 eax, DWORD PTR _stk
  000a7	83 e8 08	 sub	 eax, 8
  000aa	a3 00 00 00 00	 mov	 DWORD PTR _stk, eax
$LN2@P_geq:

; 709  : }

  000af	5f		 pop	 edi
  000b0	5e		 pop	 esi
  000b1	5b		 pop	 ebx
  000b2	81 c4 cc 00 00
	00		 add	 esp, 204		; 000000ccH
  000b8	3b ec		 cmp	 ebp, esp
  000ba	e8 00 00 00 00	 call	 __RTC_CheckEsp
  000bf	8b e5		 mov	 esp, ebp
  000c1	5d		 pop	 ebp
  000c2	c3		 ret	 0
_P_geq	ENDP
; Function compile flags: /Odtp /RTCsu /ZI
_TEXT	ENDS
;	COMDAT _P_leq
_TEXT	SEGMENT
tv71 = -204						; size = 4
tv78 = -200						; size = 4
tv77 = -196						; size = 4
_P_leq	PROC						; COMDAT

; 712  : {

  00000	55		 push	 ebp
  00001	8b ec		 mov	 ebp, esp
  00003	81 ec cc 00 00
	00		 sub	 esp, 204		; 000000ccH
  00009	53		 push	 ebx
  0000a	56		 push	 esi
  0000b	57		 push	 edi
  0000c	8d bd 34 ff ff
	ff		 lea	 edi, DWORD PTR [ebp-204]
  00012	b9 33 00 00 00	 mov	 ecx, 51			; 00000033H
  00017	b8 cc cc cc cc	 mov	 eax, -858993460		; ccccccccH
  0001c	f3 ab		 rep stosd

; 713  :     Sl(2);

  0001e	a1 00 00 00 00	 mov	 eax, DWORD PTR _stk
  00023	2b 05 00 00 00
	00		 sub	 eax, DWORD PTR _stack
  00029	c1 f8 03	 sar	 eax, 3
  0002c	83 f8 02	 cmp	 eax, 2
  0002f	7d 07		 jge	 SHORT $LN1@P_leq
  00031	e8 00 00 00 00	 call	 _stakunder
  00036	eb 77		 jmp	 SHORT $LN2@P_leq
$LN1@P_leq:

; 714  :     S1 = (S1 <= S0) ? Truth : Falsity;

  00038	a1 00 00 00 00	 mov	 eax, DWORD PTR _stk
  0003d	8b 0d 00 00 00
	00		 mov	 ecx, DWORD PTR _stk
  00043	89 85 3c ff ff
	ff		 mov	 DWORD PTR tv77[ebp], eax
  00049	89 8d 38 ff ff
	ff		 mov	 DWORD PTR tv78[ebp], ecx
  0004f	8b 95 3c ff ff
	ff		 mov	 edx, DWORD PTR tv77[ebp]
  00055	8b 85 38 ff ff
	ff		 mov	 eax, DWORD PTR tv78[ebp]
  0005b	8b 4a f4	 mov	 ecx, DWORD PTR [edx-12]
  0005e	3b 48 fc	 cmp	 ecx, DWORD PTR [eax-4]
  00061	7f 22		 jg	 SHORT $LN4@P_leq
  00063	7c 14		 jl	 SHORT $LN6@P_leq
  00065	8b 95 3c ff ff
	ff		 mov	 edx, DWORD PTR tv77[ebp]
  0006b	8b 85 38 ff ff
	ff		 mov	 eax, DWORD PTR tv78[ebp]
  00071	8b 4a f0	 mov	 ecx, DWORD PTR [edx-16]
  00074	3b 48 f8	 cmp	 ecx, DWORD PTR [eax-8]
  00077	77 0c		 ja	 SHORT $LN4@P_leq
$LN6@P_leq:
  00079	c7 85 34 ff ff
	ff ff ff ff ff	 mov	 DWORD PTR tv71[ebp], -1
  00083	eb 0a		 jmp	 SHORT $LN5@P_leq
$LN4@P_leq:
  00085	c7 85 34 ff ff
	ff 00 00 00 00	 mov	 DWORD PTR tv71[ebp], 0
$LN5@P_leq:
  0008f	8b 85 34 ff ff
	ff		 mov	 eax, DWORD PTR tv71[ebp]
  00095	99		 cdq
  00096	8b 0d 00 00 00
	00		 mov	 ecx, DWORD PTR _stk
  0009c	89 41 f0	 mov	 DWORD PTR [ecx-16], eax
  0009f	89 51 f4	 mov	 DWORD PTR [ecx-12], edx

; 715  :     Pop;

  000a2	a1 00 00 00 00	 mov	 eax, DWORD PTR _stk
  000a7	83 e8 08	 sub	 eax, 8
  000aa	a3 00 00 00 00	 mov	 DWORD PTR _stk, eax
$LN2@P_leq:

; 716  : }

  000af	5f		 pop	 edi
  000b0	5e		 pop	 esi
  000b1	5b		 pop	 ebx
  000b2	81 c4 cc 00 00
	00		 add	 esp, 204		; 000000ccH
  000b8	3b ec		 cmp	 ebp, esp
  000ba	e8 00 00 00 00	 call	 __RTC_CheckEsp
  000bf	8b e5		 mov	 esp, ebp
  000c1	5d		 pop	 ebp
  000c2	c3		 ret	 0
_P_leq	ENDP
; Function compile flags: /Odtp /RTCsu /ZI
_TEXT	ENDS
;	COMDAT _P_and
_TEXT	SEGMENT
_P_and	PROC						; COMDAT

; 719  : {

  00000	55		 push	 ebp
  00001	8b ec		 mov	 ebp, esp
  00003	81 ec c0 00 00
	00		 sub	 esp, 192		; 000000c0H
  00009	53		 push	 ebx
  0000a	56		 push	 esi
  0000b	57		 push	 edi
  0000c	8d bd 40 ff ff
	ff		 lea	 edi, DWORD PTR [ebp-192]
  00012	b9 30 00 00 00	 mov	 ecx, 48			; 00000030H
  00017	b8 cc cc cc cc	 mov	 eax, -858993460		; ccccccccH
  0001c	f3 ab		 rep stosd

; 720  :     Sl(2);

  0001e	a1 00 00 00 00	 mov	 eax, DWORD PTR _stk
  00023	2b 05 00 00 00
	00		 sub	 eax, DWORD PTR _stack
  00029	c1 f8 03	 sar	 eax, 3
  0002c	83 f8 02	 cmp	 eax, 2
  0002f	7d 07		 jge	 SHORT $LN1@P_and
  00031	e8 00 00 00 00	 call	 _stakunder
  00036	eb 30		 jmp	 SHORT $LN2@P_and
$LN1@P_and:

; 721  : /* printf("AND %lx & %lx = %lx\n", S1, S0, (S1 & S0)); */
; 722  :     S1 &= S0;

  00038	a1 00 00 00 00	 mov	 eax, DWORD PTR _stk
  0003d	8b 0d 00 00 00
	00		 mov	 ecx, DWORD PTR _stk
  00043	8b 50 f0	 mov	 edx, DWORD PTR [eax-16]
  00046	23 51 f8	 and	 edx, DWORD PTR [ecx-8]
  00049	8b 40 f4	 mov	 eax, DWORD PTR [eax-12]
  0004c	23 41 fc	 and	 eax, DWORD PTR [ecx-4]
  0004f	8b 0d 00 00 00
	00		 mov	 ecx, DWORD PTR _stk
  00055	89 51 f0	 mov	 DWORD PTR [ecx-16], edx
  00058	89 41 f4	 mov	 DWORD PTR [ecx-12], eax

; 723  :     Pop;

  0005b	a1 00 00 00 00	 mov	 eax, DWORD PTR _stk
  00060	83 e8 08	 sub	 eax, 8
  00063	a3 00 00 00 00	 mov	 DWORD PTR _stk, eax
$LN2@P_and:

; 724  : }

  00068	5f		 pop	 edi
  00069	5e		 pop	 esi
  0006a	5b		 pop	 ebx
  0006b	81 c4 c0 00 00
	00		 add	 esp, 192		; 000000c0H
  00071	3b ec		 cmp	 ebp, esp
  00073	e8 00 00 00 00	 call	 __RTC_CheckEsp
  00078	8b e5		 mov	 esp, ebp
  0007a	5d		 pop	 ebp
  0007b	c3		 ret	 0
_P_and	ENDP
; Function compile flags: /Odtp /RTCsu /ZI
_TEXT	ENDS
;	COMDAT _P_or
_TEXT	SEGMENT
_P_or	PROC						; COMDAT

; 727  : {

  00000	55		 push	 ebp
  00001	8b ec		 mov	 ebp, esp
  00003	81 ec c0 00 00
	00		 sub	 esp, 192		; 000000c0H
  00009	53		 push	 ebx
  0000a	56		 push	 esi
  0000b	57		 push	 edi
  0000c	8d bd 40 ff ff
	ff		 lea	 edi, DWORD PTR [ebp-192]
  00012	b9 30 00 00 00	 mov	 ecx, 48			; 00000030H
  00017	b8 cc cc cc cc	 mov	 eax, -858993460		; ccccccccH
  0001c	f3 ab		 rep stosd

; 728  :     Sl(2);

  0001e	a1 00 00 00 00	 mov	 eax, DWORD PTR _stk
  00023	2b 05 00 00 00
	00		 sub	 eax, DWORD PTR _stack
  00029	c1 f8 03	 sar	 eax, 3
  0002c	83 f8 02	 cmp	 eax, 2
  0002f	7d 07		 jge	 SHORT $LN1@P_or
  00031	e8 00 00 00 00	 call	 _stakunder
  00036	eb 30		 jmp	 SHORT $LN2@P_or
$LN1@P_or:

; 729  :     S1 |= S0;

  00038	a1 00 00 00 00	 mov	 eax, DWORD PTR _stk
  0003d	8b 0d 00 00 00
	00		 mov	 ecx, DWORD PTR _stk
  00043	8b 50 f0	 mov	 edx, DWORD PTR [eax-16]
  00046	0b 51 f8	 or	 edx, DWORD PTR [ecx-8]
  00049	8b 40 f4	 mov	 eax, DWORD PTR [eax-12]
  0004c	0b 41 fc	 or	 eax, DWORD PTR [ecx-4]
  0004f	8b 0d 00 00 00
	00		 mov	 ecx, DWORD PTR _stk
  00055	89 51 f0	 mov	 DWORD PTR [ecx-16], edx
  00058	89 41 f4	 mov	 DWORD PTR [ecx-12], eax

; 730  :     Pop;

  0005b	a1 00 00 00 00	 mov	 eax, DWORD PTR _stk
  00060	83 e8 08	 sub	 eax, 8
  00063	a3 00 00 00 00	 mov	 DWORD PTR _stk, eax
$LN2@P_or:

; 731  : }

  00068	5f		 pop	 edi
  00069	5e		 pop	 esi
  0006a	5b		 pop	 ebx
  0006b	81 c4 c0 00 00
	00		 add	 esp, 192		; 000000c0H
  00071	3b ec		 cmp	 ebp, esp
  00073	e8 00 00 00 00	 call	 __RTC_CheckEsp
  00078	8b e5		 mov	 esp, ebp
  0007a	5d		 pop	 ebp
  0007b	c3		 ret	 0
_P_or	ENDP
; Function compile flags: /Odtp /RTCsu /ZI
_TEXT	ENDS
;	COMDAT _P_xor
_TEXT	SEGMENT
_P_xor	PROC						; COMDAT

; 734  : {

  00000	55		 push	 ebp
  00001	8b ec		 mov	 ebp, esp
  00003	81 ec c0 00 00
	00		 sub	 esp, 192		; 000000c0H
  00009	53		 push	 ebx
  0000a	56		 push	 esi
  0000b	57		 push	 edi
  0000c	8d bd 40 ff ff
	ff		 lea	 edi, DWORD PTR [ebp-192]
  00012	b9 30 00 00 00	 mov	 ecx, 48			; 00000030H
  00017	b8 cc cc cc cc	 mov	 eax, -858993460		; ccccccccH
  0001c	f3 ab		 rep stosd

; 735  :     Sl(2);

  0001e	a1 00 00 00 00	 mov	 eax, DWORD PTR _stk
  00023	2b 05 00 00 00
	00		 sub	 eax, DWORD PTR _stack
  00029	c1 f8 03	 sar	 eax, 3
  0002c	83 f8 02	 cmp	 eax, 2
  0002f	7d 07		 jge	 SHORT $LN1@P_xor
  00031	e8 00 00 00 00	 call	 _stakunder
  00036	eb 30		 jmp	 SHORT $LN2@P_xor
$LN1@P_xor:

; 736  :     S1 ^= S0;

  00038	a1 00 00 00 00	 mov	 eax, DWORD PTR _stk
  0003d	8b 0d 00 00 00
	00		 mov	 ecx, DWORD PTR _stk
  00043	8b 50 f0	 mov	 edx, DWORD PTR [eax-16]
  00046	33 51 f8	 xor	 edx, DWORD PTR [ecx-8]
  00049	8b 40 f4	 mov	 eax, DWORD PTR [eax-12]
  0004c	33 41 fc	 xor	 eax, DWORD PTR [ecx-4]
  0004f	8b 0d 00 00 00
	00		 mov	 ecx, DWORD PTR _stk
  00055	89 51 f0	 mov	 DWORD PTR [ecx-16], edx
  00058	89 41 f4	 mov	 DWORD PTR [ecx-12], eax

; 737  :     Pop;

  0005b	a1 00 00 00 00	 mov	 eax, DWORD PTR _stk
  00060	83 e8 08	 sub	 eax, 8
  00063	a3 00 00 00 00	 mov	 DWORD PTR _stk, eax
$LN2@P_xor:

; 738  : }

  00068	5f		 pop	 edi
  00069	5e		 pop	 esi
  0006a	5b		 pop	 ebx
  0006b	81 c4 c0 00 00
	00		 add	 esp, 192		; 000000c0H
  00071	3b ec		 cmp	 ebp, esp
  00073	e8 00 00 00 00	 call	 __RTC_CheckEsp
  00078	8b e5		 mov	 esp, ebp
  0007a	5d		 pop	 ebp
  0007b	c3		 ret	 0
_P_xor	ENDP
; Function compile flags: /Odtp /RTCsu /ZI
_TEXT	ENDS
;	COMDAT _P_not
_TEXT	SEGMENT
_P_not	PROC						; COMDAT

; 741  : {

  00000	55		 push	 ebp
  00001	8b ec		 mov	 ebp, esp
  00003	81 ec c0 00 00
	00		 sub	 esp, 192		; 000000c0H
  00009	53		 push	 ebx
  0000a	56		 push	 esi
  0000b	57		 push	 edi
  0000c	8d bd 40 ff ff
	ff		 lea	 edi, DWORD PTR [ebp-192]
  00012	b9 30 00 00 00	 mov	 ecx, 48			; 00000030H
  00017	b8 cc cc cc cc	 mov	 eax, -858993460		; ccccccccH
  0001c	f3 ab		 rep stosd

; 742  :     Sl(1);

  0001e	a1 00 00 00 00	 mov	 eax, DWORD PTR _stk
  00023	2b 05 00 00 00
	00		 sub	 eax, DWORD PTR _stack
  00029	c1 f8 03	 sar	 eax, 3
  0002c	83 f8 01	 cmp	 eax, 1
  0002f	7d 07		 jge	 SHORT $LN1@P_not
  00031	e8 00 00 00 00	 call	 _stakunder
  00036	eb 1a		 jmp	 SHORT $LN2@P_not
$LN1@P_not:

; 743  :     S0 = ~S0;

  00038	a1 00 00 00 00	 mov	 eax, DWORD PTR _stk
  0003d	8b 48 f8	 mov	 ecx, DWORD PTR [eax-8]
  00040	f7 d1		 not	 ecx
  00042	8b 50 fc	 mov	 edx, DWORD PTR [eax-4]
  00045	f7 d2		 not	 edx
  00047	a1 00 00 00 00	 mov	 eax, DWORD PTR _stk
  0004c	89 48 f8	 mov	 DWORD PTR [eax-8], ecx
  0004f	89 50 fc	 mov	 DWORD PTR [eax-4], edx
$LN2@P_not:

; 744  : }

  00052	5f		 pop	 edi
  00053	5e		 pop	 esi
  00054	5b		 pop	 ebx
  00055	81 c4 c0 00 00
	00		 add	 esp, 192		; 000000c0H
  0005b	3b ec		 cmp	 ebp, esp
  0005d	e8 00 00 00 00	 call	 __RTC_CheckEsp
  00062	8b e5		 mov	 esp, ebp
  00064	5d		 pop	 ebp
  00065	c3		 ret	 0
_P_not	ENDP
; Function compile flags: /Odtp /RTCsu /ZI
_TEXT	ENDS
;	COMDAT _P_shift
_TEXT	SEGMENT
tv81 = -200						; size = 4
tv86 = -196						; size = 4
_P_shift PROC						; COMDAT

; 747  : {

  00000	55		 push	 ebp
  00001	8b ec		 mov	 ebp, esp
  00003	81 ec c8 00 00
	00		 sub	 esp, 200		; 000000c8H
  00009	53		 push	 ebx
  0000a	56		 push	 esi
  0000b	57		 push	 edi
  0000c	8d bd 38 ff ff
	ff		 lea	 edi, DWORD PTR [ebp-200]
  00012	b9 32 00 00 00	 mov	 ecx, 50			; 00000032H
  00017	b8 cc cc cc cc	 mov	 eax, -858993460		; ccccccccH
  0001c	f3 ab		 rep stosd

; 748  :     Sl(1);

  0001e	a1 00 00 00 00	 mov	 eax, DWORD PTR _stk
  00023	2b 05 00 00 00
	00		 sub	 eax, DWORD PTR _stack
  00029	c1 f8 03	 sar	 eax, 3
  0002c	83 f8 01	 cmp	 eax, 1
  0002f	7d 0a		 jge	 SHORT $LN1@P_shift
  00031	e8 00 00 00 00	 call	 _stakunder
  00036	e9 82 00 00 00	 jmp	 $LN2@P_shift
$LN1@P_shift:

; 749  :     S1 = (S0 < 0) ? (((unsigned long) S1) >> (-S0)) :
; 750  : 		    (((unsigned long) S1) <<   S0);

  0003b	a1 00 00 00 00	 mov	 eax, DWORD PTR _stk
  00040	89 85 3c ff ff
	ff		 mov	 DWORD PTR tv86[ebp], eax
  00046	8b 8d 3c ff ff
	ff		 mov	 ecx, DWORD PTR tv86[ebp]
  0004c	83 79 fc 00	 cmp	 DWORD PTR [ecx-4], 0
  00050	7f 32		 jg	 SHORT $LN4@P_shift
  00052	7c 0c		 jl	 SHORT $LN6@P_shift
  00054	8b 95 3c ff ff
	ff		 mov	 edx, DWORD PTR tv86[ebp]
  0005a	83 7a f8 00	 cmp	 DWORD PTR [edx-8], 0
  0005e	73 24		 jae	 SHORT $LN4@P_shift
$LN6@P_shift:
  00060	a1 00 00 00 00	 mov	 eax, DWORD PTR _stk
  00065	8b 50 f0	 mov	 edx, DWORD PTR [eax-16]
  00068	a1 00 00 00 00	 mov	 eax, DWORD PTR _stk
  0006d	8b 48 f8	 mov	 ecx, DWORD PTR [eax-8]
  00070	f7 d9		 neg	 ecx
  00072	8b 40 fc	 mov	 eax, DWORD PTR [eax-4]
  00075	83 d0 00	 adc	 eax, 0
  00078	f7 d8		 neg	 eax
  0007a	d3 ea		 shr	 edx, cl
  0007c	89 95 38 ff ff
	ff		 mov	 DWORD PTR tv81[ebp], edx
  00082	eb 19		 jmp	 SHORT $LN5@P_shift
$LN4@P_shift:
  00084	8b 0d 00 00 00
	00		 mov	 ecx, DWORD PTR _stk
  0008a	8b 51 f0	 mov	 edx, DWORD PTR [ecx-16]
  0008d	a1 00 00 00 00	 mov	 eax, DWORD PTR _stk
  00092	8a 48 f8	 mov	 cl, BYTE PTR [eax-8]
  00095	d3 e2		 shl	 edx, cl
  00097	89 95 38 ff ff
	ff		 mov	 DWORD PTR tv81[ebp], edx
$LN5@P_shift:
  0009d	8b 8d 38 ff ff
	ff		 mov	 ecx, DWORD PTR tv81[ebp]
  000a3	33 d2		 xor	 edx, edx
  000a5	a1 00 00 00 00	 mov	 eax, DWORD PTR _stk
  000aa	89 48 f0	 mov	 DWORD PTR [eax-16], ecx
  000ad	89 50 f4	 mov	 DWORD PTR [eax-12], edx

; 751  :     Pop;

  000b0	a1 00 00 00 00	 mov	 eax, DWORD PTR _stk
  000b5	83 e8 08	 sub	 eax, 8
  000b8	a3 00 00 00 00	 mov	 DWORD PTR _stk, eax
$LN2@P_shift:

; 752  : }

  000bd	5f		 pop	 edi
  000be	5e		 pop	 esi
  000bf	5b		 pop	 ebx
  000c0	81 c4 c8 00 00
	00		 add	 esp, 200		; 000000c8H
  000c6	3b ec		 cmp	 ebp, esp
  000c8	e8 00 00 00 00	 call	 __RTC_CheckEsp
  000cd	8b e5		 mov	 esp, ebp
  000cf	5d		 pop	 ebp
  000d0	c3		 ret	 0
_P_shift ENDP
; Function compile flags: /Odtp /RTCsu /ZI
_TEXT	ENDS
;	COMDAT _P_1plus
_TEXT	SEGMENT
_P_1plus PROC						; COMDAT

; 757  : {

  00000	55		 push	 ebp
  00001	8b ec		 mov	 ebp, esp
  00003	81 ec c0 00 00
	00		 sub	 esp, 192		; 000000c0H
  00009	53		 push	 ebx
  0000a	56		 push	 esi
  0000b	57		 push	 edi
  0000c	8d bd 40 ff ff
	ff		 lea	 edi, DWORD PTR [ebp-192]
  00012	b9 30 00 00 00	 mov	 ecx, 48			; 00000030H
  00017	b8 cc cc cc cc	 mov	 eax, -858993460		; ccccccccH
  0001c	f3 ab		 rep stosd

; 758  :     Sl(1);

  0001e	a1 00 00 00 00	 mov	 eax, DWORD PTR _stk
  00023	2b 05 00 00 00
	00		 sub	 eax, DWORD PTR _stack
  00029	c1 f8 03	 sar	 eax, 3
  0002c	83 f8 01	 cmp	 eax, 1
  0002f	7d 07		 jge	 SHORT $LN1@P_1plus
  00031	e8 00 00 00 00	 call	 _stakunder
  00036	eb 1c		 jmp	 SHORT $LN2@P_1plus
$LN1@P_1plus:

; 759  :     S0++;

  00038	a1 00 00 00 00	 mov	 eax, DWORD PTR _stk
  0003d	8b 48 f8	 mov	 ecx, DWORD PTR [eax-8]
  00040	83 c1 01	 add	 ecx, 1
  00043	8b 50 fc	 mov	 edx, DWORD PTR [eax-4]
  00046	83 d2 00	 adc	 edx, 0
  00049	a1 00 00 00 00	 mov	 eax, DWORD PTR _stk
  0004e	89 48 f8	 mov	 DWORD PTR [eax-8], ecx
  00051	89 50 fc	 mov	 DWORD PTR [eax-4], edx
$LN2@P_1plus:

; 760  : }

  00054	5f		 pop	 edi
  00055	5e		 pop	 esi
  00056	5b		 pop	 ebx
  00057	81 c4 c0 00 00
	00		 add	 esp, 192		; 000000c0H
  0005d	3b ec		 cmp	 ebp, esp
  0005f	e8 00 00 00 00	 call	 __RTC_CheckEsp
  00064	8b e5		 mov	 esp, ebp
  00066	5d		 pop	 ebp
  00067	c3		 ret	 0
_P_1plus ENDP
; Function compile flags: /Odtp /RTCsu /ZI
_TEXT	ENDS
;	COMDAT _P_2plus
_TEXT	SEGMENT
_P_2plus PROC						; COMDAT

; 763  : {

  00000	55		 push	 ebp
  00001	8b ec		 mov	 ebp, esp
  00003	81 ec c0 00 00
	00		 sub	 esp, 192		; 000000c0H
  00009	53		 push	 ebx
  0000a	56		 push	 esi
  0000b	57		 push	 edi
  0000c	8d bd 40 ff ff
	ff		 lea	 edi, DWORD PTR [ebp-192]
  00012	b9 30 00 00 00	 mov	 ecx, 48			; 00000030H
  00017	b8 cc cc cc cc	 mov	 eax, -858993460		; ccccccccH
  0001c	f3 ab		 rep stosd

; 764  :     Sl(1);

  0001e	a1 00 00 00 00	 mov	 eax, DWORD PTR _stk
  00023	2b 05 00 00 00
	00		 sub	 eax, DWORD PTR _stack
  00029	c1 f8 03	 sar	 eax, 3
  0002c	83 f8 01	 cmp	 eax, 1
  0002f	7d 07		 jge	 SHORT $LN1@P_2plus
  00031	e8 00 00 00 00	 call	 _stakunder
  00036	eb 1c		 jmp	 SHORT $LN2@P_2plus
$LN1@P_2plus:

; 765  :     S0 += 2;

  00038	a1 00 00 00 00	 mov	 eax, DWORD PTR _stk
  0003d	8b 48 f8	 mov	 ecx, DWORD PTR [eax-8]
  00040	83 c1 02	 add	 ecx, 2
  00043	8b 50 fc	 mov	 edx, DWORD PTR [eax-4]
  00046	83 d2 00	 adc	 edx, 0
  00049	a1 00 00 00 00	 mov	 eax, DWORD PTR _stk
  0004e	89 48 f8	 mov	 DWORD PTR [eax-8], ecx
  00051	89 50 fc	 mov	 DWORD PTR [eax-4], edx
$LN2@P_2plus:

; 766  : }

  00054	5f		 pop	 edi
  00055	5e		 pop	 esi
  00056	5b		 pop	 ebx
  00057	81 c4 c0 00 00
	00		 add	 esp, 192		; 000000c0H
  0005d	3b ec		 cmp	 ebp, esp
  0005f	e8 00 00 00 00	 call	 __RTC_CheckEsp
  00064	8b e5		 mov	 esp, ebp
  00066	5d		 pop	 ebp
  00067	c3		 ret	 0
_P_2plus ENDP
; Function compile flags: /Odtp /RTCsu /ZI
_TEXT	ENDS
;	COMDAT _P_1minus
_TEXT	SEGMENT
_P_1minus PROC						; COMDAT

; 769  : {

  00000	55		 push	 ebp
  00001	8b ec		 mov	 ebp, esp
  00003	81 ec c0 00 00
	00		 sub	 esp, 192		; 000000c0H
  00009	53		 push	 ebx
  0000a	56		 push	 esi
  0000b	57		 push	 edi
  0000c	8d bd 40 ff ff
	ff		 lea	 edi, DWORD PTR [ebp-192]
  00012	b9 30 00 00 00	 mov	 ecx, 48			; 00000030H
  00017	b8 cc cc cc cc	 mov	 eax, -858993460		; ccccccccH
  0001c	f3 ab		 rep stosd

; 770  :     Sl(1);

  0001e	a1 00 00 00 00	 mov	 eax, DWORD PTR _stk
  00023	2b 05 00 00 00
	00		 sub	 eax, DWORD PTR _stack
  00029	c1 f8 03	 sar	 eax, 3
  0002c	83 f8 01	 cmp	 eax, 1
  0002f	7d 07		 jge	 SHORT $LN1@P_1minus
  00031	e8 00 00 00 00	 call	 _stakunder
  00036	eb 1c		 jmp	 SHORT $LN2@P_1minus
$LN1@P_1minus:

; 771  :     S0--;

  00038	a1 00 00 00 00	 mov	 eax, DWORD PTR _stk
  0003d	8b 48 f8	 mov	 ecx, DWORD PTR [eax-8]
  00040	83 e9 01	 sub	 ecx, 1
  00043	8b 50 fc	 mov	 edx, DWORD PTR [eax-4]
  00046	83 da 00	 sbb	 edx, 0
  00049	a1 00 00 00 00	 mov	 eax, DWORD PTR _stk
  0004e	89 48 f8	 mov	 DWORD PTR [eax-8], ecx
  00051	89 50 fc	 mov	 DWORD PTR [eax-4], edx
$LN2@P_1minus:

; 772  : }

  00054	5f		 pop	 edi
  00055	5e		 pop	 esi
  00056	5b		 pop	 ebx
  00057	81 c4 c0 00 00
	00		 add	 esp, 192		; 000000c0H
  0005d	3b ec		 cmp	 ebp, esp
  0005f	e8 00 00 00 00	 call	 __RTC_CheckEsp
  00064	8b e5		 mov	 esp, ebp
  00066	5d		 pop	 ebp
  00067	c3		 ret	 0
_P_1minus ENDP
; Function compile flags: /Odtp /RTCsu /ZI
_TEXT	ENDS
;	COMDAT _P_2minus
_TEXT	SEGMENT
_P_2minus PROC						; COMDAT

; 775  : {

  00000	55		 push	 ebp
  00001	8b ec		 mov	 ebp, esp
  00003	81 ec c0 00 00
	00		 sub	 esp, 192		; 000000c0H
  00009	53		 push	 ebx
  0000a	56		 push	 esi
  0000b	57		 push	 edi
  0000c	8d bd 40 ff ff
	ff		 lea	 edi, DWORD PTR [ebp-192]
  00012	b9 30 00 00 00	 mov	 ecx, 48			; 00000030H
  00017	b8 cc cc cc cc	 mov	 eax, -858993460		; ccccccccH
  0001c	f3 ab		 rep stosd

; 776  :     Sl(1);

  0001e	a1 00 00 00 00	 mov	 eax, DWORD PTR _stk
  00023	2b 05 00 00 00
	00		 sub	 eax, DWORD PTR _stack
  00029	c1 f8 03	 sar	 eax, 3
  0002c	83 f8 01	 cmp	 eax, 1
  0002f	7d 07		 jge	 SHORT $LN1@P_2minus
  00031	e8 00 00 00 00	 call	 _stakunder
  00036	eb 1c		 jmp	 SHORT $LN2@P_2minus
$LN1@P_2minus:

; 777  :     S0 -= 2;

  00038	a1 00 00 00 00	 mov	 eax, DWORD PTR _stk
  0003d	8b 48 f8	 mov	 ecx, DWORD PTR [eax-8]
  00040	83 e9 02	 sub	 ecx, 2
  00043	8b 50 fc	 mov	 edx, DWORD PTR [eax-4]
  00046	83 da 00	 sbb	 edx, 0
  00049	a1 00 00 00 00	 mov	 eax, DWORD PTR _stk
  0004e	89 48 f8	 mov	 DWORD PTR [eax-8], ecx
  00051	89 50 fc	 mov	 DWORD PTR [eax-4], edx
$LN2@P_2minus:

; 778  : }

  00054	5f		 pop	 edi
  00055	5e		 pop	 esi
  00056	5b		 pop	 ebx
  00057	81 c4 c0 00 00
	00		 add	 esp, 192		; 000000c0H
  0005d	3b ec		 cmp	 ebp, esp
  0005f	e8 00 00 00 00	 call	 __RTC_CheckEsp
  00064	8b e5		 mov	 esp, ebp
  00066	5d		 pop	 ebp
  00067	c3		 ret	 0
_P_2minus ENDP
; Function compile flags: /Odtp /RTCsu /ZI
_TEXT	ENDS
;	COMDAT _P_2times
_TEXT	SEGMENT
_P_2times PROC						; COMDAT

; 781  : {

  00000	55		 push	 ebp
  00001	8b ec		 mov	 ebp, esp
  00003	81 ec c0 00 00
	00		 sub	 esp, 192		; 000000c0H
  00009	53		 push	 ebx
  0000a	56		 push	 esi
  0000b	57		 push	 edi
  0000c	8d bd 40 ff ff
	ff		 lea	 edi, DWORD PTR [ebp-192]
  00012	b9 30 00 00 00	 mov	 ecx, 48			; 00000030H
  00017	b8 cc cc cc cc	 mov	 eax, -858993460		; ccccccccH
  0001c	f3 ab		 rep stosd

; 782  :     Sl(1);

  0001e	a1 00 00 00 00	 mov	 eax, DWORD PTR _stk
  00023	2b 05 00 00 00
	00		 sub	 eax, DWORD PTR _stack
  00029	c1 f8 03	 sar	 eax, 3
  0002c	83 f8 01	 cmp	 eax, 1
  0002f	7d 07		 jge	 SHORT $LN1@P_2times
  00031	e8 00 00 00 00	 call	 _stakunder
  00036	eb 22		 jmp	 SHORT $LN2@P_2times
$LN1@P_2times:

; 783  :     S0 *= 2;

  00038	a1 00 00 00 00	 mov	 eax, DWORD PTR _stk
  0003d	6a 00		 push	 0
  0003f	6a 02		 push	 2
  00041	8b 48 fc	 mov	 ecx, DWORD PTR [eax-4]
  00044	51		 push	 ecx
  00045	8b 50 f8	 mov	 edx, DWORD PTR [eax-8]
  00048	52		 push	 edx
  00049	e8 00 00 00 00	 call	 __allmul
  0004e	8b 0d 00 00 00
	00		 mov	 ecx, DWORD PTR _stk
  00054	89 41 f8	 mov	 DWORD PTR [ecx-8], eax
  00057	89 51 fc	 mov	 DWORD PTR [ecx-4], edx
$LN2@P_2times:

; 784  : }

  0005a	5f		 pop	 edi
  0005b	5e		 pop	 esi
  0005c	5b		 pop	 ebx
  0005d	81 c4 c0 00 00
	00		 add	 esp, 192		; 000000c0H
  00063	3b ec		 cmp	 ebp, esp
  00065	e8 00 00 00 00	 call	 __RTC_CheckEsp
  0006a	8b e5		 mov	 esp, ebp
  0006c	5d		 pop	 ebp
  0006d	c3		 ret	 0
_P_2times ENDP
; Function compile flags: /Odtp /RTCsu /ZI
_TEXT	ENDS
;	COMDAT _P_2div
_TEXT	SEGMENT
_P_2div	PROC						; COMDAT

; 787  : {

  00000	55		 push	 ebp
  00001	8b ec		 mov	 ebp, esp
  00003	81 ec c0 00 00
	00		 sub	 esp, 192		; 000000c0H
  00009	53		 push	 ebx
  0000a	56		 push	 esi
  0000b	57		 push	 edi
  0000c	8d bd 40 ff ff
	ff		 lea	 edi, DWORD PTR [ebp-192]
  00012	b9 30 00 00 00	 mov	 ecx, 48			; 00000030H
  00017	b8 cc cc cc cc	 mov	 eax, -858993460		; ccccccccH
  0001c	f3 ab		 rep stosd

; 788  :     Sl(1);

  0001e	a1 00 00 00 00	 mov	 eax, DWORD PTR _stk
  00023	2b 05 00 00 00
	00		 sub	 eax, DWORD PTR _stack
  00029	c1 f8 03	 sar	 eax, 3
  0002c	83 f8 01	 cmp	 eax, 1
  0002f	7d 07		 jge	 SHORT $LN1@P_2div
  00031	e8 00 00 00 00	 call	 _stakunder
  00036	eb 22		 jmp	 SHORT $LN2@P_2div
$LN1@P_2div:

; 789  :     S0 /= 2;

  00038	a1 00 00 00 00	 mov	 eax, DWORD PTR _stk
  0003d	6a 00		 push	 0
  0003f	6a 02		 push	 2
  00041	8b 48 fc	 mov	 ecx, DWORD PTR [eax-4]
  00044	51		 push	 ecx
  00045	8b 50 f8	 mov	 edx, DWORD PTR [eax-8]
  00048	52		 push	 edx
  00049	e8 00 00 00 00	 call	 __alldiv
  0004e	8b 0d 00 00 00
	00		 mov	 ecx, DWORD PTR _stk
  00054	89 41 f8	 mov	 DWORD PTR [ecx-8], eax
  00057	89 51 fc	 mov	 DWORD PTR [ecx-4], edx
$LN2@P_2div:

; 790  : }

  0005a	5f		 pop	 edi
  0005b	5e		 pop	 esi
  0005c	5b		 pop	 ebx
  0005d	81 c4 c0 00 00
	00		 add	 esp, 192		; 000000c0H
  00063	3b ec		 cmp	 ebp, esp
  00065	e8 00 00 00 00	 call	 __RTC_CheckEsp
  0006a	8b e5		 mov	 esp, ebp
  0006c	5d		 pop	 ebp
  0006d	c3		 ret	 0
_P_2div	ENDP
; Function compile flags: /Odtp /RTCsu /ZI
_TEXT	ENDS
;	COMDAT _P_0equal
_TEXT	SEGMENT
tv70 = -200						; size = 4
tv74 = -196						; size = 4
_P_0equal PROC						; COMDAT

; 797  : {

  00000	55		 push	 ebp
  00001	8b ec		 mov	 ebp, esp
  00003	81 ec c8 00 00
	00		 sub	 esp, 200		; 000000c8H
  00009	53		 push	 ebx
  0000a	56		 push	 esi
  0000b	57		 push	 edi
  0000c	8d bd 38 ff ff
	ff		 lea	 edi, DWORD PTR [ebp-200]
  00012	b9 32 00 00 00	 mov	 ecx, 50			; 00000032H
  00017	b8 cc cc cc cc	 mov	 eax, -858993460		; ccccccccH
  0001c	f3 ab		 rep stosd

; 798  :     Sl(1);

  0001e	a1 00 00 00 00	 mov	 eax, DWORD PTR _stk
  00023	2b 05 00 00 00
	00		 sub	 eax, DWORD PTR _stack
  00029	c1 f8 03	 sar	 eax, 3
  0002c	83 f8 01	 cmp	 eax, 1
  0002f	7d 07		 jge	 SHORT $LN1@P_0equal
  00031	e8 00 00 00 00	 call	 _stakunder
  00036	eb 48		 jmp	 SHORT $LN2@P_0equal
$LN1@P_0equal:

; 799  :     S0 = (S0 == 0) ? Truth : Falsity;

  00038	a1 00 00 00 00	 mov	 eax, DWORD PTR _stk
  0003d	89 85 3c ff ff
	ff		 mov	 DWORD PTR tv74[ebp], eax
  00043	8b 8d 3c ff ff
	ff		 mov	 ecx, DWORD PTR tv74[ebp]
  00049	8b 95 3c ff ff
	ff		 mov	 edx, DWORD PTR tv74[ebp]
  0004f	8b 41 f8	 mov	 eax, DWORD PTR [ecx-8]
  00052	0b 42 fc	 or	 eax, DWORD PTR [edx-4]
  00055	75 0c		 jne	 SHORT $LN4@P_0equal
  00057	c7 85 38 ff ff
	ff ff ff ff ff	 mov	 DWORD PTR tv70[ebp], -1
  00061	eb 0a		 jmp	 SHORT $LN5@P_0equal
$LN4@P_0equal:
  00063	c7 85 38 ff ff
	ff 00 00 00 00	 mov	 DWORD PTR tv70[ebp], 0
$LN5@P_0equal:
  0006d	8b 85 38 ff ff
	ff		 mov	 eax, DWORD PTR tv70[ebp]
  00073	99		 cdq
  00074	8b 0d 00 00 00
	00		 mov	 ecx, DWORD PTR _stk
  0007a	89 41 f8	 mov	 DWORD PTR [ecx-8], eax
  0007d	89 51 fc	 mov	 DWORD PTR [ecx-4], edx
$LN2@P_0equal:

; 800  : }

  00080	5f		 pop	 edi
  00081	5e		 pop	 esi
  00082	5b		 pop	 ebx
  00083	81 c4 c8 00 00
	00		 add	 esp, 200		; 000000c8H
  00089	3b ec		 cmp	 ebp, esp
  0008b	e8 00 00 00 00	 call	 __RTC_CheckEsp
  00090	8b e5		 mov	 esp, ebp
  00092	5d		 pop	 ebp
  00093	c3		 ret	 0
_P_0equal ENDP
; Function compile flags: /Odtp /RTCsu /ZI
_TEXT	ENDS
;	COMDAT _P_0notequal
_TEXT	SEGMENT
tv70 = -200						; size = 4
tv74 = -196						; size = 4
_P_0notequal PROC					; COMDAT

; 803  : {

  00000	55		 push	 ebp
  00001	8b ec		 mov	 ebp, esp
  00003	81 ec c8 00 00
	00		 sub	 esp, 200		; 000000c8H
  00009	53		 push	 ebx
  0000a	56		 push	 esi
  0000b	57		 push	 edi
  0000c	8d bd 38 ff ff
	ff		 lea	 edi, DWORD PTR [ebp-200]
  00012	b9 32 00 00 00	 mov	 ecx, 50			; 00000032H
  00017	b8 cc cc cc cc	 mov	 eax, -858993460		; ccccccccH
  0001c	f3 ab		 rep stosd

; 804  :     Sl(1);

  0001e	a1 00 00 00 00	 mov	 eax, DWORD PTR _stk
  00023	2b 05 00 00 00
	00		 sub	 eax, DWORD PTR _stack
  00029	c1 f8 03	 sar	 eax, 3
  0002c	83 f8 01	 cmp	 eax, 1
  0002f	7d 07		 jge	 SHORT $LN1@P_0notequa
  00031	e8 00 00 00 00	 call	 _stakunder
  00036	eb 48		 jmp	 SHORT $LN2@P_0notequa
$LN1@P_0notequa:

; 805  :     S0 = (S0 != 0) ? Truth : Falsity;

  00038	a1 00 00 00 00	 mov	 eax, DWORD PTR _stk
  0003d	89 85 3c ff ff
	ff		 mov	 DWORD PTR tv74[ebp], eax
  00043	8b 8d 3c ff ff
	ff		 mov	 ecx, DWORD PTR tv74[ebp]
  00049	8b 95 3c ff ff
	ff		 mov	 edx, DWORD PTR tv74[ebp]
  0004f	8b 41 f8	 mov	 eax, DWORD PTR [ecx-8]
  00052	0b 42 fc	 or	 eax, DWORD PTR [edx-4]
  00055	74 0c		 je	 SHORT $LN4@P_0notequa
  00057	c7 85 38 ff ff
	ff ff ff ff ff	 mov	 DWORD PTR tv70[ebp], -1
  00061	eb 0a		 jmp	 SHORT $LN5@P_0notequa
$LN4@P_0notequa:
  00063	c7 85 38 ff ff
	ff 00 00 00 00	 mov	 DWORD PTR tv70[ebp], 0
$LN5@P_0notequa:
  0006d	8b 85 38 ff ff
	ff		 mov	 eax, DWORD PTR tv70[ebp]
  00073	99		 cdq
  00074	8b 0d 00 00 00
	00		 mov	 ecx, DWORD PTR _stk
  0007a	89 41 f8	 mov	 DWORD PTR [ecx-8], eax
  0007d	89 51 fc	 mov	 DWORD PTR [ecx-4], edx
$LN2@P_0notequa:

; 806  : }

  00080	5f		 pop	 edi
  00081	5e		 pop	 esi
  00082	5b		 pop	 ebx
  00083	81 c4 c8 00 00
	00		 add	 esp, 200		; 000000c8H
  00089	3b ec		 cmp	 ebp, esp
  0008b	e8 00 00 00 00	 call	 __RTC_CheckEsp
  00090	8b e5		 mov	 esp, ebp
  00092	5d		 pop	 ebp
  00093	c3		 ret	 0
_P_0notequal ENDP
; Function compile flags: /Odtp /RTCsu /ZI
_TEXT	ENDS
;	COMDAT _P_0gtr
_TEXT	SEGMENT
tv70 = -200						; size = 4
tv74 = -196						; size = 4
_P_0gtr	PROC						; COMDAT

; 809  : {

  00000	55		 push	 ebp
  00001	8b ec		 mov	 ebp, esp
  00003	81 ec c8 00 00
	00		 sub	 esp, 200		; 000000c8H
  00009	53		 push	 ebx
  0000a	56		 push	 esi
  0000b	57		 push	 edi
  0000c	8d bd 38 ff ff
	ff		 lea	 edi, DWORD PTR [ebp-200]
  00012	b9 32 00 00 00	 mov	 ecx, 50			; 00000032H
  00017	b8 cc cc cc cc	 mov	 eax, -858993460		; ccccccccH
  0001c	f3 ab		 rep stosd

; 810  :     Sl(1);

  0001e	a1 00 00 00 00	 mov	 eax, DWORD PTR _stk
  00023	2b 05 00 00 00
	00		 sub	 eax, DWORD PTR _stack
  00029	c1 f8 03	 sar	 eax, 3
  0002c	83 f8 01	 cmp	 eax, 1
  0002f	7d 07		 jge	 SHORT $LN1@P_0gtr
  00031	e8 00 00 00 00	 call	 _stakunder
  00036	eb 4e		 jmp	 SHORT $LN2@P_0gtr
$LN1@P_0gtr:

; 811  :     S0 = (S0 > 0) ? Truth : Falsity;

  00038	a1 00 00 00 00	 mov	 eax, DWORD PTR _stk
  0003d	89 85 3c ff ff
	ff		 mov	 DWORD PTR tv74[ebp], eax
  00043	8b 8d 3c ff ff
	ff		 mov	 ecx, DWORD PTR tv74[ebp]
  00049	83 79 fc 00	 cmp	 DWORD PTR [ecx-4], 0
  0004d	7c 1a		 jl	 SHORT $LN4@P_0gtr
  0004f	7f 0c		 jg	 SHORT $LN6@P_0gtr
  00051	8b 95 3c ff ff
	ff		 mov	 edx, DWORD PTR tv74[ebp]
  00057	83 7a f8 00	 cmp	 DWORD PTR [edx-8], 0
  0005b	76 0c		 jbe	 SHORT $LN4@P_0gtr
$LN6@P_0gtr:
  0005d	c7 85 38 ff ff
	ff ff ff ff ff	 mov	 DWORD PTR tv70[ebp], -1
  00067	eb 0a		 jmp	 SHORT $LN5@P_0gtr
$LN4@P_0gtr:
  00069	c7 85 38 ff ff
	ff 00 00 00 00	 mov	 DWORD PTR tv70[ebp], 0
$LN5@P_0gtr:
  00073	8b 85 38 ff ff
	ff		 mov	 eax, DWORD PTR tv70[ebp]
  00079	99		 cdq
  0007a	8b 0d 00 00 00
	00		 mov	 ecx, DWORD PTR _stk
  00080	89 41 f8	 mov	 DWORD PTR [ecx-8], eax
  00083	89 51 fc	 mov	 DWORD PTR [ecx-4], edx
$LN2@P_0gtr:

; 812  : }

  00086	5f		 pop	 edi
  00087	5e		 pop	 esi
  00088	5b		 pop	 ebx
  00089	81 c4 c8 00 00
	00		 add	 esp, 200		; 000000c8H
  0008f	3b ec		 cmp	 ebp, esp
  00091	e8 00 00 00 00	 call	 __RTC_CheckEsp
  00096	8b e5		 mov	 esp, ebp
  00098	5d		 pop	 ebp
  00099	c3		 ret	 0
_P_0gtr	ENDP
; Function compile flags: /Odtp /RTCsu /ZI
_TEXT	ENDS
;	COMDAT _P_0lss
_TEXT	SEGMENT
tv70 = -200						; size = 4
tv74 = -196						; size = 4
_P_0lss	PROC						; COMDAT

; 815  : {

  00000	55		 push	 ebp
  00001	8b ec		 mov	 ebp, esp
  00003	81 ec c8 00 00
	00		 sub	 esp, 200		; 000000c8H
  00009	53		 push	 ebx
  0000a	56		 push	 esi
  0000b	57		 push	 edi
  0000c	8d bd 38 ff ff
	ff		 lea	 edi, DWORD PTR [ebp-200]
  00012	b9 32 00 00 00	 mov	 ecx, 50			; 00000032H
  00017	b8 cc cc cc cc	 mov	 eax, -858993460		; ccccccccH
  0001c	f3 ab		 rep stosd

; 816  :     Sl(1);

  0001e	a1 00 00 00 00	 mov	 eax, DWORD PTR _stk
  00023	2b 05 00 00 00
	00		 sub	 eax, DWORD PTR _stack
  00029	c1 f8 03	 sar	 eax, 3
  0002c	83 f8 01	 cmp	 eax, 1
  0002f	7d 07		 jge	 SHORT $LN1@P_0lss
  00031	e8 00 00 00 00	 call	 _stakunder
  00036	eb 4e		 jmp	 SHORT $LN2@P_0lss
$LN1@P_0lss:

; 817  :     S0 = (S0 < 0) ? Truth : Falsity;

  00038	a1 00 00 00 00	 mov	 eax, DWORD PTR _stk
  0003d	89 85 3c ff ff
	ff		 mov	 DWORD PTR tv74[ebp], eax
  00043	8b 8d 3c ff ff
	ff		 mov	 ecx, DWORD PTR tv74[ebp]
  00049	83 79 fc 00	 cmp	 DWORD PTR [ecx-4], 0
  0004d	7f 1a		 jg	 SHORT $LN4@P_0lss
  0004f	7c 0c		 jl	 SHORT $LN6@P_0lss
  00051	8b 95 3c ff ff
	ff		 mov	 edx, DWORD PTR tv74[ebp]
  00057	83 7a f8 00	 cmp	 DWORD PTR [edx-8], 0
  0005b	73 0c		 jae	 SHORT $LN4@P_0lss
$LN6@P_0lss:
  0005d	c7 85 38 ff ff
	ff ff ff ff ff	 mov	 DWORD PTR tv70[ebp], -1
  00067	eb 0a		 jmp	 SHORT $LN5@P_0lss
$LN4@P_0lss:
  00069	c7 85 38 ff ff
	ff 00 00 00 00	 mov	 DWORD PTR tv70[ebp], 0
$LN5@P_0lss:
  00073	8b 85 38 ff ff
	ff		 mov	 eax, DWORD PTR tv70[ebp]
  00079	99		 cdq
  0007a	8b 0d 00 00 00
	00		 mov	 ecx, DWORD PTR _stk
  00080	89 41 f8	 mov	 DWORD PTR [ecx-8], eax
  00083	89 51 fc	 mov	 DWORD PTR [ecx-4], edx
$LN2@P_0lss:

; 818  : }

  00086	5f		 pop	 edi
  00087	5e		 pop	 esi
  00088	5b		 pop	 ebx
  00089	81 c4 c8 00 00
	00		 add	 esp, 200		; 000000c8H
  0008f	3b ec		 cmp	 ebp, esp
  00091	e8 00 00 00 00	 call	 __RTC_CheckEsp
  00096	8b e5		 mov	 esp, ebp
  00098	5d		 pop	 ebp
  00099	c3		 ret	 0
_P_0lss	ENDP
_TEXT	ENDS
_BSS	SEGMENT
_hptr	DD	01H DUP (?)
_stacktop DD	01H DUP (?)
; Function compile flags: /Odtp /RTCsu /ZI
_BSS	ENDS
;	COMDAT _P_here
_TEXT	SEGMENT
_P_here	PROC						; COMDAT

; 825  : {

  00000	55		 push	 ebp
  00001	8b ec		 mov	 ebp, esp
  00003	81 ec c0 00 00
	00		 sub	 esp, 192		; 000000c0H
  00009	53		 push	 ebx
  0000a	56		 push	 esi
  0000b	57		 push	 edi
  0000c	8d bd 40 ff ff
	ff		 lea	 edi, DWORD PTR [ebp-192]
  00012	b9 30 00 00 00	 mov	 ecx, 48			; 00000030H
  00017	b8 cc cc cc cc	 mov	 eax, -858993460		; ccccccccH
  0001c	f3 ab		 rep stosd

; 826  :     So(1);

  0001e	a1 00 00 00 00	 mov	 eax, DWORD PTR _stk
  00023	83 c0 08	 add	 eax, 8
  00026	3b 05 00 00 00
	00		 cmp	 eax, DWORD PTR _stacktop
  0002c	76 07		 jbe	 SHORT $LN1@P_here
  0002e	e8 00 00 00 00	 call	 _stakover
  00033	eb 20		 jmp	 SHORT $LN2@P_here
$LN1@P_here:

; 827  :     Push = (stackitem) hptr;

  00035	a1 00 00 00 00	 mov	 eax, DWORD PTR _hptr
  0003a	99		 cdq
  0003b	8b 0d 00 00 00
	00		 mov	 ecx, DWORD PTR _stk
  00041	89 01		 mov	 DWORD PTR [ecx], eax
  00043	89 51 04	 mov	 DWORD PTR [ecx+4], edx
  00046	8b 15 00 00 00
	00		 mov	 edx, DWORD PTR _stk
  0004c	83 c2 08	 add	 edx, 8
  0004f	89 15 00 00 00
	00		 mov	 DWORD PTR _stk, edx
$LN2@P_here:

; 828  : }

  00055	5f		 pop	 edi
  00056	5e		 pop	 esi
  00057	5b		 pop	 ebx
  00058	81 c4 c0 00 00
	00		 add	 esp, 192		; 000000c0H
  0005e	3b ec		 cmp	 ebp, esp
  00060	e8 00 00 00 00	 call	 __RTC_CheckEsp
  00065	8b e5		 mov	 esp, ebp
  00067	5d		 pop	 ebp
  00068	c3		 ret	 0
_P_here	ENDP
_TEXT	ENDS
_BSS	SEGMENT
_heaptop DD	01H DUP (?)
_heapbot DD	01H DUP (?)
; Function compile flags: /Odtp /RTCsu /ZI
_BSS	ENDS
;	COMDAT _P_bang
_TEXT	SEGMENT
_P_bang	PROC						; COMDAT

; 831  : {

  00000	55		 push	 ebp
  00001	8b ec		 mov	 ebp, esp
  00003	81 ec c0 00 00
	00		 sub	 esp, 192		; 000000c0H
  00009	53		 push	 ebx
  0000a	56		 push	 esi
  0000b	57		 push	 edi
  0000c	8d bd 40 ff ff
	ff		 lea	 edi, DWORD PTR [ebp-192]
  00012	b9 30 00 00 00	 mov	 ecx, 48			; 00000030H
  00017	b8 cc cc cc cc	 mov	 eax, -858993460		; ccccccccH
  0001c	f3 ab		 rep stosd

; 832  :     Sl(2);

  0001e	a1 00 00 00 00	 mov	 eax, DWORD PTR _stk
  00023	2b 05 00 00 00
	00		 sub	 eax, DWORD PTR _stack
  00029	c1 f8 03	 sar	 eax, 3
  0002c	83 f8 02	 cmp	 eax, 2
  0002f	7d 07		 jge	 SHORT $LN3@P_bang
  00031	e8 00 00 00 00	 call	 _stakunder
  00036	eb 4d		 jmp	 SHORT $LN4@P_bang
$LN3@P_bang:

; 833  :     Hpc(S0);

  00038	a1 00 00 00 00	 mov	 eax, DWORD PTR _stk
  0003d	8b 48 f8	 mov	 ecx, DWORD PTR [eax-8]
  00040	3b 0d 00 00 00
	00		 cmp	 ecx, DWORD PTR _heapbot
  00046	72 10		 jb	 SHORT $LN1@P_bang
  00048	a1 00 00 00 00	 mov	 eax, DWORD PTR _stk
  0004d	8b 48 f8	 mov	 ecx, DWORD PTR [eax-8]
  00050	3b 0d 00 00 00
	00		 cmp	 ecx, DWORD PTR _heaptop
  00056	72 07		 jb	 SHORT $LN2@P_bang
$LN1@P_bang:
  00058	e8 00 00 00 00	 call	 _badpointer
  0005d	eb 26		 jmp	 SHORT $LN4@P_bang
$LN2@P_bang:

; 834  :     *((stackitem *) S0) = S1;

  0005f	a1 00 00 00 00	 mov	 eax, DWORD PTR _stk
  00064	8b 48 f8	 mov	 ecx, DWORD PTR [eax-8]
  00067	8b 15 00 00 00
	00		 mov	 edx, DWORD PTR _stk
  0006d	8b 42 f0	 mov	 eax, DWORD PTR [edx-16]
  00070	89 01		 mov	 DWORD PTR [ecx], eax
  00072	8b 52 f4	 mov	 edx, DWORD PTR [edx-12]
  00075	89 51 04	 mov	 DWORD PTR [ecx+4], edx

; 835  :     Pop2;

  00078	a1 00 00 00 00	 mov	 eax, DWORD PTR _stk
  0007d	83 e8 10	 sub	 eax, 16			; 00000010H
  00080	a3 00 00 00 00	 mov	 DWORD PTR _stk, eax
$LN4@P_bang:

; 836  : }

  00085	5f		 pop	 edi
  00086	5e		 pop	 esi
  00087	5b		 pop	 ebx
  00088	81 c4 c0 00 00
	00		 add	 esp, 192		; 000000c0H
  0008e	3b ec		 cmp	 ebp, esp
  00090	e8 00 00 00 00	 call	 __RTC_CheckEsp
  00095	8b e5		 mov	 esp, ebp
  00097	5d		 pop	 ebp
  00098	c3		 ret	 0
_P_bang	ENDP
; Function compile flags: /Odtp /RTCsu /ZI
_TEXT	ENDS
;	COMDAT _P_at
_TEXT	SEGMENT
_P_at	PROC						; COMDAT

; 839  : {

  00000	55		 push	 ebp
  00001	8b ec		 mov	 ebp, esp
  00003	81 ec c0 00 00
	00		 sub	 esp, 192		; 000000c0H
  00009	53		 push	 ebx
  0000a	56		 push	 esi
  0000b	57		 push	 edi
  0000c	8d bd 40 ff ff
	ff		 lea	 edi, DWORD PTR [ebp-192]
  00012	b9 30 00 00 00	 mov	 ecx, 48			; 00000030H
  00017	b8 cc cc cc cc	 mov	 eax, -858993460		; ccccccccH
  0001c	f3 ab		 rep stosd

; 840  :     Sl(1);

  0001e	a1 00 00 00 00	 mov	 eax, DWORD PTR _stk
  00023	2b 05 00 00 00
	00		 sub	 eax, DWORD PTR _stack
  00029	c1 f8 03	 sar	 eax, 3
  0002c	83 f8 01	 cmp	 eax, 1
  0002f	7d 07		 jge	 SHORT $LN3@P_at
  00031	e8 00 00 00 00	 call	 _stakunder
  00036	eb 40		 jmp	 SHORT $LN4@P_at
$LN3@P_at:

; 841  :     Hpc(S0);

  00038	a1 00 00 00 00	 mov	 eax, DWORD PTR _stk
  0003d	8b 48 f8	 mov	 ecx, DWORD PTR [eax-8]
  00040	3b 0d 00 00 00
	00		 cmp	 ecx, DWORD PTR _heapbot
  00046	72 10		 jb	 SHORT $LN1@P_at
  00048	a1 00 00 00 00	 mov	 eax, DWORD PTR _stk
  0004d	8b 48 f8	 mov	 ecx, DWORD PTR [eax-8]
  00050	3b 0d 00 00 00
	00		 cmp	 ecx, DWORD PTR _heaptop
  00056	72 07		 jb	 SHORT $LN2@P_at
$LN1@P_at:
  00058	e8 00 00 00 00	 call	 _badpointer
  0005d	eb 19		 jmp	 SHORT $LN4@P_at
$LN2@P_at:

; 842  :     S0 = *((stackitem *) S0);

  0005f	a1 00 00 00 00	 mov	 eax, DWORD PTR _stk
  00064	8b 48 f8	 mov	 ecx, DWORD PTR [eax-8]
  00067	8b 15 00 00 00
	00		 mov	 edx, DWORD PTR _stk
  0006d	8b 01		 mov	 eax, DWORD PTR [ecx]
  0006f	89 42 f8	 mov	 DWORD PTR [edx-8], eax
  00072	8b 49 04	 mov	 ecx, DWORD PTR [ecx+4]
  00075	89 4a fc	 mov	 DWORD PTR [edx-4], ecx
$LN4@P_at:

; 843  : }

  00078	5f		 pop	 edi
  00079	5e		 pop	 esi
  0007a	5b		 pop	 ebx
  0007b	81 c4 c0 00 00
	00		 add	 esp, 192		; 000000c0H
  00081	3b ec		 cmp	 ebp, esp
  00083	e8 00 00 00 00	 call	 __RTC_CheckEsp
  00088	8b e5		 mov	 esp, ebp
  0008a	5d		 pop	 ebp
  0008b	c3		 ret	 0
_P_at	ENDP
; Function compile flags: /Odtp /RTCsu /ZI
_TEXT	ENDS
;	COMDAT _P_plusbang
_TEXT	SEGMENT
_P_plusbang PROC					; COMDAT

; 846  : {

  00000	55		 push	 ebp
  00001	8b ec		 mov	 ebp, esp
  00003	81 ec c0 00 00
	00		 sub	 esp, 192		; 000000c0H
  00009	53		 push	 ebx
  0000a	56		 push	 esi
  0000b	57		 push	 edi
  0000c	8d bd 40 ff ff
	ff		 lea	 edi, DWORD PTR [ebp-192]
  00012	b9 30 00 00 00	 mov	 ecx, 48			; 00000030H
  00017	b8 cc cc cc cc	 mov	 eax, -858993460		; ccccccccH
  0001c	f3 ab		 rep stosd

; 847  :     Sl(2);

  0001e	a1 00 00 00 00	 mov	 eax, DWORD PTR _stk
  00023	2b 05 00 00 00
	00		 sub	 eax, DWORD PTR _stack
  00029	c1 f8 03	 sar	 eax, 3
  0002c	83 f8 02	 cmp	 eax, 2
  0002f	7d 07		 jge	 SHORT $LN3@P_plusbang
  00031	e8 00 00 00 00	 call	 _stakunder
  00036	eb 5b		 jmp	 SHORT $LN4@P_plusbang
$LN3@P_plusbang:

; 848  :     Hpc(S0);

  00038	a1 00 00 00 00	 mov	 eax, DWORD PTR _stk
  0003d	8b 48 f8	 mov	 ecx, DWORD PTR [eax-8]
  00040	3b 0d 00 00 00
	00		 cmp	 ecx, DWORD PTR _heapbot
  00046	72 10		 jb	 SHORT $LN1@P_plusbang
  00048	a1 00 00 00 00	 mov	 eax, DWORD PTR _stk
  0004d	8b 48 f8	 mov	 ecx, DWORD PTR [eax-8]
  00050	3b 0d 00 00 00
	00		 cmp	 ecx, DWORD PTR _heaptop
  00056	72 07		 jb	 SHORT $LN2@P_plusbang
$LN1@P_plusbang:
  00058	e8 00 00 00 00	 call	 _badpointer
  0005d	eb 34		 jmp	 SHORT $LN4@P_plusbang
$LN2@P_plusbang:

; 849  :     *((stackitem *) S0) += S1;

  0005f	a1 00 00 00 00	 mov	 eax, DWORD PTR _stk
  00064	8b 48 f8	 mov	 ecx, DWORD PTR [eax-8]
  00067	8b 15 00 00 00
	00		 mov	 edx, DWORD PTR _stk
  0006d	8b 01		 mov	 eax, DWORD PTR [ecx]
  0006f	03 42 f0	 add	 eax, DWORD PTR [edx-16]
  00072	8b 49 04	 mov	 ecx, DWORD PTR [ecx+4]
  00075	13 4a f4	 adc	 ecx, DWORD PTR [edx-12]
  00078	8b 15 00 00 00
	00		 mov	 edx, DWORD PTR _stk
  0007e	8b 52 f8	 mov	 edx, DWORD PTR [edx-8]
  00081	89 02		 mov	 DWORD PTR [edx], eax
  00083	89 4a 04	 mov	 DWORD PTR [edx+4], ecx

; 850  :     Pop2;

  00086	a1 00 00 00 00	 mov	 eax, DWORD PTR _stk
  0008b	83 e8 10	 sub	 eax, 16			; 00000010H
  0008e	a3 00 00 00 00	 mov	 DWORD PTR _stk, eax
$LN4@P_plusbang:

; 851  : }

  00093	5f		 pop	 edi
  00094	5e		 pop	 esi
  00095	5b		 pop	 ebx
  00096	81 c4 c0 00 00
	00		 add	 esp, 192		; 000000c0H
  0009c	3b ec		 cmp	 ebp, esp
  0009e	e8 00 00 00 00	 call	 __RTC_CheckEsp
  000a3	8b e5		 mov	 esp, ebp
  000a5	5d		 pop	 ebp
  000a6	c3		 ret	 0
_P_plusbang ENDP
; Function compile flags: /Odtp /RTCsu /ZI
_TEXT	ENDS
;	COMDAT _P_allot
_TEXT	SEGMENT
_n$ = -12						; size = 8
_P_allot PROC						; COMDAT

; 854  : {

  00000	55		 push	 ebp
  00001	8b ec		 mov	 ebp, esp
  00003	81 ec d0 00 00
	00		 sub	 esp, 208		; 000000d0H
  00009	53		 push	 ebx
  0000a	56		 push	 esi
  0000b	57		 push	 edi
  0000c	8d bd 30 ff ff
	ff		 lea	 edi, DWORD PTR [ebp-208]
  00012	b9 34 00 00 00	 mov	 ecx, 52			; 00000034H
  00017	b8 cc cc cc cc	 mov	 eax, -858993460		; ccccccccH
  0001c	f3 ab		 rep stosd

; 855  :     stackitem n;
; 856  : 
; 857  :     Sl(1);

  0001e	a1 00 00 00 00	 mov	 eax, DWORD PTR _stk
  00023	2b 05 00 00 00
	00		 sub	 eax, DWORD PTR _stack
  00029	c1 f8 03	 sar	 eax, 3
  0002c	83 f8 01	 cmp	 eax, 1
  0002f	7d 07		 jge	 SHORT $LN2@P_allot
  00031	e8 00 00 00 00	 call	 _stakunder
  00036	eb 71		 jmp	 SHORT $LN3@P_allot
$LN2@P_allot:

; 858  :     n = (S0 + (sizeof(stackitem) - 1)) / sizeof(stackitem);

  00038	a1 00 00 00 00	 mov	 eax, DWORD PTR _stk
  0003d	8b 48 f8	 mov	 ecx, DWORD PTR [eax-8]
  00040	83 c1 07	 add	 ecx, 7
  00043	8b 50 fc	 mov	 edx, DWORD PTR [eax-4]
  00046	83 d2 00	 adc	 edx, 0
  00049	6a 00		 push	 0
  0004b	6a 08		 push	 8
  0004d	52		 push	 edx
  0004e	51		 push	 ecx
  0004f	e8 00 00 00 00	 call	 __alldiv
  00054	89 45 f4	 mov	 DWORD PTR _n$[ebp], eax
  00057	89 55 f8	 mov	 DWORD PTR _n$[ebp+4], edx

; 859  :     Pop;

  0005a	a1 00 00 00 00	 mov	 eax, DWORD PTR _stk
  0005f	83 e8 08	 sub	 eax, 8
  00062	a3 00 00 00 00	 mov	 DWORD PTR _stk, eax

; 860  :     Ho(n);

  00067	6a 00		 push	 0
  00069	6a 08		 push	 8
  0006b	8b 45 f8	 mov	 eax, DWORD PTR _n$[ebp+4]
  0006e	50		 push	 eax
  0006f	8b 4d f4	 mov	 ecx, DWORD PTR _n$[ebp]
  00072	51		 push	 ecx
  00073	e8 00 00 00 00	 call	 __allmul
  00078	03 05 00 00 00
	00		 add	 eax, DWORD PTR _hptr
  0007e	3b 05 00 00 00
	00		 cmp	 eax, DWORD PTR _heaptop
  00084	76 07		 jbe	 SHORT $LN1@P_allot
  00086	e8 00 00 00 00	 call	 _heapover
  0008b	eb 1c		 jmp	 SHORT $LN3@P_allot
$LN1@P_allot:

; 861  :     hptr += n;

  0008d	6a 00		 push	 0
  0008f	6a 08		 push	 8
  00091	8b 45 f8	 mov	 eax, DWORD PTR _n$[ebp+4]
  00094	50		 push	 eax
  00095	8b 4d f4	 mov	 ecx, DWORD PTR _n$[ebp]
  00098	51		 push	 ecx
  00099	e8 00 00 00 00	 call	 __allmul
  0009e	03 05 00 00 00
	00		 add	 eax, DWORD PTR _hptr
  000a4	a3 00 00 00 00	 mov	 DWORD PTR _hptr, eax
$LN3@P_allot:

; 862  : }

  000a9	5f		 pop	 edi
  000aa	5e		 pop	 esi
  000ab	5b		 pop	 ebx
  000ac	81 c4 d0 00 00
	00		 add	 esp, 208		; 000000d0H
  000b2	3b ec		 cmp	 ebp, esp
  000b4	e8 00 00 00 00	 call	 __RTC_CheckEsp
  000b9	8b e5		 mov	 esp, ebp
  000bb	5d		 pop	 ebp
  000bc	c3		 ret	 0
_P_allot ENDP
; Function compile flags: /Odtp /RTCsu /ZI
_TEXT	ENDS
;	COMDAT _P_comma
_TEXT	SEGMENT
_P_comma PROC						; COMDAT

; 865  : {

  00000	55		 push	 ebp
  00001	8b ec		 mov	 ebp, esp
  00003	81 ec c0 00 00
	00		 sub	 esp, 192		; 000000c0H
  00009	53		 push	 ebx
  0000a	56		 push	 esi
  0000b	57		 push	 edi
  0000c	8d bd 40 ff ff
	ff		 lea	 edi, DWORD PTR [ebp-192]
  00012	b9 30 00 00 00	 mov	 ecx, 48			; 00000030H
  00017	b8 cc cc cc cc	 mov	 eax, -858993460		; ccccccccH
  0001c	f3 ab		 rep stosd

; 866  :     Sl(1);

  0001e	a1 00 00 00 00	 mov	 eax, DWORD PTR _stk
  00023	2b 05 00 00 00
	00		 sub	 eax, DWORD PTR _stack
  00029	c1 f8 03	 sar	 eax, 3
  0002c	83 f8 01	 cmp	 eax, 1
  0002f	7d 07		 jge	 SHORT $LN2@P_comma
  00031	e8 00 00 00 00	 call	 _stakunder
  00036	eb 49		 jmp	 SHORT $LN3@P_comma
$LN2@P_comma:

; 867  :     Ho(1);

  00038	a1 00 00 00 00	 mov	 eax, DWORD PTR _hptr
  0003d	83 c0 08	 add	 eax, 8
  00040	3b 05 00 00 00
	00		 cmp	 eax, DWORD PTR _heaptop
  00046	76 07		 jbe	 SHORT $LN1@P_comma
  00048	e8 00 00 00 00	 call	 _heapover
  0004d	eb 32		 jmp	 SHORT $LN3@P_comma
$LN1@P_comma:

; 868  :     Hstore = S0;

  0004f	a1 00 00 00 00	 mov	 eax, DWORD PTR _hptr
  00054	8b 0d 00 00 00
	00		 mov	 ecx, DWORD PTR _stk
  0005a	8b 51 f8	 mov	 edx, DWORD PTR [ecx-8]
  0005d	89 10		 mov	 DWORD PTR [eax], edx
  0005f	8b 49 fc	 mov	 ecx, DWORD PTR [ecx-4]
  00062	89 48 04	 mov	 DWORD PTR [eax+4], ecx
  00065	8b 15 00 00 00
	00		 mov	 edx, DWORD PTR _hptr
  0006b	83 c2 08	 add	 edx, 8
  0006e	89 15 00 00 00
	00		 mov	 DWORD PTR _hptr, edx

; 869  :     Pop;

  00074	a1 00 00 00 00	 mov	 eax, DWORD PTR _stk
  00079	83 e8 08	 sub	 eax, 8
  0007c	a3 00 00 00 00	 mov	 DWORD PTR _stk, eax
$LN3@P_comma:

; 870  : }

  00081	5f		 pop	 edi
  00082	5e		 pop	 esi
  00083	5b		 pop	 ebx
  00084	81 c4 c0 00 00
	00		 add	 esp, 192		; 000000c0H
  0008a	3b ec		 cmp	 ebp, esp
  0008c	e8 00 00 00 00	 call	 __RTC_CheckEsp
  00091	8b e5		 mov	 esp, ebp
  00093	5d		 pop	 ebp
  00094	c3		 ret	 0
_P_comma ENDP
; Function compile flags: /Odtp /RTCsu /ZI
_TEXT	ENDS
;	COMDAT _P_cbang
_TEXT	SEGMENT
_P_cbang PROC						; COMDAT

; 873  : {

  00000	55		 push	 ebp
  00001	8b ec		 mov	 ebp, esp
  00003	81 ec c0 00 00
	00		 sub	 esp, 192		; 000000c0H
  00009	53		 push	 ebx
  0000a	56		 push	 esi
  0000b	57		 push	 edi
  0000c	8d bd 40 ff ff
	ff		 lea	 edi, DWORD PTR [ebp-192]
  00012	b9 30 00 00 00	 mov	 ecx, 48			; 00000030H
  00017	b8 cc cc cc cc	 mov	 eax, -858993460		; ccccccccH
  0001c	f3 ab		 rep stosd

; 874  :     Sl(2);

  0001e	a1 00 00 00 00	 mov	 eax, DWORD PTR _stk
  00023	2b 05 00 00 00
	00		 sub	 eax, DWORD PTR _stack
  00029	c1 f8 03	 sar	 eax, 3
  0002c	83 f8 02	 cmp	 eax, 2
  0002f	7d 07		 jge	 SHORT $LN3@P_cbang
  00031	e8 00 00 00 00	 call	 _stakunder
  00036	eb 47		 jmp	 SHORT $LN4@P_cbang
$LN3@P_cbang:

; 875  :     Hpc(S0);

  00038	a1 00 00 00 00	 mov	 eax, DWORD PTR _stk
  0003d	8b 48 f8	 mov	 ecx, DWORD PTR [eax-8]
  00040	3b 0d 00 00 00
	00		 cmp	 ecx, DWORD PTR _heapbot
  00046	72 10		 jb	 SHORT $LN1@P_cbang
  00048	a1 00 00 00 00	 mov	 eax, DWORD PTR _stk
  0004d	8b 48 f8	 mov	 ecx, DWORD PTR [eax-8]
  00050	3b 0d 00 00 00
	00		 cmp	 ecx, DWORD PTR _heaptop
  00056	72 07		 jb	 SHORT $LN2@P_cbang
$LN1@P_cbang:
  00058	e8 00 00 00 00	 call	 _badpointer
  0005d	eb 20		 jmp	 SHORT $LN4@P_cbang
$LN2@P_cbang:

; 876  :     *((unsigned char *) S0) = S1;

  0005f	a1 00 00 00 00	 mov	 eax, DWORD PTR _stk
  00064	8b 48 f8	 mov	 ecx, DWORD PTR [eax-8]
  00067	8b 15 00 00 00
	00		 mov	 edx, DWORD PTR _stk
  0006d	8a 42 f0	 mov	 al, BYTE PTR [edx-16]
  00070	88 01		 mov	 BYTE PTR [ecx], al

; 877  :     Pop2;

  00072	a1 00 00 00 00	 mov	 eax, DWORD PTR _stk
  00077	83 e8 10	 sub	 eax, 16			; 00000010H
  0007a	a3 00 00 00 00	 mov	 DWORD PTR _stk, eax
$LN4@P_cbang:

; 878  : }

  0007f	5f		 pop	 edi
  00080	5e		 pop	 esi
  00081	5b		 pop	 ebx
  00082	81 c4 c0 00 00
	00		 add	 esp, 192		; 000000c0H
  00088	3b ec		 cmp	 ebp, esp
  0008a	e8 00 00 00 00	 call	 __RTC_CheckEsp
  0008f	8b e5		 mov	 esp, ebp
  00091	5d		 pop	 ebp
  00092	c3		 ret	 0
_P_cbang ENDP
; Function compile flags: /Odtp /RTCsu /ZI
_TEXT	ENDS
;	COMDAT _P_cat
_TEXT	SEGMENT
_P_cat	PROC						; COMDAT

; 881  : {

  00000	55		 push	 ebp
  00001	8b ec		 mov	 ebp, esp
  00003	81 ec c0 00 00
	00		 sub	 esp, 192		; 000000c0H
  00009	53		 push	 ebx
  0000a	56		 push	 esi
  0000b	57		 push	 edi
  0000c	8d bd 40 ff ff
	ff		 lea	 edi, DWORD PTR [ebp-192]
  00012	b9 30 00 00 00	 mov	 ecx, 48			; 00000030H
  00017	b8 cc cc cc cc	 mov	 eax, -858993460		; ccccccccH
  0001c	f3 ab		 rep stosd

; 882  :     Sl(1);

  0001e	a1 00 00 00 00	 mov	 eax, DWORD PTR _stk
  00023	2b 05 00 00 00
	00		 sub	 eax, DWORD PTR _stack
  00029	c1 f8 03	 sar	 eax, 3
  0002c	83 f8 01	 cmp	 eax, 1
  0002f	7d 07		 jge	 SHORT $LN3@P_cat
  00031	e8 00 00 00 00	 call	 _stakunder
  00036	eb 3f		 jmp	 SHORT $LN4@P_cat
$LN3@P_cat:

; 883  :     Hpc(S0);

  00038	a1 00 00 00 00	 mov	 eax, DWORD PTR _stk
  0003d	8b 48 f8	 mov	 ecx, DWORD PTR [eax-8]
  00040	3b 0d 00 00 00
	00		 cmp	 ecx, DWORD PTR _heapbot
  00046	72 10		 jb	 SHORT $LN1@P_cat
  00048	a1 00 00 00 00	 mov	 eax, DWORD PTR _stk
  0004d	8b 48 f8	 mov	 ecx, DWORD PTR [eax-8]
  00050	3b 0d 00 00 00
	00		 cmp	 ecx, DWORD PTR _heaptop
  00056	72 07		 jb	 SHORT $LN2@P_cat
$LN1@P_cat:
  00058	e8 00 00 00 00	 call	 _badpointer
  0005d	eb 18		 jmp	 SHORT $LN4@P_cat
$LN2@P_cat:

; 884  :     S0 = *((unsigned char *) S0);

  0005f	a1 00 00 00 00	 mov	 eax, DWORD PTR _stk
  00064	8b 48 f8	 mov	 ecx, DWORD PTR [eax-8]
  00067	0f b6 01	 movzx	 eax, BYTE PTR [ecx]
  0006a	99		 cdq
  0006b	8b 0d 00 00 00
	00		 mov	 ecx, DWORD PTR _stk
  00071	89 41 f8	 mov	 DWORD PTR [ecx-8], eax
  00074	89 51 fc	 mov	 DWORD PTR [ecx-4], edx
$LN4@P_cat:

; 885  : }

  00077	5f		 pop	 edi
  00078	5e		 pop	 esi
  00079	5b		 pop	 ebx
  0007a	81 c4 c0 00 00
	00		 add	 esp, 192		; 000000c0H
  00080	3b ec		 cmp	 ebp, esp
  00082	e8 00 00 00 00	 call	 __RTC_CheckEsp
  00087	8b e5		 mov	 esp, ebp
  00089	5d		 pop	 ebp
  0008a	c3		 ret	 0
_P_cat	ENDP
; Function compile flags: /Odtp /RTCsu /ZI
_TEXT	ENDS
;	COMDAT _P_ccomma
_TEXT	SEGMENT
_chp$ = -8						; size = 4
_P_ccomma PROC						; COMDAT

; 888  : {

  00000	55		 push	 ebp
  00001	8b ec		 mov	 ebp, esp
  00003	81 ec cc 00 00
	00		 sub	 esp, 204		; 000000ccH
  00009	53		 push	 ebx
  0000a	56		 push	 esi
  0000b	57		 push	 edi
  0000c	8d bd 34 ff ff
	ff		 lea	 edi, DWORD PTR [ebp-204]
  00012	b9 33 00 00 00	 mov	 ecx, 51			; 00000033H
  00017	b8 cc cc cc cc	 mov	 eax, -858993460		; ccccccccH
  0001c	f3 ab		 rep stosd

; 889  :     unsigned char *chp;
; 890  : 
; 891  :     Sl(1);

  0001e	a1 00 00 00 00	 mov	 eax, DWORD PTR _stk
  00023	2b 05 00 00 00
	00		 sub	 eax, DWORD PTR _stack
  00029	c1 f8 03	 sar	 eax, 3
  0002c	83 f8 01	 cmp	 eax, 1
  0002f	7d 07		 jge	 SHORT $LN2@P_ccomma
  00031	e8 00 00 00 00	 call	 _stakunder
  00036	eb 4a		 jmp	 SHORT $LN3@P_ccomma
$LN2@P_ccomma:

; 892  :     Ho(1);

  00038	a1 00 00 00 00	 mov	 eax, DWORD PTR _hptr
  0003d	83 c0 08	 add	 eax, 8
  00040	3b 05 00 00 00
	00		 cmp	 eax, DWORD PTR _heaptop
  00046	76 07		 jbe	 SHORT $LN1@P_ccomma
  00048	e8 00 00 00 00	 call	 _heapover
  0004d	eb 33		 jmp	 SHORT $LN3@P_ccomma
$LN1@P_ccomma:

; 893  :     chp = ((unsigned char *) hptr);

  0004f	a1 00 00 00 00	 mov	 eax, DWORD PTR _hptr
  00054	89 45 f8	 mov	 DWORD PTR _chp$[ebp], eax

; 894  :     *chp++ = S0;

  00057	a1 00 00 00 00	 mov	 eax, DWORD PTR _stk
  0005c	8a 48 f8	 mov	 cl, BYTE PTR [eax-8]
  0005f	8b 55 f8	 mov	 edx, DWORD PTR _chp$[ebp]
  00062	88 0a		 mov	 BYTE PTR [edx], cl
  00064	8b 45 f8	 mov	 eax, DWORD PTR _chp$[ebp]
  00067	83 c0 01	 add	 eax, 1
  0006a	89 45 f8	 mov	 DWORD PTR _chp$[ebp], eax

; 895  :     hptr = (stackitem *) chp;

  0006d	8b 45 f8	 mov	 eax, DWORD PTR _chp$[ebp]
  00070	a3 00 00 00 00	 mov	 DWORD PTR _hptr, eax

; 896  :     Pop;

  00075	a1 00 00 00 00	 mov	 eax, DWORD PTR _stk
  0007a	83 e8 08	 sub	 eax, 8
  0007d	a3 00 00 00 00	 mov	 DWORD PTR _stk, eax
$LN3@P_ccomma:

; 897  : }

  00082	5f		 pop	 edi
  00083	5e		 pop	 esi
  00084	5b		 pop	 ebx
  00085	81 c4 cc 00 00
	00		 add	 esp, 204		; 000000ccH
  0008b	3b ec		 cmp	 ebp, esp
  0008d	e8 00 00 00 00	 call	 __RTC_CheckEsp
  00092	8b e5		 mov	 esp, ebp
  00094	5d		 pop	 ebp
  00095	c3		 ret	 0
_P_ccomma ENDP
; Function compile flags: /Odtp /RTCsu /ZI
_TEXT	ENDS
;	COMDAT _P_cequal
_TEXT	SEGMENT
_chp$83220 = -24					; size = 4
_n$ = -12						; size = 8
_P_cequal PROC						; COMDAT

; 900  : {				      /* a series of bytes. */

  00000	55		 push	 ebp
  00001	8b ec		 mov	 ebp, esp
  00003	81 ec dc 00 00
	00		 sub	 esp, 220		; 000000dcH
  00009	53		 push	 ebx
  0000a	56		 push	 esi
  0000b	57		 push	 edi
  0000c	8d bd 24 ff ff
	ff		 lea	 edi, DWORD PTR [ebp-220]
  00012	b9 37 00 00 00	 mov	 ecx, 55			; 00000037H
  00017	b8 cc cc cc cc	 mov	 eax, -858993460		; ccccccccH
  0001c	f3 ab		 rep stosd

; 901  :     stackitem n = (((stackitem) hptr) - ((stackitem) heap)) %
; 902  : 			(sizeof(stackitem));

  0001e	a1 00 00 00 00	 mov	 eax, DWORD PTR _hptr
  00023	99		 cdq
  00024	8b c8		 mov	 ecx, eax
  00026	8b f2		 mov	 esi, edx
  00028	a1 00 00 00 00	 mov	 eax, DWORD PTR _heap
  0002d	99		 cdq
  0002e	2b c8		 sub	 ecx, eax
  00030	1b f2		 sbb	 esi, edx
  00032	6a 00		 push	 0
  00034	6a 08		 push	 8
  00036	56		 push	 esi
  00037	51		 push	 ecx
  00038	e8 00 00 00 00	 call	 __allrem
  0003d	89 45 f4	 mov	 DWORD PTR _n$[ebp], eax
  00040	89 55 f8	 mov	 DWORD PTR _n$[ebp+4], edx

; 903  : 
; 904  :     if (n != 0) {

  00043	8b 45 f4	 mov	 eax, DWORD PTR _n$[ebp]
  00046	0b 45 f8	 or	 eax, DWORD PTR _n$[ebp+4]
  00049	74 26		 je	 SHORT $LN2@P_cequal

; 905  : 	char *chp = ((char *) hptr);

  0004b	a1 00 00 00 00	 mov	 eax, DWORD PTR _hptr
  00050	89 45 e8	 mov	 DWORD PTR _chp$83220[ebp], eax

; 906  : 
; 907  : 	chp += sizeof(stackitem) - n;

  00053	b8 08 00 00 00	 mov	 eax, 8
  00058	2b 45 f4	 sub	 eax, DWORD PTR _n$[ebp]
  0005b	b9 00 00 00 00	 mov	 ecx, 0
  00060	1b 4d f8	 sbb	 ecx, DWORD PTR _n$[ebp+4]
  00063	03 45 e8	 add	 eax, DWORD PTR _chp$83220[ebp]
  00066	89 45 e8	 mov	 DWORD PTR _chp$83220[ebp], eax

; 908  : 	hptr = ((stackitem *) chp);

  00069	8b 45 e8	 mov	 eax, DWORD PTR _chp$83220[ebp]
  0006c	a3 00 00 00 00	 mov	 DWORD PTR _hptr, eax
$LN2@P_cequal:

; 909  :     }
; 910  : }

  00071	5f		 pop	 edi
  00072	5e		 pop	 esi
  00073	5b		 pop	 ebx
  00074	81 c4 dc 00 00
	00		 add	 esp, 220		; 000000dcH
  0007a	3b ec		 cmp	 ebp, esp
  0007c	e8 00 00 00 00	 call	 __RTC_CheckEsp
  00081	8b e5		 mov	 esp, ebp
  00083	5d		 pop	 ebp
  00084	c3		 ret	 0
_P_cequal ENDP
; Function compile flags: /Odtp /RTCsu /ZI
_TEXT	ENDS
;	COMDAT _P_create
_TEXT	SEGMENT
_P_create PROC						; COMDAT

; 921  : {

  00000	55		 push	 ebp
  00001	8b ec		 mov	 ebp, esp
  00003	81 ec c0 00 00
	00		 sub	 esp, 192		; 000000c0H
  00009	53		 push	 ebx
  0000a	56		 push	 esi
  0000b	57		 push	 edi
  0000c	8d bd 40 ff ff
	ff		 lea	 edi, DWORD PTR [ebp-192]
  00012	b9 30 00 00 00	 mov	 ecx, 48			; 00000030H
  00017	b8 cc cc cc cc	 mov	 eax, -858993460		; ccccccccH
  0001c	f3 ab		 rep stosd

; 922  :     defpend = True;		      /* Set definition pending */

  0001e	c7 05 00 00 00
	00 01 00 00 00	 mov	 DWORD PTR _defpend, 1

; 923  :     Ho(Dictwordl);

  00028	a1 00 00 00 00	 mov	 eax, DWORD PTR _hptr
  0002d	83 c0 10	 add	 eax, 16			; 00000010H
  00030	3b 05 00 00 00
	00		 cmp	 eax, DWORD PTR _heaptop
  00036	76 07		 jbe	 SHORT $LN1@P_create
  00038	e8 00 00 00 00	 call	 _heapover
  0003d	eb 2f		 jmp	 SHORT $LN2@P_create
$LN1@P_create:

; 924  :     createword = (dictword *) hptr;   /* Develop address of word */

  0003f	a1 00 00 00 00	 mov	 eax, DWORD PTR _hptr
  00044	a3 00 00 00 00	 mov	 DWORD PTR _createword, eax

; 925  :     createword->wname = NULL;	      /* Clear pointer to name string */

  00049	a1 00 00 00 00	 mov	 eax, DWORD PTR _createword
  0004e	c7 40 04 00 00
	00 00		 mov	 DWORD PTR [eax+4], 0

; 926  :     createword->wcode = P_var;	      /* Store default code */

  00055	a1 00 00 00 00	 mov	 eax, DWORD PTR _createword
  0005a	c7 40 08 00 00
	00 00		 mov	 DWORD PTR [eax+8], OFFSET _P_var

; 927  :     hptr += Dictwordl;		      /* Allocate heap space for word */

  00061	a1 00 00 00 00	 mov	 eax, DWORD PTR _hptr
  00066	83 c0 10	 add	 eax, 16			; 00000010H
  00069	a3 00 00 00 00	 mov	 DWORD PTR _hptr, eax
$LN2@P_create:

; 928  : }

  0006e	5f		 pop	 edi
  0006f	5e		 pop	 esi
  00070	5b		 pop	 ebx
  00071	81 c4 c0 00 00
	00		 add	 esp, 192		; 000000c0H
  00077	3b ec		 cmp	 ebp, esp
  00079	e8 00 00 00 00	 call	 __RTC_CheckEsp
  0007e	8b e5		 mov	 esp, ebp
  00080	5d		 pop	 ebp
  00081	c3		 ret	 0
_P_create ENDP
; Function compile flags: /Odtp /RTCsu /ZI
_TEXT	ENDS
;	COMDAT _P_var
_TEXT	SEGMENT
_P_var	PROC						; COMDAT

; 915  : {

  00000	55		 push	 ebp
  00001	8b ec		 mov	 ebp, esp
  00003	81 ec c0 00 00
	00		 sub	 esp, 192		; 000000c0H
  00009	53		 push	 ebx
  0000a	56		 push	 esi
  0000b	57		 push	 edi
  0000c	8d bd 40 ff ff
	ff		 lea	 edi, DWORD PTR [ebp-192]
  00012	b9 30 00 00 00	 mov	 ecx, 48			; 00000030H
  00017	b8 cc cc cc cc	 mov	 eax, -858993460		; ccccccccH
  0001c	f3 ab		 rep stosd

; 916  :     So(1);

  0001e	a1 00 00 00 00	 mov	 eax, DWORD PTR _stk
  00023	83 c0 08	 add	 eax, 8
  00026	3b 05 00 00 00
	00		 cmp	 eax, DWORD PTR _stacktop
  0002c	76 07		 jbe	 SHORT $LN1@P_var
  0002e	e8 00 00 00 00	 call	 _stakover
  00033	eb 23		 jmp	 SHORT $LN2@P_var
$LN1@P_var:

; 917  :     Push = (stackitem) (((stackitem *) curword) + Dictwordl);

  00035	a1 00 00 00 00	 mov	 eax, DWORD PTR _curword
  0003a	83 c0 10	 add	 eax, 16			; 00000010H
  0003d	99		 cdq
  0003e	8b 0d 00 00 00
	00		 mov	 ecx, DWORD PTR _stk
  00044	89 01		 mov	 DWORD PTR [ecx], eax
  00046	89 51 04	 mov	 DWORD PTR [ecx+4], edx
  00049	8b 15 00 00 00
	00		 mov	 edx, DWORD PTR _stk
  0004f	83 c2 08	 add	 edx, 8
  00052	89 15 00 00 00
	00		 mov	 DWORD PTR _stk, edx
$LN2@P_var:

; 918  : }

  00058	5f		 pop	 edi
  00059	5e		 pop	 esi
  0005a	5b		 pop	 ebx
  0005b	81 c4 c0 00 00
	00		 add	 esp, 192		; 000000c0H
  00061	3b ec		 cmp	 ebp, esp
  00063	e8 00 00 00 00	 call	 __RTC_CheckEsp
  00068	8b e5		 mov	 esp, ebp
  0006a	5d		 pop	 ebp
  0006b	c3		 ret	 0
_P_var	ENDP
; Function compile flags: /Odtp /RTCsu /ZI
_TEXT	ENDS
;	COMDAT _P_forget
_TEXT	SEGMENT
_P_forget PROC						; COMDAT

; 931  : {

  00000	55		 push	 ebp
  00001	8b ec		 mov	 ebp, esp
  00003	81 ec c0 00 00
	00		 sub	 esp, 192		; 000000c0H
  00009	53		 push	 ebx
  0000a	56		 push	 esi
  0000b	57		 push	 edi
  0000c	8d bd 40 ff ff
	ff		 lea	 edi, DWORD PTR [ebp-192]
  00012	b9 30 00 00 00	 mov	 ecx, 48			; 00000030H
  00017	b8 cc cc cc cc	 mov	 eax, -858993460		; ccccccccH
  0001c	f3 ab		 rep stosd

; 932  :     forgetpend = True;		      /* Mark forget pending */

  0001e	c7 05 00 00 00
	00 01 00 00 00	 mov	 DWORD PTR _forgetpend, 1

; 933  : }

  00028	5f		 pop	 edi
  00029	5e		 pop	 esi
  0002a	5b		 pop	 ebx
  0002b	8b e5		 mov	 esp, ebp
  0002d	5d		 pop	 ebp
  0002e	c3		 ret	 0
_P_forget ENDP
; Function compile flags: /Odtp /RTCsu /ZI
_TEXT	ENDS
;	COMDAT _P_variable
_TEXT	SEGMENT
_P_variable PROC					; COMDAT

; 936  : {

  00000	55		 push	 ebp
  00001	8b ec		 mov	 ebp, esp
  00003	81 ec c0 00 00
	00		 sub	 esp, 192		; 000000c0H
  00009	53		 push	 ebx
  0000a	56		 push	 esi
  0000b	57		 push	 edi
  0000c	8d bd 40 ff ff
	ff		 lea	 edi, DWORD PTR [ebp-192]
  00012	b9 30 00 00 00	 mov	 ecx, 48			; 00000030H
  00017	b8 cc cc cc cc	 mov	 eax, -858993460		; ccccccccH
  0001c	f3 ab		 rep stosd

; 937  :     P_create(); 		      /* Create dictionary item */

  0001e	e8 00 00 00 00	 call	 _P_create

; 938  :     Ho(1);

  00023	a1 00 00 00 00	 mov	 eax, DWORD PTR _hptr
  00028	83 c0 08	 add	 eax, 8
  0002b	3b 05 00 00 00
	00		 cmp	 eax, DWORD PTR _heaptop
  00031	76 07		 jbe	 SHORT $LN1@P_variable
  00033	e8 00 00 00 00	 call	 _heapover
  00038	eb 21		 jmp	 SHORT $LN2@P_variable
$LN1@P_variable:

; 939  :     Hstore = 0; 		      /* Initial value = 0 */

  0003a	a1 00 00 00 00	 mov	 eax, DWORD PTR _hptr
  0003f	c7 00 00 00 00
	00		 mov	 DWORD PTR [eax], 0
  00045	c7 40 04 00 00
	00 00		 mov	 DWORD PTR [eax+4], 0
  0004c	8b 0d 00 00 00
	00		 mov	 ecx, DWORD PTR _hptr
  00052	83 c1 08	 add	 ecx, 8
  00055	89 0d 00 00 00
	00		 mov	 DWORD PTR _hptr, ecx
$LN2@P_variable:

; 940  : }

  0005b	5f		 pop	 edi
  0005c	5e		 pop	 esi
  0005d	5b		 pop	 ebx
  0005e	81 c4 c0 00 00
	00		 add	 esp, 192		; 000000c0H
  00064	3b ec		 cmp	 ebp, esp
  00066	e8 00 00 00 00	 call	 __RTC_CheckEsp
  0006b	8b e5		 mov	 esp, ebp
  0006d	5d		 pop	 ebp
  0006e	c3		 ret	 0
_P_variable ENDP
; Function compile flags: /Odtp /RTCsu /ZI
_TEXT	ENDS
;	COMDAT _P_constant
_TEXT	SEGMENT
_P_constant PROC					; COMDAT

; 949  : {

  00000	55		 push	 ebp
  00001	8b ec		 mov	 ebp, esp
  00003	81 ec c0 00 00
	00		 sub	 esp, 192		; 000000c0H
  00009	53		 push	 ebx
  0000a	56		 push	 esi
  0000b	57		 push	 edi
  0000c	8d bd 40 ff ff
	ff		 lea	 edi, DWORD PTR [ebp-192]
  00012	b9 30 00 00 00	 mov	 ecx, 48			; 00000030H
  00017	b8 cc cc cc cc	 mov	 eax, -858993460		; ccccccccH
  0001c	f3 ab		 rep stosd

; 950  :     Sl(1);

  0001e	a1 00 00 00 00	 mov	 eax, DWORD PTR _stk
  00023	2b 05 00 00 00
	00		 sub	 eax, DWORD PTR _stack
  00029	c1 f8 03	 sar	 eax, 3
  0002c	83 f8 01	 cmp	 eax, 1
  0002f	7d 07		 jge	 SHORT $LN2@P_constant
  00031	e8 00 00 00 00	 call	 _stakunder
  00036	eb 5a		 jmp	 SHORT $LN3@P_constant
$LN2@P_constant:

; 951  :     P_create(); 		      /* Create dictionary item */

  00038	e8 00 00 00 00	 call	 _P_create

; 952  :     createword->wcode = P_con;	      /* Set code to constant push */

  0003d	a1 00 00 00 00	 mov	 eax, DWORD PTR _createword
  00042	c7 40 08 00 00
	00 00		 mov	 DWORD PTR [eax+8], OFFSET _P_con

; 953  :     Ho(1);

  00049	a1 00 00 00 00	 mov	 eax, DWORD PTR _hptr
  0004e	83 c0 08	 add	 eax, 8
  00051	3b 05 00 00 00
	00		 cmp	 eax, DWORD PTR _heaptop
  00057	76 07		 jbe	 SHORT $LN1@P_constant
  00059	e8 00 00 00 00	 call	 _heapover
  0005e	eb 32		 jmp	 SHORT $LN3@P_constant
$LN1@P_constant:

; 954  :     Hstore = S0;		      /* Store constant value in body */

  00060	a1 00 00 00 00	 mov	 eax, DWORD PTR _hptr
  00065	8b 0d 00 00 00
	00		 mov	 ecx, DWORD PTR _stk
  0006b	8b 51 f8	 mov	 edx, DWORD PTR [ecx-8]
  0006e	89 10		 mov	 DWORD PTR [eax], edx
  00070	8b 49 fc	 mov	 ecx, DWORD PTR [ecx-4]
  00073	89 48 04	 mov	 DWORD PTR [eax+4], ecx
  00076	8b 15 00 00 00
	00		 mov	 edx, DWORD PTR _hptr
  0007c	83 c2 08	 add	 edx, 8
  0007f	89 15 00 00 00
	00		 mov	 DWORD PTR _hptr, edx

; 955  :     Pop;

  00085	a1 00 00 00 00	 mov	 eax, DWORD PTR _stk
  0008a	83 e8 08	 sub	 eax, 8
  0008d	a3 00 00 00 00	 mov	 DWORD PTR _stk, eax
$LN3@P_constant:

; 956  : }

  00092	5f		 pop	 edi
  00093	5e		 pop	 esi
  00094	5b		 pop	 ebx
  00095	81 c4 c0 00 00
	00		 add	 esp, 192		; 000000c0H
  0009b	3b ec		 cmp	 ebp, esp
  0009d	e8 00 00 00 00	 call	 __RTC_CheckEsp
  000a2	8b e5		 mov	 esp, ebp
  000a4	5d		 pop	 ebp
  000a5	c3		 ret	 0
_P_constant ENDP
; Function compile flags: /Odtp /RTCsu /ZI
_TEXT	ENDS
;	COMDAT _P_con
_TEXT	SEGMENT
_P_con	PROC						; COMDAT

; 943  : {

  00000	55		 push	 ebp
  00001	8b ec		 mov	 ebp, esp
  00003	81 ec c0 00 00
	00		 sub	 esp, 192		; 000000c0H
  00009	53		 push	 ebx
  0000a	56		 push	 esi
  0000b	57		 push	 edi
  0000c	8d bd 40 ff ff
	ff		 lea	 edi, DWORD PTR [ebp-192]
  00012	b9 30 00 00 00	 mov	 ecx, 48			; 00000030H
  00017	b8 cc cc cc cc	 mov	 eax, -858993460		; ccccccccH
  0001c	f3 ab		 rep stosd

; 944  :     So(1);

  0001e	a1 00 00 00 00	 mov	 eax, DWORD PTR _stk
  00023	83 c0 08	 add	 eax, 8
  00026	3b 05 00 00 00
	00		 cmp	 eax, DWORD PTR _stacktop
  0002c	76 07		 jbe	 SHORT $LN1@P_con
  0002e	e8 00 00 00 00	 call	 _stakover
  00033	eb 25		 jmp	 SHORT $LN2@P_con
$LN1@P_con:

; 945  :     Push = *(((stackitem *) curword) + Dictwordl);

  00035	a1 00 00 00 00	 mov	 eax, DWORD PTR _stk
  0003a	8b 0d 00 00 00
	00		 mov	 ecx, DWORD PTR _curword
  00040	8b 51 10	 mov	 edx, DWORD PTR [ecx+16]
  00043	89 10		 mov	 DWORD PTR [eax], edx
  00045	8b 49 14	 mov	 ecx, DWORD PTR [ecx+20]
  00048	89 48 04	 mov	 DWORD PTR [eax+4], ecx
  0004b	8b 15 00 00 00
	00		 mov	 edx, DWORD PTR _stk
  00051	83 c2 08	 add	 edx, 8
  00054	89 15 00 00 00
	00		 mov	 DWORD PTR _stk, edx
$LN2@P_con:

; 946  : }

  0005a	5f		 pop	 edi
  0005b	5e		 pop	 esi
  0005c	5b		 pop	 ebx
  0005d	81 c4 c0 00 00
	00		 add	 esp, 192		; 000000c0H
  00063	3b ec		 cmp	 ebp, esp
  00065	e8 00 00 00 00	 call	 __RTC_CheckEsp
  0006a	8b e5		 mov	 esp, ebp
  0006c	5d		 pop	 ebp
  0006d	c3		 ret	 0
_P_con	ENDP
_TEXT	ENDS
PUBLIC	??_C@_0BE@GHKBHBNP@Bad?5array?5dimension?$AA@	; `string'
PUBLIC	??_C@_0BK@JMNCJBO@Bad?5array?5subscript?5count?$AA@ ; `string'
PUBLIC	??_C@_0BH@PPFPMAMJ@Bad?5array?5element?5size?$AA@ ; `string'
;	COMDAT ??_C@_0BE@GHKBHBNP@Bad?5array?5dimension?$AA@
CONST	SEGMENT
??_C@_0BE@GHKBHBNP@Bad?5array?5dimension?$AA@ DB 'Bad array dimension', 00H ; `string'
CONST	ENDS
;	COMDAT ??_C@_0BK@JMNCJBO@Bad?5array?5subscript?5count?$AA@
CONST	SEGMENT
??_C@_0BK@JMNCJBO@Bad?5array?5subscript?5count?$AA@ DB 'Bad array subscri'
	DB	'pt count', 00H				; `string'
CONST	ENDS
;	COMDAT ??_C@_0BH@PPFPMAMJ@Bad?5array?5element?5size?$AA@
CONST	SEGMENT
??_C@_0BH@PPFPMAMJ@Bad?5array?5element?5size?$AA@ DB 'Bad array element s'
	DB	'ize', 00H					; `string'
; Function compile flags: /Odtp /RTCsu /ZI
CONST	ENDS
;	COMDAT _P_array
_TEXT	SEGMENT
tv168 = -244						; size = 4
tv155 = -244						; size = 4
tv149 = -244						; size = 4
tv141 = -244						; size = 4
_isp$ = -44						; size = 4
_asize$ = -32						; size = 4
_nsubs$ = -20						; size = 4
_i$ = -8						; size = 4
_P_array PROC						; COMDAT

; 996  : {				      /* sub1 sub2 ... subn n esize -- array */

  00000	55		 push	 ebp
  00001	8b ec		 mov	 ebp, esp
  00003	81 ec f4 00 00
	00		 sub	 esp, 244		; 000000f4H
  00009	53		 push	 ebx
  0000a	56		 push	 esi
  0000b	57		 push	 edi
  0000c	8d bd 0c ff ff
	ff		 lea	 edi, DWORD PTR [ebp-244]
  00012	b9 3d 00 00 00	 mov	 ecx, 61			; 0000003dH
  00017	b8 cc cc cc cc	 mov	 eax, -858993460		; ccccccccH
  0001c	f3 ab		 rep stosd

; 997  :     int i, nsubs, asize = 1;

  0001e	c7 45 e0 01 00
	00 00		 mov	 DWORD PTR _asize$[ebp], 1

; 998  :     stackitem *isp;
; 999  : 
; 1000 :     Sl(2);

  00025	a1 00 00 00 00	 mov	 eax, DWORD PTR _stk
  0002a	2b 05 00 00 00
	00		 sub	 eax, DWORD PTR _stack
  00030	c1 f8 03	 sar	 eax, 3
  00033	83 f8 02	 cmp	 eax, 2
  00036	7d 0a		 jge	 SHORT $LN14@P_array
  00038	e8 00 00 00 00	 call	 _stakunder
  0003d	e9 50 02 00 00	 jmp	 $LN15@P_array
$LN14@P_array:

; 1001 : #ifndef NOMEMCHECK
; 1002 :     if (S0 <= 0)

  00042	a1 00 00 00 00	 mov	 eax, DWORD PTR _stk
  00047	89 85 0c ff ff
	ff		 mov	 DWORD PTR tv149[ebp], eax
  0004d	8b 8d 0c ff ff
	ff		 mov	 ecx, DWORD PTR tv149[ebp]
  00053	83 79 fc 00	 cmp	 DWORD PTR [ecx-4], 0
  00057	7f 1b		 jg	 SHORT $LN13@P_array
  00059	7c 0c		 jl	 SHORT $LN19@P_array
  0005b	8b 95 0c ff ff
	ff		 mov	 edx, DWORD PTR tv149[ebp]
  00061	83 7a f8 00	 cmp	 DWORD PTR [edx-8], 0
  00065	77 0d		 ja	 SHORT $LN13@P_array
$LN19@P_array:

; 1003 :         trouble("Bad array element size");

  00067	68 00 00 00 00	 push	 OFFSET ??_C@_0BH@PPFPMAMJ@Bad?5array?5element?5size?$AA@
  0006c	e8 00 00 00 00	 call	 _trouble
  00071	83 c4 04	 add	 esp, 4
$LN13@P_array:

; 1004 :     if (S1 <= 0)

  00074	a1 00 00 00 00	 mov	 eax, DWORD PTR _stk
  00079	89 85 0c ff ff
	ff		 mov	 DWORD PTR tv155[ebp], eax
  0007f	8b 8d 0c ff ff
	ff		 mov	 ecx, DWORD PTR tv155[ebp]
  00085	83 79 f4 00	 cmp	 DWORD PTR [ecx-12], 0
  00089	7f 1b		 jg	 SHORT $LN12@P_array
  0008b	7c 0c		 jl	 SHORT $LN20@P_array
  0008d	8b 95 0c ff ff
	ff		 mov	 edx, DWORD PTR tv155[ebp]
  00093	83 7a f0 00	 cmp	 DWORD PTR [edx-16], 0
  00097	77 0d		 ja	 SHORT $LN12@P_array
$LN20@P_array:

; 1005 :         trouble("Bad array subscript count");

  00099	68 00 00 00 00	 push	 OFFSET ??_C@_0BK@JMNCJBO@Bad?5array?5subscript?5count?$AA@
  0009e	e8 00 00 00 00	 call	 _trouble
  000a3	83 c4 04	 add	 esp, 4
$LN12@P_array:

; 1006 : #endif /* NOMEMCHECK */
; 1007 : 
; 1008 :     nsubs = S1; 		      /* Number of subscripts */

  000a6	a1 00 00 00 00	 mov	 eax, DWORD PTR _stk
  000ab	8b 48 f0	 mov	 ecx, DWORD PTR [eax-16]
  000ae	89 4d ec	 mov	 DWORD PTR _nsubs$[ebp], ecx

; 1009 :     Sl(nsubs + 2);		      /* Verify that dimensions are present */

  000b1	a1 00 00 00 00	 mov	 eax, DWORD PTR _stk
  000b6	2b 05 00 00 00
	00		 sub	 eax, DWORD PTR _stack
  000bc	c1 f8 03	 sar	 eax, 3
  000bf	8b 4d ec	 mov	 ecx, DWORD PTR _nsubs$[ebp]
  000c2	83 c1 02	 add	 ecx, 2
  000c5	3b c1		 cmp	 eax, ecx
  000c7	7d 0a		 jge	 SHORT $LN11@P_array
  000c9	e8 00 00 00 00	 call	 _stakunder
  000ce	e9 bf 01 00 00	 jmp	 $LN15@P_array
$LN11@P_array:

; 1010 : 
; 1011 :     /* Calculate size of array as the product of the subscripts */
; 1012 : 
; 1013 :     asize = S0; 		      /* Fundamental element size */

  000d3	a1 00 00 00 00	 mov	 eax, DWORD PTR _stk
  000d8	8b 48 f8	 mov	 ecx, DWORD PTR [eax-8]
  000db	89 4d e0	 mov	 DWORD PTR _asize$[ebp], ecx

; 1014 :     isp = &S2;

  000de	a1 00 00 00 00	 mov	 eax, DWORD PTR _stk
  000e3	83 e8 18	 sub	 eax, 24			; 00000018H
  000e6	89 45 d4	 mov	 DWORD PTR _isp$[ebp], eax

; 1015 :     for (i = 0; i < nsubs; i++) {

  000e9	c7 45 f8 00 00
	00 00		 mov	 DWORD PTR _i$[ebp], 0
  000f0	eb 09		 jmp	 SHORT $LN10@P_array
$LN9@P_array:
  000f2	8b 45 f8	 mov	 eax, DWORD PTR _i$[ebp]
  000f5	83 c0 01	 add	 eax, 1
  000f8	89 45 f8	 mov	 DWORD PTR _i$[ebp], eax
$LN10@P_array:
  000fb	8b 45 f8	 mov	 eax, DWORD PTR _i$[ebp]
  000fe	3b 45 ec	 cmp	 eax, DWORD PTR _nsubs$[ebp]
  00101	7d 52		 jge	 SHORT $LN8@P_array

; 1016 : #ifndef NOMEMCHECK
; 1017 : 	if (*isp <= 0)

  00103	8b 45 d4	 mov	 eax, DWORD PTR _isp$[ebp]
  00106	89 85 0c ff ff
	ff		 mov	 DWORD PTR tv168[ebp], eax
  0010c	8b 8d 0c ff ff
	ff		 mov	 ecx, DWORD PTR tv168[ebp]
  00112	83 79 04 00	 cmp	 DWORD PTR [ecx+4], 0
  00116	7f 1a		 jg	 SHORT $LN7@P_array
  00118	7c 0b		 jl	 SHORT $LN21@P_array
  0011a	8b 95 0c ff ff
	ff		 mov	 edx, DWORD PTR tv168[ebp]
  00120	83 3a 00	 cmp	 DWORD PTR [edx], 0
  00123	77 0d		 ja	 SHORT $LN7@P_array
$LN21@P_array:

; 1018 :             trouble("Bad array dimension");

  00125	68 00 00 00 00	 push	 OFFSET ??_C@_0BE@GHKBHBNP@Bad?5array?5dimension?$AA@
  0012a	e8 00 00 00 00	 call	 _trouble
  0012f	83 c4 04	 add	 esp, 4
$LN7@P_array:

; 1019 : #endif /* NOMEMCHECK */
; 1020 : 	asize *= *isp--;

  00132	8b 45 e0	 mov	 eax, DWORD PTR _asize$[ebp]
  00135	99		 cdq
  00136	8b 4d d4	 mov	 ecx, DWORD PTR _isp$[ebp]
  00139	8b 71 04	 mov	 esi, DWORD PTR [ecx+4]
  0013c	56		 push	 esi
  0013d	8b 09		 mov	 ecx, DWORD PTR [ecx]
  0013f	51		 push	 ecx
  00140	52		 push	 edx
  00141	50		 push	 eax
  00142	e8 00 00 00 00	 call	 __allmul
  00147	89 45 e0	 mov	 DWORD PTR _asize$[ebp], eax
  0014a	8b 55 d4	 mov	 edx, DWORD PTR _isp$[ebp]
  0014d	83 ea 08	 sub	 edx, 8
  00150	89 55 d4	 mov	 DWORD PTR _isp$[ebp], edx

; 1021 :     }

  00153	eb 9d		 jmp	 SHORT $LN9@P_array
$LN8@P_array:

; 1022 : 
; 1023 :     asize = (asize + (sizeof(stackitem) - 1)) / sizeof(stackitem);

  00155	8b 45 e0	 mov	 eax, DWORD PTR _asize$[ebp]
  00158	83 c0 07	 add	 eax, 7
  0015b	c1 e8 03	 shr	 eax, 3
  0015e	89 45 e0	 mov	 DWORD PTR _asize$[ebp], eax

; 1024 :     Ho(asize + nsubs + 2);	      /* Reserve space for array and header */

  00161	8b 45 e0	 mov	 eax, DWORD PTR _asize$[ebp]
  00164	03 45 ec	 add	 eax, DWORD PTR _nsubs$[ebp]
  00167	8b 0d 00 00 00
	00		 mov	 ecx, DWORD PTR _hptr
  0016d	8d 54 c1 10	 lea	 edx, DWORD PTR [ecx+eax*8+16]
  00171	3b 15 00 00 00
	00		 cmp	 edx, DWORD PTR _heaptop
  00177	76 0a		 jbe	 SHORT $LN6@P_array
  00179	e8 00 00 00 00	 call	 _heapover
  0017e	e9 0f 01 00 00	 jmp	 $LN15@P_array
$LN6@P_array:

; 1025 :     P_create(); 		      /* Create variable */

  00183	e8 00 00 00 00	 call	 _P_create

; 1026 :     createword->wcode = P_arraysub;   /* Set method to subscript calculate */

  00188	a1 00 00 00 00	 mov	 eax, DWORD PTR _createword
  0018d	c7 40 08 00 00
	00 00		 mov	 DWORD PTR [eax+8], OFFSET _P_arraysub

; 1027 :     Hstore = nsubs;		      /* Header <- Number of subscripts */

  00194	8b 45 ec	 mov	 eax, DWORD PTR _nsubs$[ebp]
  00197	99		 cdq
  00198	8b 0d 00 00 00
	00		 mov	 ecx, DWORD PTR _hptr
  0019e	89 01		 mov	 DWORD PTR [ecx], eax
  001a0	89 51 04	 mov	 DWORD PTR [ecx+4], edx
  001a3	8b 15 00 00 00
	00		 mov	 edx, DWORD PTR _hptr
  001a9	83 c2 08	 add	 edx, 8
  001ac	89 15 00 00 00
	00		 mov	 DWORD PTR _hptr, edx

; 1028 :     Hstore = S0;		      /* Header <- Fundamental element size */

  001b2	a1 00 00 00 00	 mov	 eax, DWORD PTR _hptr
  001b7	8b 0d 00 00 00
	00		 mov	 ecx, DWORD PTR _stk
  001bd	8b 51 f8	 mov	 edx, DWORD PTR [ecx-8]
  001c0	89 10		 mov	 DWORD PTR [eax], edx
  001c2	8b 49 fc	 mov	 ecx, DWORD PTR [ecx-4]
  001c5	89 48 04	 mov	 DWORD PTR [eax+4], ecx
  001c8	8b 15 00 00 00
	00		 mov	 edx, DWORD PTR _hptr
  001ce	83 c2 08	 add	 edx, 8
  001d1	89 15 00 00 00
	00		 mov	 DWORD PTR _hptr, edx

; 1029 :     isp = &S2;

  001d7	a1 00 00 00 00	 mov	 eax, DWORD PTR _stk
  001dc	83 e8 18	 sub	 eax, 24			; 00000018H
  001df	89 45 d4	 mov	 DWORD PTR _isp$[ebp], eax

; 1030 :     for (i = 0; i < nsubs; i++) {     /* Header <- Store subscripts */

  001e2	c7 45 f8 00 00
	00 00		 mov	 DWORD PTR _i$[ebp], 0
  001e9	eb 09		 jmp	 SHORT $LN5@P_array
$LN4@P_array:
  001eb	8b 45 f8	 mov	 eax, DWORD PTR _i$[ebp]
  001ee	83 c0 01	 add	 eax, 1
  001f1	89 45 f8	 mov	 DWORD PTR _i$[ebp], eax
$LN5@P_array:
  001f4	8b 45 f8	 mov	 eax, DWORD PTR _i$[ebp]
  001f7	3b 45 ec	 cmp	 eax, DWORD PTR _nsubs$[ebp]
  001fa	7d 2c		 jge	 SHORT $LN2@P_array

; 1031 : 	Hstore = *isp--;

  001fc	a1 00 00 00 00	 mov	 eax, DWORD PTR _hptr
  00201	8b 4d d4	 mov	 ecx, DWORD PTR _isp$[ebp]
  00204	8b 11		 mov	 edx, DWORD PTR [ecx]
  00206	89 10		 mov	 DWORD PTR [eax], edx
  00208	8b 49 04	 mov	 ecx, DWORD PTR [ecx+4]
  0020b	89 48 04	 mov	 DWORD PTR [eax+4], ecx
  0020e	8b 15 00 00 00
	00		 mov	 edx, DWORD PTR _hptr
  00214	83 c2 08	 add	 edx, 8
  00217	89 15 00 00 00
	00		 mov	 DWORD PTR _hptr, edx
  0021d	8b 45 d4	 mov	 eax, DWORD PTR _isp$[ebp]
  00220	83 e8 08	 sub	 eax, 8
  00223	89 45 d4	 mov	 DWORD PTR _isp$[ebp], eax

; 1032 :     }

  00226	eb c3		 jmp	 SHORT $LN4@P_array
$LN2@P_array:

; 1033 :     while (asize-- > 0) 	      /* Clear the array to zero */

  00228	8b 45 e0	 mov	 eax, DWORD PTR _asize$[ebp]
  0022b	8b 4d e0	 mov	 ecx, DWORD PTR _asize$[ebp]
  0022e	83 e9 01	 sub	 ecx, 1
  00231	89 4d e0	 mov	 DWORD PTR _asize$[ebp], ecx
  00234	85 c0		 test	 eax, eax
  00236	7e 0c		 jle	 SHORT $LN17@P_array
  00238	c7 85 0c ff ff
	ff 01 00 00 00	 mov	 DWORD PTR tv141[ebp], 1
  00242	eb 0a		 jmp	 SHORT $LN18@P_array
$LN17@P_array:
  00244	c7 85 0c ff ff
	ff 00 00 00 00	 mov	 DWORD PTR tv141[ebp], 0
$LN18@P_array:
  0024e	83 bd 0c ff ff
	ff 00		 cmp	 DWORD PTR tv141[ebp], 0
  00255	74 23		 je	 SHORT $LN1@P_array

; 1034 : 	Hstore = 0;

  00257	a1 00 00 00 00	 mov	 eax, DWORD PTR _hptr
  0025c	c7 00 00 00 00
	00		 mov	 DWORD PTR [eax], 0
  00262	c7 40 04 00 00
	00 00		 mov	 DWORD PTR [eax+4], 0
  00269	8b 0d 00 00 00
	00		 mov	 ecx, DWORD PTR _hptr
  0026f	83 c1 08	 add	 ecx, 8
  00272	89 0d 00 00 00
	00		 mov	 DWORD PTR _hptr, ecx
  00278	eb ae		 jmp	 SHORT $LN2@P_array
$LN1@P_array:

; 1035 :     Npop(nsubs + 2);

  0027a	8b 45 ec	 mov	 eax, DWORD PTR _nsubs$[ebp]
  0027d	8d 0c c5 10 00
	00 00		 lea	 ecx, DWORD PTR [eax*8+16]
  00284	8b 15 00 00 00
	00		 mov	 edx, DWORD PTR _stk
  0028a	2b d1		 sub	 edx, ecx
  0028c	89 15 00 00 00
	00		 mov	 DWORD PTR _stk, edx
$LN15@P_array:

; 1036 : }

  00292	5f		 pop	 edi
  00293	5e		 pop	 esi
  00294	5b		 pop	 ebx
  00295	81 c4 f4 00 00
	00		 add	 esp, 244		; 000000f4H
  0029b	3b ec		 cmp	 ebp, esp
  0029d	e8 00 00 00 00	 call	 __RTC_CheckEsp
  002a2	8b e5		 mov	 esp, ebp
  002a4	5d		 pop	 ebp
  002a5	c3		 ret	 0
_P_array ENDP
_TEXT	ENDS
PUBLIC	??_C@_0BH@JCEAHPOB@Subscript?5out?5of?5range?$AA@ ; `string'
;	COMDAT ??_C@_0BH@JCEAHPOB@Subscript?5out?5of?5range?$AA@
CONST	SEGMENT
??_C@_0BH@JCEAHPOB@Subscript?5out?5of?5range?$AA@ DB 'Subscript out of ra'
	DB	'nge', 00H					; `string'
; Function compile flags: /Odtp /RTCsu /ZI
CONST	ENDS
;	COMDAT _P_arraysub
_TEXT	SEGMENT
tv157 = -288						; size = 4
tv156 = -284						; size = 4
_subn$83279 = -84					; size = 8
_isp$ = -68						; size = 4
_array$ = -56						; size = 4
_nsubs$ = -44						; size = 4
_esize$ = -32						; size = 4
_offset$ = -20						; size = 4
_i$ = -8						; size = 4
_P_arraysub PROC					; COMDAT

; 962  : {				      /* sub1 sub2 ... subn -- addr */

  00000	55		 push	 ebp
  00001	8b ec		 mov	 ebp, esp
  00003	81 ec 20 01 00
	00		 sub	 esp, 288		; 00000120H
  00009	53		 push	 ebx
  0000a	56		 push	 esi
  0000b	57		 push	 edi
  0000c	8d bd e0 fe ff
	ff		 lea	 edi, DWORD PTR [ebp-288]
  00012	b9 48 00 00 00	 mov	 ecx, 72			; 00000048H
  00017	b8 cc cc cc cc	 mov	 eax, -858993460		; ccccccccH
  0001c	f3 ab		 rep stosd

; 963  :     int i, offset, esize, nsubs;
; 964  :     stackitem *array;
; 965  :     stackitem *isp;
; 966  : 
; 967  :     Sl(1);

  0001e	a1 00 00 00 00	 mov	 eax, DWORD PTR _stk
  00023	2b 05 00 00 00
	00		 sub	 eax, DWORD PTR _stack
  00029	c1 f8 03	 sar	 eax, 3
  0002c	83 f8 01	 cmp	 eax, 1
  0002f	7d 0a		 jge	 SHORT $LN11@P_arraysub
  00031	e8 00 00 00 00	 call	 _stakunder
  00036	e9 82 01 00 00	 jmp	 $LN12@P_arraysub
$LN11@P_arraysub:

; 968  :     array = (((stackitem *) curword) + Dictwordl);

  0003b	a1 00 00 00 00	 mov	 eax, DWORD PTR _curword
  00040	83 c0 10	 add	 eax, 16			; 00000010H
  00043	89 45 c8	 mov	 DWORD PTR _array$[ebp], eax

; 969  :     Hpc(array);

  00046	8b 45 c8	 mov	 eax, DWORD PTR _array$[ebp]
  00049	3b 05 00 00 00
	00		 cmp	 eax, DWORD PTR _heapbot
  0004f	72 0b		 jb	 SHORT $LN9@P_arraysub
  00051	8b 45 c8	 mov	 eax, DWORD PTR _array$[ebp]
  00054	3b 05 00 00 00
	00		 cmp	 eax, DWORD PTR _heaptop
  0005a	72 0a		 jb	 SHORT $LN10@P_arraysub
$LN9@P_arraysub:
  0005c	e8 00 00 00 00	 call	 _badpointer
  00061	e9 57 01 00 00	 jmp	 $LN12@P_arraysub
$LN10@P_arraysub:

; 970  :     nsubs = *array++;		      /* Load number of subscripts */

  00066	8b 45 c8	 mov	 eax, DWORD PTR _array$[ebp]
  00069	8b 08		 mov	 ecx, DWORD PTR [eax]
  0006b	89 4d d4	 mov	 DWORD PTR _nsubs$[ebp], ecx
  0006e	8b 55 c8	 mov	 edx, DWORD PTR _array$[ebp]
  00071	83 c2 08	 add	 edx, 8
  00074	89 55 c8	 mov	 DWORD PTR _array$[ebp], edx

; 971  :     esize = *array++;		      /* Load element size */

  00077	8b 45 c8	 mov	 eax, DWORD PTR _array$[ebp]
  0007a	8b 08		 mov	 ecx, DWORD PTR [eax]
  0007c	89 4d e0	 mov	 DWORD PTR _esize$[ebp], ecx
  0007f	8b 55 c8	 mov	 edx, DWORD PTR _array$[ebp]
  00082	83 c2 08	 add	 edx, 8
  00085	89 55 c8	 mov	 DWORD PTR _array$[ebp], edx

; 972  : #ifndef NOMEMCHECK
; 973  :     isp = &S0;

  00088	a1 00 00 00 00	 mov	 eax, DWORD PTR _stk
  0008d	83 e8 08	 sub	 eax, 8
  00090	89 45 bc	 mov	 DWORD PTR _isp$[ebp], eax

; 974  :     for (i = 0; i < nsubs; i++) {

  00093	c7 45 f8 00 00
	00 00		 mov	 DWORD PTR _i$[ebp], 0
  0009a	eb 09		 jmp	 SHORT $LN8@P_arraysub
$LN7@P_arraysub:
  0009c	8b 45 f8	 mov	 eax, DWORD PTR _i$[ebp]
  0009f	83 c0 01	 add	 eax, 1
  000a2	89 45 f8	 mov	 DWORD PTR _i$[ebp], eax
$LN8@P_arraysub:
  000a5	8b 45 f8	 mov	 eax, DWORD PTR _i$[ebp]
  000a8	3b 45 d4	 cmp	 eax, DWORD PTR _nsubs$[ebp]
  000ab	7d 74		 jge	 SHORT $LN6@P_arraysub

; 975  : 	stackitem subn = *isp--;

  000ad	8b 45 bc	 mov	 eax, DWORD PTR _isp$[ebp]
  000b0	8b 08		 mov	 ecx, DWORD PTR [eax]
  000b2	89 4d ac	 mov	 DWORD PTR _subn$83279[ebp], ecx
  000b5	8b 50 04	 mov	 edx, DWORD PTR [eax+4]
  000b8	89 55 b0	 mov	 DWORD PTR _subn$83279[ebp+4], edx
  000bb	8b 45 bc	 mov	 eax, DWORD PTR _isp$[ebp]
  000be	83 e8 08	 sub	 eax, 8
  000c1	89 45 bc	 mov	 DWORD PTR _isp$[ebp], eax

; 976  : 
; 977  : 	if (subn < 0 || subn >= array[i])

  000c4	83 7d b0 00	 cmp	 DWORD PTR _subn$83279[ebp+4], 0
  000c8	7c 45		 jl	 SHORT $LN4@P_arraysub
  000ca	7f 06		 jg	 SHORT $LN14@P_arraysub
  000cc	83 7d ac 00	 cmp	 DWORD PTR _subn$83279[ebp], 0
  000d0	72 3d		 jb	 SHORT $LN4@P_arraysub
$LN14@P_arraysub:
  000d2	8b 45 f8	 mov	 eax, DWORD PTR _i$[ebp]
  000d5	8b 4d c8	 mov	 ecx, DWORD PTR _array$[ebp]
  000d8	89 8d e4 fe ff
	ff		 mov	 DWORD PTR tv156[ebp], ecx
  000de	89 85 e0 fe ff
	ff		 mov	 DWORD PTR tv157[ebp], eax
  000e4	8b 95 e0 fe ff
	ff		 mov	 edx, DWORD PTR tv157[ebp]
  000ea	8b 85 e4 fe ff
	ff		 mov	 eax, DWORD PTR tv156[ebp]
  000f0	8b 4d b0	 mov	 ecx, DWORD PTR _subn$83279[ebp+4]
  000f3	3b 4c d0 04	 cmp	 ecx, DWORD PTR [eax+edx*8+4]
  000f7	7c 23		 jl	 SHORT $LN5@P_arraysub
  000f9	7f 14		 jg	 SHORT $LN4@P_arraysub
  000fb	8b 95 e0 fe ff
	ff		 mov	 edx, DWORD PTR tv157[ebp]
  00101	8b 85 e4 fe ff
	ff		 mov	 eax, DWORD PTR tv156[ebp]
  00107	8b 4d ac	 mov	 ecx, DWORD PTR _subn$83279[ebp]
  0010a	3b 0c d0	 cmp	 ecx, DWORD PTR [eax+edx*8]
  0010d	72 0d		 jb	 SHORT $LN5@P_arraysub
$LN4@P_arraysub:

; 978  :             trouble("Subscript out of range");

  0010f	68 00 00 00 00	 push	 OFFSET ??_C@_0BH@JCEAHPOB@Subscript?5out?5of?5range?$AA@
  00114	e8 00 00 00 00	 call	 _trouble
  00119	83 c4 04	 add	 esp, 4
$LN5@P_arraysub:

; 979  :     }

  0011c	e9 7b ff ff ff	 jmp	 $LN7@P_arraysub
$LN6@P_arraysub:

; 980  : #endif /* NOMEMCHECK */
; 981  :     isp = &S0;

  00121	a1 00 00 00 00	 mov	 eax, DWORD PTR _stk
  00126	83 e8 08	 sub	 eax, 8
  00129	89 45 bc	 mov	 DWORD PTR _isp$[ebp], eax

; 982  :     offset = *isp;		      /* Load initial offset */

  0012c	8b 45 bc	 mov	 eax, DWORD PTR _isp$[ebp]
  0012f	8b 08		 mov	 ecx, DWORD PTR [eax]
  00131	89 4d ec	 mov	 DWORD PTR _offset$[ebp], ecx

; 983  :     for (i = 1; i < nsubs; i++)

  00134	c7 45 f8 01 00
	00 00		 mov	 DWORD PTR _i$[ebp], 1
  0013b	eb 09		 jmp	 SHORT $LN3@P_arraysub
$LN2@P_arraysub:
  0013d	8b 45 f8	 mov	 eax, DWORD PTR _i$[ebp]
  00140	83 c0 01	 add	 eax, 1
  00143	89 45 f8	 mov	 DWORD PTR _i$[ebp], eax
$LN3@P_arraysub:
  00146	8b 45 f8	 mov	 eax, DWORD PTR _i$[ebp]
  00149	3b 45 d4	 cmp	 eax, DWORD PTR _nsubs$[ebp]
  0014c	7d 34		 jge	 SHORT $LN1@P_arraysub

; 984  : 	offset = (offset * (*(++array))) + *(--isp);

  0014e	8b 45 c8	 mov	 eax, DWORD PTR _array$[ebp]
  00151	83 c0 08	 add	 eax, 8
  00154	89 45 c8	 mov	 DWORD PTR _array$[ebp], eax
  00157	8b 4d bc	 mov	 ecx, DWORD PTR _isp$[ebp]
  0015a	83 e9 08	 sub	 ecx, 8
  0015d	89 4d bc	 mov	 DWORD PTR _isp$[ebp], ecx
  00160	8b 45 ec	 mov	 eax, DWORD PTR _offset$[ebp]
  00163	99		 cdq
  00164	8b 4d c8	 mov	 ecx, DWORD PTR _array$[ebp]
  00167	8b 71 04	 mov	 esi, DWORD PTR [ecx+4]
  0016a	56		 push	 esi
  0016b	8b 09		 mov	 ecx, DWORD PTR [ecx]
  0016d	51		 push	 ecx
  0016e	52		 push	 edx
  0016f	50		 push	 eax
  00170	e8 00 00 00 00	 call	 __allmul
  00175	8b 4d bc	 mov	 ecx, DWORD PTR _isp$[ebp]
  00178	03 01		 add	 eax, DWORD PTR [ecx]
  0017a	13 51 04	 adc	 edx, DWORD PTR [ecx+4]
  0017d	89 45 ec	 mov	 DWORD PTR _offset$[ebp], eax
  00180	eb bb		 jmp	 SHORT $LN2@P_arraysub
$LN1@P_arraysub:

; 985  :     Npop(nsubs - 1);

  00182	8b 45 d4	 mov	 eax, DWORD PTR _nsubs$[ebp]
  00185	8d 0c c5 f8 ff
	ff ff		 lea	 ecx, DWORD PTR [eax*8-8]
  0018c	8b 15 00 00 00
	00		 mov	 edx, DWORD PTR _stk
  00192	2b d1		 sub	 edx, ecx
  00194	89 15 00 00 00
	00		 mov	 DWORD PTR _stk, edx

; 986  :     /* Calculate subscripted address.  We start at the current word,
; 987  :        advance to the body, skip two more words for the subscript count
; 988  :        and the fundamental element size, then skip the subscript bounds
; 989  :        words (as many as there are subscripts).  Then, finally, we
; 990  :        can add the calculated offset into the array. */
; 991  :     S0 = (stackitem) (((char *) (((stackitem *) curword) +
; 992  : 	    Dictwordl + 2 + nsubs)) + (esize * offset));

  0019a	8b 45 d4	 mov	 eax, DWORD PTR _nsubs$[ebp]
  0019d	8b 0d 00 00 00
	00		 mov	 ecx, DWORD PTR _curword
  001a3	8d 44 c1 20	 lea	 eax, DWORD PTR [ecx+eax*8+32]
  001a7	8b 55 e0	 mov	 edx, DWORD PTR _esize$[ebp]
  001aa	0f af 55 ec	 imul	 edx, DWORD PTR _offset$[ebp]
  001ae	03 c2		 add	 eax, edx
  001b0	99		 cdq
  001b1	8b 0d 00 00 00
	00		 mov	 ecx, DWORD PTR _stk
  001b7	89 41 f8	 mov	 DWORD PTR [ecx-8], eax
  001ba	89 51 fc	 mov	 DWORD PTR [ecx-4], edx
$LN12@P_arraysub:

; 993  : }

  001bd	5f		 pop	 edi
  001be	5e		 pop	 esi
  001bf	5b		 pop	 ebx
  001c0	81 c4 20 01 00
	00		 add	 esp, 288		; 00000120H
  001c6	3b ec		 cmp	 ebp, esp
  001c8	e8 00 00 00 00	 call	 __RTC_CheckEsp
  001cd	8b e5		 mov	 esp, ebp
  001cf	5d		 pop	 ebp
  001d0	c3		 ret	 0
_P_arraysub ENDP
_TEXT	ENDS
PUBLIC	??_C@_05NKLPODEL@?$CC?$CFs?$CC?5?$AA@		; `string'
EXTRN	__imp__printf:PROC
;	COMDAT ??_C@_05NKLPODEL@?$CC?$CFs?$CC?5?$AA@
CONST	SEGMENT
??_C@_05NKLPODEL@?$CC?$CFs?$CC?5?$AA@ DB '"%s" ', 00H	; `string'
; Function compile flags: /Odtp /RTCsu /ZI
CONST	ENDS
;	COMDAT _P_strlit
_TEXT	SEGMENT
_P_strlit PROC						; COMDAT

; 1044 : {

  00000	55		 push	 ebp
  00001	8b ec		 mov	 ebp, esp
  00003	81 ec c0 00 00
	00		 sub	 esp, 192		; 000000c0H
  00009	53		 push	 ebx
  0000a	56		 push	 esi
  0000b	57		 push	 edi
  0000c	8d bd 40 ff ff
	ff		 lea	 edi, DWORD PTR [ebp-192]
  00012	b9 30 00 00 00	 mov	 ecx, 48			; 00000030H
  00017	b8 cc cc cc cc	 mov	 eax, -858993460		; ccccccccH
  0001c	f3 ab		 rep stosd

; 1045 :     So(1);

  0001e	a1 00 00 00 00	 mov	 eax, DWORD PTR _stk
  00023	83 c0 08	 add	 eax, 8
  00026	3b 05 00 00 00
	00		 cmp	 eax, DWORD PTR _stacktop
  0002c	76 07		 jbe	 SHORT $LN2@P_strlit
  0002e	e8 00 00 00 00	 call	 _stakover
  00033	eb 66		 jmp	 SHORT $LN3@P_strlit
$LN2@P_strlit:

; 1046 :     Push = (stackitem) (((char *) ip) + 1);

  00035	a1 00 00 00 00	 mov	 eax, DWORD PTR _ip
  0003a	83 c0 01	 add	 eax, 1
  0003d	99		 cdq
  0003e	8b 0d 00 00 00
	00		 mov	 ecx, DWORD PTR _stk
  00044	89 01		 mov	 DWORD PTR [ecx], eax
  00046	89 51 04	 mov	 DWORD PTR [ecx+4], edx
  00049	8b 15 00 00 00
	00		 mov	 edx, DWORD PTR _stk
  0004f	83 c2 08	 add	 edx, 8
  00052	89 15 00 00 00
	00		 mov	 DWORD PTR _stk, edx

; 1047 : #ifdef TRACE
; 1048 :     if (atl_trace) {

  00058	a1 00 00 00 00	 mov	 eax, DWORD PTR _atl_trace
  0005d	0b 05 04 00 00
	00		 or	 eax, DWORD PTR _atl_trace+4
  00063	74 20		 je	 SHORT $LN1@P_strlit

; 1049 :         V printf("\"%s\" ", (((char *) ip) + 1));

  00065	a1 00 00 00 00	 mov	 eax, DWORD PTR _ip
  0006a	83 c0 01	 add	 eax, 1
  0006d	8b f4		 mov	 esi, esp
  0006f	50		 push	 eax
  00070	68 00 00 00 00	 push	 OFFSET ??_C@_05NKLPODEL@?$CC?$CFs?$CC?5?$AA@
  00075	ff 15 00 00 00
	00		 call	 DWORD PTR __imp__printf
  0007b	83 c4 08	 add	 esp, 8
  0007e	3b f4		 cmp	 esi, esp
  00080	e8 00 00 00 00	 call	 __RTC_CheckEsp
$LN1@P_strlit:

; 1050 :     }
; 1051 : #endif /* TRACE */
; 1052 :     Skipstring; 		      /* Advance IP past it */

  00085	a1 00 00 00 00	 mov	 eax, DWORD PTR _ip
  0008a	0f be 08	 movsx	 ecx, BYTE PTR [eax]
  0008d	8b 15 00 00 00
	00		 mov	 edx, DWORD PTR _ip
  00093	8d 04 8a	 lea	 eax, DWORD PTR [edx+ecx*4]
  00096	a3 00 00 00 00	 mov	 DWORD PTR _ip, eax
$LN3@P_strlit:

; 1053 : }

  0009b	5f		 pop	 edi
  0009c	5e		 pop	 esi
  0009d	5b		 pop	 ebx
  0009e	81 c4 c0 00 00
	00		 add	 esp, 192		; 000000c0H
  000a4	3b ec		 cmp	 ebp, esp
  000a6	e8 00 00 00 00	 call	 __RTC_CheckEsp
  000ab	8b e5		 mov	 esp, ebp
  000ad	5d		 pop	 ebp
  000ae	c3		 ret	 0
_P_strlit ENDP
; Function compile flags: /Odtp /RTCsu /ZI
_TEXT	ENDS
;	COMDAT _P_string
_TEXT	SEGMENT
_P_string PROC						; COMDAT

; 1056 : {

  00000	55		 push	 ebp
  00001	8b ec		 mov	 ebp, esp
  00003	81 ec c0 00 00
	00		 sub	 esp, 192		; 000000c0H
  00009	53		 push	 ebx
  0000a	56		 push	 esi
  0000b	57		 push	 edi
  0000c	8d bd 40 ff ff
	ff		 lea	 edi, DWORD PTR [ebp-192]
  00012	b9 30 00 00 00	 mov	 ecx, 48			; 00000030H
  00017	b8 cc cc cc cc	 mov	 eax, -858993460		; ccccccccH
  0001c	f3 ab		 rep stosd

; 1057 :     Sl(1);

  0001e	a1 00 00 00 00	 mov	 eax, DWORD PTR _stk
  00023	2b 05 00 00 00
	00		 sub	 eax, DWORD PTR _stack
  00029	c1 f8 03	 sar	 eax, 3
  0002c	83 f8 01	 cmp	 eax, 1
  0002f	7d 0a		 jge	 SHORT $LN2@P_string
  00031	e8 00 00 00 00	 call	 _stakunder
  00036	e9 80 00 00 00	 jmp	 $LN3@P_string
$LN2@P_string:

; 1058 :     Ho((S0 + 1 + sizeof(stackitem)) / sizeof(stackitem));

  0003b	a1 00 00 00 00	 mov	 eax, DWORD PTR _stk
  00040	8b 48 f8	 mov	 ecx, DWORD PTR [eax-8]
  00043	83 c1 09	 add	 ecx, 9
  00046	8b 50 fc	 mov	 edx, DWORD PTR [eax-4]
  00049	83 d2 00	 adc	 edx, 0
  0004c	6a 00		 push	 0
  0004e	6a 08		 push	 8
  00050	52		 push	 edx
  00051	51		 push	 ecx
  00052	e8 00 00 00 00	 call	 __alldiv
  00057	6a 00		 push	 0
  00059	6a 08		 push	 8
  0005b	52		 push	 edx
  0005c	50		 push	 eax
  0005d	e8 00 00 00 00	 call	 __allmul
  00062	03 05 00 00 00
	00		 add	 eax, DWORD PTR _hptr
  00068	3b 05 00 00 00
	00		 cmp	 eax, DWORD PTR _heaptop
  0006e	76 07		 jbe	 SHORT $LN1@P_string
  00070	e8 00 00 00 00	 call	 _heapover
  00075	eb 44		 jmp	 SHORT $LN3@P_string
$LN1@P_string:

; 1059 :     P_create(); 		      /* Create variable */

  00077	e8 00 00 00 00	 call	 _P_create

; 1060 :     /* Allocate storage for string */
; 1061 :     hptr += (S0 + 1 + sizeof(stackitem)) / sizeof(stackitem);

  0007c	a1 00 00 00 00	 mov	 eax, DWORD PTR _stk
  00081	8b 48 f8	 mov	 ecx, DWORD PTR [eax-8]
  00084	83 c1 09	 add	 ecx, 9
  00087	8b 50 fc	 mov	 edx, DWORD PTR [eax-4]
  0008a	83 d2 00	 adc	 edx, 0
  0008d	6a 00		 push	 0
  0008f	6a 08		 push	 8
  00091	52		 push	 edx
  00092	51		 push	 ecx
  00093	e8 00 00 00 00	 call	 __alldiv
  00098	6a 00		 push	 0
  0009a	6a 08		 push	 8
  0009c	52		 push	 edx
  0009d	50		 push	 eax
  0009e	e8 00 00 00 00	 call	 __allmul
  000a3	03 05 00 00 00
	00		 add	 eax, DWORD PTR _hptr
  000a9	a3 00 00 00 00	 mov	 DWORD PTR _hptr, eax

; 1062 :     Pop;

  000ae	a1 00 00 00 00	 mov	 eax, DWORD PTR _stk
  000b3	83 e8 08	 sub	 eax, 8
  000b6	a3 00 00 00 00	 mov	 DWORD PTR _stk, eax
$LN3@P_string:

; 1063 : }

  000bb	5f		 pop	 edi
  000bc	5e		 pop	 esi
  000bd	5b		 pop	 ebx
  000be	81 c4 c0 00 00
	00		 add	 esp, 192		; 000000c0H
  000c4	3b ec		 cmp	 ebp, esp
  000c6	e8 00 00 00 00	 call	 __RTC_CheckEsp
  000cb	8b e5		 mov	 esp, ebp
  000cd	5d		 pop	 ebp
  000ce	c3		 ret	 0
_P_string ENDP
_TEXT	ENDS
EXTRN	_strcpy:PROC
; Function compile flags: /Odtp /RTCsu /ZI
;	COMDAT _P_strcpy
_TEXT	SEGMENT
_P_strcpy PROC						; COMDAT

; 1066 : {

  00000	55		 push	 ebp
  00001	8b ec		 mov	 ebp, esp
  00003	81 ec c0 00 00
	00		 sub	 esp, 192		; 000000c0H
  00009	53		 push	 ebx
  0000a	56		 push	 esi
  0000b	57		 push	 edi
  0000c	8d bd 40 ff ff
	ff		 lea	 edi, DWORD PTR [ebp-192]
  00012	b9 30 00 00 00	 mov	 ecx, 48			; 00000030H
  00017	b8 cc cc cc cc	 mov	 eax, -858993460		; ccccccccH
  0001c	f3 ab		 rep stosd

; 1067 :     Sl(2);

  0001e	a1 00 00 00 00	 mov	 eax, DWORD PTR _stk
  00023	2b 05 00 00 00
	00		 sub	 eax, DWORD PTR _stack
  00029	c1 f8 03	 sar	 eax, 3
  0002c	83 f8 02	 cmp	 eax, 2
  0002f	7d 07		 jge	 SHORT $LN5@P_strcpy
  00031	e8 00 00 00 00	 call	 _stakunder
  00036	eb 76		 jmp	 SHORT $LN6@P_strcpy
$LN5@P_strcpy:

; 1068 :     Hpc(S0);

  00038	a1 00 00 00 00	 mov	 eax, DWORD PTR _stk
  0003d	8b 48 f8	 mov	 ecx, DWORD PTR [eax-8]
  00040	3b 0d 00 00 00
	00		 cmp	 ecx, DWORD PTR _heapbot
  00046	72 10		 jb	 SHORT $LN3@P_strcpy
  00048	a1 00 00 00 00	 mov	 eax, DWORD PTR _stk
  0004d	8b 48 f8	 mov	 ecx, DWORD PTR [eax-8]
  00050	3b 0d 00 00 00
	00		 cmp	 ecx, DWORD PTR _heaptop
  00056	72 07		 jb	 SHORT $LN4@P_strcpy
$LN3@P_strcpy:
  00058	e8 00 00 00 00	 call	 _badpointer
  0005d	eb 4f		 jmp	 SHORT $LN6@P_strcpy
$LN4@P_strcpy:

; 1069 :     Hpc(S1);

  0005f	a1 00 00 00 00	 mov	 eax, DWORD PTR _stk
  00064	8b 48 f0	 mov	 ecx, DWORD PTR [eax-16]
  00067	3b 0d 00 00 00
	00		 cmp	 ecx, DWORD PTR _heapbot
  0006d	72 10		 jb	 SHORT $LN1@P_strcpy
  0006f	a1 00 00 00 00	 mov	 eax, DWORD PTR _stk
  00074	8b 48 f0	 mov	 ecx, DWORD PTR [eax-16]
  00077	3b 0d 00 00 00
	00		 cmp	 ecx, DWORD PTR _heaptop
  0007d	72 07		 jb	 SHORT $LN2@P_strcpy
$LN1@P_strcpy:
  0007f	e8 00 00 00 00	 call	 _badpointer
  00084	eb 28		 jmp	 SHORT $LN6@P_strcpy
$LN2@P_strcpy:

; 1070 :     V strcpy((char *) S0, (char *) S1);

  00086	a1 00 00 00 00	 mov	 eax, DWORD PTR _stk
  0008b	8b 48 f0	 mov	 ecx, DWORD PTR [eax-16]
  0008e	51		 push	 ecx
  0008f	8b 15 00 00 00
	00		 mov	 edx, DWORD PTR _stk
  00095	8b 42 f8	 mov	 eax, DWORD PTR [edx-8]
  00098	50		 push	 eax
  00099	e8 00 00 00 00	 call	 _strcpy
  0009e	83 c4 08	 add	 esp, 8

; 1071 :     Pop2;

  000a1	a1 00 00 00 00	 mov	 eax, DWORD PTR _stk
  000a6	83 e8 10	 sub	 eax, 16			; 00000010H
  000a9	a3 00 00 00 00	 mov	 DWORD PTR _stk, eax
$LN6@P_strcpy:

; 1072 : }

  000ae	5f		 pop	 edi
  000af	5e		 pop	 esi
  000b0	5b		 pop	 ebx
  000b1	81 c4 c0 00 00
	00		 add	 esp, 192		; 000000c0H
  000b7	3b ec		 cmp	 ebp, esp
  000b9	e8 00 00 00 00	 call	 __RTC_CheckEsp
  000be	8b e5		 mov	 esp, ebp
  000c0	5d		 pop	 ebp
  000c1	c3		 ret	 0
_P_strcpy ENDP
_TEXT	ENDS
EXTRN	_strcat:PROC
; Function compile flags: /Odtp /RTCsu /ZI
;	COMDAT _P_strcat
_TEXT	SEGMENT
_P_strcat PROC						; COMDAT

; 1075 : {

  00000	55		 push	 ebp
  00001	8b ec		 mov	 ebp, esp
  00003	81 ec c0 00 00
	00		 sub	 esp, 192		; 000000c0H
  00009	53		 push	 ebx
  0000a	56		 push	 esi
  0000b	57		 push	 edi
  0000c	8d bd 40 ff ff
	ff		 lea	 edi, DWORD PTR [ebp-192]
  00012	b9 30 00 00 00	 mov	 ecx, 48			; 00000030H
  00017	b8 cc cc cc cc	 mov	 eax, -858993460		; ccccccccH
  0001c	f3 ab		 rep stosd

; 1076 :     Sl(2);

  0001e	a1 00 00 00 00	 mov	 eax, DWORD PTR _stk
  00023	2b 05 00 00 00
	00		 sub	 eax, DWORD PTR _stack
  00029	c1 f8 03	 sar	 eax, 3
  0002c	83 f8 02	 cmp	 eax, 2
  0002f	7d 07		 jge	 SHORT $LN5@P_strcat
  00031	e8 00 00 00 00	 call	 _stakunder
  00036	eb 76		 jmp	 SHORT $LN6@P_strcat
$LN5@P_strcat:

; 1077 :     Hpc(S0);

  00038	a1 00 00 00 00	 mov	 eax, DWORD PTR _stk
  0003d	8b 48 f8	 mov	 ecx, DWORD PTR [eax-8]
  00040	3b 0d 00 00 00
	00		 cmp	 ecx, DWORD PTR _heapbot
  00046	72 10		 jb	 SHORT $LN3@P_strcat
  00048	a1 00 00 00 00	 mov	 eax, DWORD PTR _stk
  0004d	8b 48 f8	 mov	 ecx, DWORD PTR [eax-8]
  00050	3b 0d 00 00 00
	00		 cmp	 ecx, DWORD PTR _heaptop
  00056	72 07		 jb	 SHORT $LN4@P_strcat
$LN3@P_strcat:
  00058	e8 00 00 00 00	 call	 _badpointer
  0005d	eb 4f		 jmp	 SHORT $LN6@P_strcat
$LN4@P_strcat:

; 1078 :     Hpc(S1);

  0005f	a1 00 00 00 00	 mov	 eax, DWORD PTR _stk
  00064	8b 48 f0	 mov	 ecx, DWORD PTR [eax-16]
  00067	3b 0d 00 00 00
	00		 cmp	 ecx, DWORD PTR _heapbot
  0006d	72 10		 jb	 SHORT $LN1@P_strcat
  0006f	a1 00 00 00 00	 mov	 eax, DWORD PTR _stk
  00074	8b 48 f0	 mov	 ecx, DWORD PTR [eax-16]
  00077	3b 0d 00 00 00
	00		 cmp	 ecx, DWORD PTR _heaptop
  0007d	72 07		 jb	 SHORT $LN2@P_strcat
$LN1@P_strcat:
  0007f	e8 00 00 00 00	 call	 _badpointer
  00084	eb 28		 jmp	 SHORT $LN6@P_strcat
$LN2@P_strcat:

; 1079 :     V strcat((char *) S0, (char *) S1);

  00086	a1 00 00 00 00	 mov	 eax, DWORD PTR _stk
  0008b	8b 48 f0	 mov	 ecx, DWORD PTR [eax-16]
  0008e	51		 push	 ecx
  0008f	8b 15 00 00 00
	00		 mov	 edx, DWORD PTR _stk
  00095	8b 42 f8	 mov	 eax, DWORD PTR [edx-8]
  00098	50		 push	 eax
  00099	e8 00 00 00 00	 call	 _strcat
  0009e	83 c4 08	 add	 esp, 8

; 1080 :     Pop2;

  000a1	a1 00 00 00 00	 mov	 eax, DWORD PTR _stk
  000a6	83 e8 10	 sub	 eax, 16			; 00000010H
  000a9	a3 00 00 00 00	 mov	 DWORD PTR _stk, eax
$LN6@P_strcat:

; 1081 : }

  000ae	5f		 pop	 edi
  000af	5e		 pop	 esi
  000b0	5b		 pop	 ebx
  000b1	81 c4 c0 00 00
	00		 add	 esp, 192		; 000000c0H
  000b7	3b ec		 cmp	 ebp, esp
  000b9	e8 00 00 00 00	 call	 __RTC_CheckEsp
  000be	8b e5		 mov	 esp, ebp
  000c0	5d		 pop	 ebp
  000c1	c3		 ret	 0
_P_strcat ENDP
; Function compile flags: /Odtp /RTCsu /ZI
_TEXT	ENDS
;	COMDAT _P_strlen
_TEXT	SEGMENT
_P_strlen PROC						; COMDAT

; 1084 : {

  00000	55		 push	 ebp
  00001	8b ec		 mov	 ebp, esp
  00003	81 ec c0 00 00
	00		 sub	 esp, 192		; 000000c0H
  00009	53		 push	 ebx
  0000a	56		 push	 esi
  0000b	57		 push	 edi
  0000c	8d bd 40 ff ff
	ff		 lea	 edi, DWORD PTR [ebp-192]
  00012	b9 30 00 00 00	 mov	 ecx, 48			; 00000030H
  00017	b8 cc cc cc cc	 mov	 eax, -858993460		; ccccccccH
  0001c	f3 ab		 rep stosd

; 1085 :     Sl(1);

  0001e	a1 00 00 00 00	 mov	 eax, DWORD PTR _stk
  00023	2b 05 00 00 00
	00		 sub	 eax, DWORD PTR _stack
  00029	c1 f8 03	 sar	 eax, 3
  0002c	83 f8 01	 cmp	 eax, 1
  0002f	7d 07		 jge	 SHORT $LN3@P_strlen
  00031	e8 00 00 00 00	 call	 _stakunder
  00036	eb 46		 jmp	 SHORT $LN4@P_strlen
$LN3@P_strlen:

; 1086 :     Hpc(S0);

  00038	a1 00 00 00 00	 mov	 eax, DWORD PTR _stk
  0003d	8b 48 f8	 mov	 ecx, DWORD PTR [eax-8]
  00040	3b 0d 00 00 00
	00		 cmp	 ecx, DWORD PTR _heapbot
  00046	72 10		 jb	 SHORT $LN1@P_strlen
  00048	a1 00 00 00 00	 mov	 eax, DWORD PTR _stk
  0004d	8b 48 f8	 mov	 ecx, DWORD PTR [eax-8]
  00050	3b 0d 00 00 00
	00		 cmp	 ecx, DWORD PTR _heaptop
  00056	72 07		 jb	 SHORT $LN2@P_strlen
$LN1@P_strlen:
  00058	e8 00 00 00 00	 call	 _badpointer
  0005d	eb 1f		 jmp	 SHORT $LN4@P_strlen
$LN2@P_strlen:

; 1087 :     S0 = strlen((char *) S0);

  0005f	a1 00 00 00 00	 mov	 eax, DWORD PTR _stk
  00064	8b 48 f8	 mov	 ecx, DWORD PTR [eax-8]
  00067	51		 push	 ecx
  00068	e8 00 00 00 00	 call	 _strlen
  0006d	83 c4 04	 add	 esp, 4
  00070	33 d2		 xor	 edx, edx
  00072	8b 0d 00 00 00
	00		 mov	 ecx, DWORD PTR _stk
  00078	89 41 f8	 mov	 DWORD PTR [ecx-8], eax
  0007b	89 51 fc	 mov	 DWORD PTR [ecx-4], edx
$LN4@P_strlen:

; 1088 : }

  0007e	5f		 pop	 edi
  0007f	5e		 pop	 esi
  00080	5b		 pop	 ebx
  00081	81 c4 c0 00 00
	00		 add	 esp, 192		; 000000c0H
  00087	3b ec		 cmp	 ebp, esp
  00089	e8 00 00 00 00	 call	 __RTC_CheckEsp
  0008e	8b e5		 mov	 esp, ebp
  00090	5d		 pop	 ebp
  00091	c3		 ret	 0
_P_strlen ENDP
_TEXT	ENDS
EXTRN	_strcmp:PROC
; Function compile flags: /Odtp /RTCsu /ZI
;	COMDAT _P_strcmp
_TEXT	SEGMENT
tv90 = -208						; size = 4
_i$ = -8						; size = 4
_P_strcmp PROC						; COMDAT

; 1091 : {

  00000	55		 push	 ebp
  00001	8b ec		 mov	 ebp, esp
  00003	81 ec d0 00 00
	00		 sub	 esp, 208		; 000000d0H
  00009	53		 push	 ebx
  0000a	56		 push	 esi
  0000b	57		 push	 edi
  0000c	8d bd 30 ff ff
	ff		 lea	 edi, DWORD PTR [ebp-208]
  00012	b9 34 00 00 00	 mov	 ecx, 52			; 00000034H
  00017	b8 cc cc cc cc	 mov	 eax, -858993460		; ccccccccH
  0001c	f3 ab		 rep stosd

; 1092 :     int i;
; 1093 : 
; 1094 :     Sl(2);

  0001e	a1 00 00 00 00	 mov	 eax, DWORD PTR _stk
  00023	2b 05 00 00 00
	00		 sub	 eax, DWORD PTR _stack
  00029	c1 f8 03	 sar	 eax, 3
  0002c	83 f8 02	 cmp	 eax, 2
  0002f	7d 0a		 jge	 SHORT $LN5@P_strcmp
  00031	e8 00 00 00 00	 call	 _stakunder
  00036	e9 b4 00 00 00	 jmp	 $LN6@P_strcmp
$LN5@P_strcmp:

; 1095 :     Hpc(S0);

  0003b	a1 00 00 00 00	 mov	 eax, DWORD PTR _stk
  00040	8b 48 f8	 mov	 ecx, DWORD PTR [eax-8]
  00043	3b 0d 00 00 00
	00		 cmp	 ecx, DWORD PTR _heapbot
  00049	72 10		 jb	 SHORT $LN3@P_strcmp
  0004b	a1 00 00 00 00	 mov	 eax, DWORD PTR _stk
  00050	8b 48 f8	 mov	 ecx, DWORD PTR [eax-8]
  00053	3b 0d 00 00 00
	00		 cmp	 ecx, DWORD PTR _heaptop
  00059	72 0a		 jb	 SHORT $LN4@P_strcmp
$LN3@P_strcmp:
  0005b	e8 00 00 00 00	 call	 _badpointer
  00060	e9 8a 00 00 00	 jmp	 $LN6@P_strcmp
$LN4@P_strcmp:

; 1096 :     Hpc(S1);

  00065	a1 00 00 00 00	 mov	 eax, DWORD PTR _stk
  0006a	8b 48 f0	 mov	 ecx, DWORD PTR [eax-16]
  0006d	3b 0d 00 00 00
	00		 cmp	 ecx, DWORD PTR _heapbot
  00073	72 10		 jb	 SHORT $LN1@P_strcmp
  00075	a1 00 00 00 00	 mov	 eax, DWORD PTR _stk
  0007a	8b 48 f0	 mov	 ecx, DWORD PTR [eax-16]
  0007d	3b 0d 00 00 00
	00		 cmp	 ecx, DWORD PTR _heaptop
  00083	72 07		 jb	 SHORT $LN2@P_strcmp
$LN1@P_strcmp:
  00085	e8 00 00 00 00	 call	 _badpointer
  0008a	eb 63		 jmp	 SHORT $LN6@P_strcmp
$LN2@P_strcmp:

; 1097 :     i = strcmp((char *) S1, (char *) S0);

  0008c	a1 00 00 00 00	 mov	 eax, DWORD PTR _stk
  00091	8b 48 f8	 mov	 ecx, DWORD PTR [eax-8]
  00094	51		 push	 ecx
  00095	8b 15 00 00 00
	00		 mov	 edx, DWORD PTR _stk
  0009b	8b 42 f0	 mov	 eax, DWORD PTR [edx-16]
  0009e	50		 push	 eax
  0009f	e8 00 00 00 00	 call	 _strcmp
  000a4	83 c4 08	 add	 esp, 8
  000a7	89 45 f8	 mov	 DWORD PTR _i$[ebp], eax

; 1098 :     S1 = (i == 0) ? 0L : ((i > 0) ? 1L : -1L);

  000aa	83 7d f8 00	 cmp	 DWORD PTR _i$[ebp], 0
  000ae	75 0c		 jne	 SHORT $LN8@P_strcmp
  000b0	c7 85 30 ff ff
	ff 00 00 00 00	 mov	 DWORD PTR tv90[ebp], 0
  000ba	eb 13		 jmp	 SHORT $LN9@P_strcmp
$LN8@P_strcmp:
  000bc	33 c0		 xor	 eax, eax
  000be	83 7d f8 00	 cmp	 DWORD PTR _i$[ebp], 0
  000c2	0f 9f c0	 setg	 al
